
__tmp__/halo_frame:     file format elf32-littlearm


Disassembly of section .interp:

000100f4 <.interp>:
   100f4:	62696c2f 	rsbvs	r6, r9, #12032	; 0x2f00
   100f8:	2d646c2f 	stclcs	12, cr6, [r4, #-188]!	; 0xffffff44
   100fc:	696c4375 	stmdbvs	ip!, {r0, r2, r4, r5, r6, r8, r9, lr}^
   10100:	732e6362 	teqvc	lr, #-2013265919	; 0x88000001
   10104:	00302e6f 	eorseq	r2, r0, pc, ror #28

Disassembly of section .hash:

00010108 <.hash>:
   10108:	00000043 	andeq	r0, r0, r3, asr #32
   1010c:	0000005f 	andeq	r0, r0, pc, asr r0
   10110:	00000000 	andeq	r0, r0, r0
   10114:	00000053 	andeq	r0, r0, r3, asr r0
   10118:	00000020 	andeq	r0, r0, r0, lsr #32
   1011c:	00000000 	andeq	r0, r0, r0
   10120:	00000051 	andeq	r0, r0, r1, asr r0
   10124:	0000005d 	andeq	r0, r0, sp, asr r0
   10128:	00000000 	andeq	r0, r0, r0
   1012c:	00000057 	andeq	r0, r0, r7, asr r0
   10130:	00000031 	andeq	r0, r0, r1, lsr r0
   10134:	00000039 	andeq	r0, r0, r9, lsr r0
   10138:	0000004d 	andeq	r0, r0, sp, asr #32
   1013c:	00000054 	andeq	r0, r0, r4, asr r0
   10140:	00000047 	andeq	r0, r0, r7, asr #32
   10144:	0000005e 	andeq	r0, r0, lr, asr r0
   10148:	0000003b 	andeq	r0, r0, fp, lsr r0
   1014c:	0000004c 	andeq	r0, r0, ip, asr #32
   10150:	00000041 	andeq	r0, r0, r1, asr #32
   10154:	00000000 	andeq	r0, r0, r0
   10158:	0000003e 	andeq	r0, r0, lr, lsr r0
	...
   10164:	0000002a 	andeq	r0, r0, sl, lsr #32
   10168:	00000000 	andeq	r0, r0, r0
   1016c:	0000003f 	andeq	r0, r0, pc, lsr r0
   10170:	00000026 	andeq	r0, r0, r6, lsr #32
   10174:	00000034 	andeq	r0, r0, r4, lsr r0
   10178:	0000005b 	andeq	r0, r0, fp, asr r0
   1017c:	00000052 	andeq	r0, r0, r2, asr r0
   10180:	00000023 	andeq	r0, r0, r3, lsr #32
   10184:	0000001e 	andeq	r0, r0, lr, lsl r0
   10188:	0000004e 	andeq	r0, r0, lr, asr #32
   1018c:	00000000 	andeq	r0, r0, r0
   10190:	00000033 	andeq	r0, r0, r3, lsr r0
   10194:	0000005a 	andeq	r0, r0, sl, asr r0
   10198:	00000058 	andeq	r0, r0, r8, asr r0
	...
   101a8:	00000059 	andeq	r0, r0, r9, asr r0
   101ac:	00000036 	andeq	r0, r0, r6, lsr r0
   101b0:	00000030 	andeq	r0, r0, r0, lsr r0
   101b4:	0000002e 	andeq	r0, r0, lr, lsr #32
   101b8:	00000021 	andeq	r0, r0, r1, lsr #32
   101bc:	00000000 	andeq	r0, r0, r0
   101c0:	00000013 	andeq	r0, r0, r3, lsl r0
   101c4:	00000022 	andeq	r0, r0, r2, lsr #32
   101c8:	0000003a 	andeq	r0, r0, sl, lsr r0
   101cc:	00000037 	andeq	r0, r0, r7, lsr r0
   101d0:	00000043 	andeq	r0, r0, r3, asr #32
   101d4:	00000018 	andeq	r0, r0, r8, lsl r0
   101d8:	0000003c 	andeq	r0, r0, ip, lsr r0
   101dc:	00000038 	andeq	r0, r0, r8, lsr r0
   101e0:	00000010 	andeq	r0, r0, r0, lsl r0
   101e4:	00000000 	andeq	r0, r0, r0
   101e8:	00000003 	andeq	r0, r0, r3
   101ec:	00000024 	andeq	r0, r0, r4, lsr #32
   101f0:	00000011 	andeq	r0, r0, r1, lsl r0
   101f4:	00000016 	andeq	r0, r0, r6, lsl r0
   101f8:	00000000 	andeq	r0, r0, r0
   101fc:	00000027 	andeq	r0, r0, r7, lsr #32
   10200:	00000046 	andeq	r0, r0, r6, asr #32
   10204:	00000050 	andeq	r0, r0, r0, asr r0
   10208:	00000029 	andeq	r0, r0, r9, lsr #32
   1020c:	00000035 	andeq	r0, r0, r5, lsr r0
   10210:	00000042 	andeq	r0, r0, r2, asr #32
	...
   10234:	00000005 	andeq	r0, r0, r5
	...
   10264:	0000000a 	andeq	r0, r0, sl
	...
   10270:	00000009 	andeq	r0, r0, r9
	...
   1027c:	00000004 	andeq	r0, r0, r4
   10280:	00000000 	andeq	r0, r0, r0
   10284:	00000014 	andeq	r0, r0, r4, lsl r0
	...
   10294:	00000006 	andeq	r0, r0, r6
   10298:	0000001d 	andeq	r0, r0, sp, lsl r0
	...
   102b0:	0000000c 	andeq	r0, r0, ip
	...
   102c0:	0000001c 	andeq	r0, r0, ip, lsl r0
   102c4:	00000000 	andeq	r0, r0, r0
   102c8:	00000007 	andeq	r0, r0, r7
   102cc:	0000000b 	andeq	r0, r0, fp
   102d0:	00000019 	andeq	r0, r0, r9, lsl r0
   102d4:	0000000e 	andeq	r0, r0, lr
   102d8:	00000008 	andeq	r0, r0, r8
   102dc:	0000002f 	andeq	r0, r0, pc, lsr #32
   102e0:	00000015 	andeq	r0, r0, r5, lsl r0
   102e4:	0000001b 	andeq	r0, r0, fp, lsl r0
   102e8:	00000000 	andeq	r0, r0, r0
   102ec:	0000001a 	andeq	r0, r0, sl, lsl r0
	...
   10300:	00000025 	andeq	r0, r0, r5, lsr #32
	...
   1030c:	0000002d 	andeq	r0, r0, sp, lsr #32
   10310:	00000001 	andeq	r0, r0, r1
	...
   1031c:	00000002 	andeq	r0, r0, r2
	...
   10328:	00000017 	andeq	r0, r0, r7, lsl r0
   1032c:	0000002b 	andeq	r0, r0, fp, lsr #32
	...
   10340:	0000000d 	andeq	r0, r0, sp
   10344:	00000040 	andeq	r0, r0, r0, asr #32
   10348:	0000000f 	andeq	r0, r0, pc
   1034c:	0000004a 	andeq	r0, r0, sl, asr #32
   10350:	00000044 	andeq	r0, r0, r4, asr #32
   10354:	00000045 	andeq	r0, r0, r5, asr #32
   10358:	00000000 	andeq	r0, r0, r0
   1035c:	00000032 	andeq	r0, r0, r2, lsr r0
   10360:	0000004b 	andeq	r0, r0, fp, asr #32
   10364:	00000000 	andeq	r0, r0, r0
   10368:	00000012 	andeq	r0, r0, r2, lsl r0
   1036c:	0000001f 	andeq	r0, r0, pc, lsl r0
   10370:	0000004f 	andeq	r0, r0, pc, asr #32
   10374:	0000002c 	andeq	r0, r0, ip, lsr #32
   10378:	00000055 	andeq	r0, r0, r5, asr r0
   1037c:	0000003d 	andeq	r0, r0, sp, lsr r0
   10380:	00000000 	andeq	r0, r0, r0
   10384:	00000028 	andeq	r0, r0, r8, lsr #32
   10388:	00000048 	andeq	r0, r0, r8, asr #32
   1038c:	00000056 	andeq	r0, r0, r6, asr r0
   10390:	0000005c 	andeq	r0, r0, ip, asr r0
   10394:	00000049 	andeq	r0, r0, r9, asr #32

Disassembly of section .dynsym:

00010398 <.dynsym>:
	...
   103a8:	0000043e 	andeq	r0, r0, lr, lsr r4
   103ac:	0002972c 	andeq	r9, r2, ip, lsr #14
   103b0:	00000000 	andeq	r0, r0, r0
   103b4:	00120000 	andseq	r0, r2, r0
   103b8:	00000458 	andeq	r0, r0, r8, asr r4
   103bc:	00029788 	andeq	r9, r2, r8, lsl #15
   103c0:	00000000 	andeq	r0, r0, r0
   103c4:	00120000 	andseq	r0, r2, r0
   103c8:	0000044c 	andeq	r0, r0, ip, asr #8
   103cc:	00029788 	andeq	r9, r2, r8, lsl #15
   103d0:	00000000 	andeq	r0, r0, r0
   103d4:	00120000 	andseq	r0, r2, r0
   103d8:	00000432 	andeq	r0, r0, r2, lsr r4
   103dc:	0002972c 	andeq	r9, r2, ip, lsr #14
   103e0:	00000000 	andeq	r0, r0, r0
   103e4:	00120000 	andseq	r0, r2, r0
   103e8:	0000044d 	andeq	r0, r0, sp, asr #8
   103ec:	00029788 	andeq	r9, r2, r8, lsl #15
   103f0:	00000000 	andeq	r0, r0, r0
   103f4:	00120000 	andseq	r0, r2, r0
   103f8:	00000460 	andeq	r0, r0, r0, ror #8
   103fc:	00029788 	andeq	r9, r2, r8, lsl #15
   10400:	00000000 	andeq	r0, r0, r0
   10404:	00120000 	andseq	r0, r2, r0
   10408:	0000042b 	andeq	r0, r0, fp, lsr #8
   1040c:	0002972c 	andeq	r9, r2, ip, lsr #14
   10410:	00000000 	andeq	r0, r0, r0
   10414:	00110000 	andseq	r0, r1, r0
   10418:	00000465 	andeq	r0, r0, r5, ror #8
   1041c:	00015d5c 	andeq	r5, r1, ip, asr sp
   10420:	00000050 	andeq	r0, r0, r0, asr r0
   10424:	00090012 	andeq	r0, r9, r2, lsl r0
   10428:	00000113 	andeq	r0, r0, r3, lsl r1
	...
   10434:	00000012 	andeq	r0, r0, r2, lsl r0
   10438:	00000301 	andeq	r0, r0, r1, lsl #6
	...
   10444:	00000020 	andeq	r0, r0, r0, lsr #32
   10448:	00000405 	andeq	r0, r0, r5, lsl #8
	...
   10454:	00000012 	andeq	r0, r0, r2, lsl r0
   10458:	00000094 	muleq	r0, r4, r0
	...
   10464:	00000012 	andeq	r0, r0, r2, lsl r0
   10468:	00000437 	andeq	r0, r0, r7, lsr r4
   1046c:	00011504 	andeq	r1, r1, r4, lsl #10
   10470:	00000050 	andeq	r0, r0, r0, asr r0
   10474:	00090012 	andeq	r0, r9, r2, lsl r0
   10478:	000000ac 	andeq	r0, r0, ip, lsr #1
	...
   10484:	00000012 	andeq	r0, r0, r2, lsl r0
   10488:	000001bf 			; <UNDEFINED> instruction: 0x000001bf
	...
   10494:	00000012 	andeq	r0, r0, r2, lsl r0
   10498:	000000dd 	ldrdeq	r0, [r0], -sp
	...
   104a4:	00000012 	andeq	r0, r0, r2, lsl r0
   104a8:	0000002d 	andeq	r0, r0, sp, lsr #32
	...
   104b4:	00000012 	andeq	r0, r0, r2, lsl r0
   104b8:	00000222 	andeq	r0, r0, r2, lsr #4
	...
   104c4:	00000012 	andeq	r0, r0, r2, lsl r0
   104c8:	0000026d 	andeq	r0, r0, sp, ror #4
	...
   104d4:	00000012 	andeq	r0, r0, r2, lsl r0
   104d8:	000000de 	ldrdeq	r0, [r0], -lr
	...
   104e4:	00000012 	andeq	r0, r0, r2, lsl r0
   104e8:	00000102 	andeq	r0, r0, r2, lsl #2
	...
   104f4:	00000012 	andeq	r0, r0, r2, lsl r0
   104f8:	00000475 	andeq	r0, r0, r5, ror r4
   104fc:	00012ed0 	ldrdeq	r2, [r1], -r0
   10500:	0000005c 	andeq	r0, r0, ip, asr r0
   10504:	00090012 	andeq	r0, r9, r2, lsl r0
   10508:	000001fd 	strdeq	r0, [r0], -sp
	...
   10514:	00000012 	andeq	r0, r0, r2, lsl r0
   10518:	00000234 	andeq	r0, r0, r4, lsr r2
	...
   10524:	00000012 	andeq	r0, r0, r2, lsl r0
   10528:	00000483 	andeq	r0, r0, r3, lsl #9
   1052c:	00013558 	andeq	r3, r1, r8, asr r5
   10530:	000000a0 	andeq	r0, r0, r0, lsr #1
   10534:	00090012 	andeq	r0, r9, r2, lsl r0
   10538:	00000494 	muleq	r0, r4, r4
   1053c:	00011628 	andeq	r1, r1, r8, lsr #12
   10540:	00000038 	andeq	r0, r0, r8, lsr r0
   10544:	00090012 	andeq	r0, r9, r2, lsl r0
   10548:	00000079 	andeq	r0, r0, r9, ror r0
   1054c:	00017b64 	andeq	r7, r1, r4, ror #22
   10550:	00000000 	andeq	r0, r0, r0
   10554:	000a0012 	andeq	r0, sl, r2, lsl r0
   10558:	00000043 	andeq	r0, r0, r3, asr #32
   1055c:	000111b4 			; <UNDEFINED> instruction: 0x000111b4
   10560:	00000000 	andeq	r0, r0, r0
   10564:	00000012 	andeq	r0, r0, r2, lsl r0
   10568:	00000118 	andeq	r0, r0, r8, lsl r1
	...
   10574:	00000012 	andeq	r0, r0, r2, lsl r0
   10578:	000003ed 	andeq	r0, r0, sp, ror #7
	...
   10584:	00000012 	andeq	r0, r0, r2, lsl r0
   10588:	000000d7 	ldrdeq	r0, [r0], -r7
	...
   10594:	00000012 	andeq	r0, r0, r2, lsl r0
   10598:	000000f7 	strdeq	r0, [r0], -r7
	...
   105a4:	00000012 	andeq	r0, r0, r2, lsl r0
   105a8:	000004e5 	andeq	r0, r0, r5, ror #9
	...
   105b4:	00000012 	andeq	r0, r0, r2, lsl r0
   105b8:	000000a5 	andeq	r0, r0, r5, lsr #1
	...
   105c4:	00000012 	andeq	r0, r0, r2, lsl r0
   105c8:	0000012f 	andeq	r0, r0, pc, lsr #2
	...
   105d4:	00000012 	andeq	r0, r0, r2, lsl r0
   105d8:	000004a5 	andeq	r0, r0, r5, lsr #9
   105dc:	00015c24 	andeq	r5, r1, r4, lsr #24
   105e0:	00000004 	andeq	r0, r0, r4
   105e4:	00090012 	andeq	r0, r9, r2, lsl r0
   105e8:	0000013a 	andeq	r0, r0, sl, lsr r1
	...
   105f4:	00000012 	andeq	r0, r0, r2, lsl r0
   105f8:	000002e5 	andeq	r0, r0, r5, ror #5
	...
   10604:	00000020 	andeq	r0, r0, r0, lsr #32
   10608:	00000212 	andeq	r0, r0, r2, lsl r2
	...
   10614:	00000012 	andeq	r0, r0, r2, lsl r0
   10618:	000000f0 	strdeq	r0, [r0], -r0	; <UNPREDICTABLE>
	...
   10624:	00000012 	andeq	r0, r0, r2, lsl r0
   10628:	000003d5 	ldrdeq	r0, [r0], -r5
	...
   10634:	00000012 	andeq	r0, r0, r2, lsl r0
   10638:	000004b5 			; <UNDEFINED> instruction: 0x000004b5
   1063c:	000296ec 	andeq	r9, r2, ip, ror #13
   10640:	00000040 	andeq	r0, r0, r0, asr #32
   10644:	00110011 	andseq	r0, r1, r1, lsl r0
   10648:	000002cb 	andeq	r0, r0, fp, asr #5
	...
   10654:	00000020 	andeq	r0, r0, r0, lsr #32
   10658:	0000024a 	andeq	r0, r0, sl, asr #4
	...
   10664:	00000012 	andeq	r0, r0, r2, lsl r0
   10668:	0000015a 	andeq	r0, r0, sl, asr r1
	...
   10674:	00000012 	andeq	r0, r0, r2, lsl r0
   10678:	00000217 	andeq	r0, r0, r7, lsl r2
	...
   10684:	00000012 	andeq	r0, r0, r2, lsl r0
   10688:	00000267 	andeq	r0, r0, r7, ror #4
	...
   10694:	00000012 	andeq	r0, r0, r2, lsl r0
   10698:	000003e1 	andeq	r0, r0, r1, ror #7
	...
   106a4:	00000012 	andeq	r0, r0, r2, lsl r0
   106a8:	000004bd 			; <UNDEFINED> instruction: 0x000004bd
   106ac:	00015dac 	andeq	r5, r1, ip, lsr #27
   106b0:	00000034 	andeq	r0, r0, r4, lsr r0
   106b4:	00090012 	andeq	r0, r9, r2, lsl r0
   106b8:	00000011 	andeq	r0, r0, r1, lsl r0
	...
   106c4:	00000012 	andeq	r0, r0, r2, lsl r0
   106c8:	00000065 	andeq	r0, r0, r5, rrx
	...
   106d4:	00000012 	andeq	r0, r0, r2, lsl r0
   106d8:	000004c5 	andeq	r0, r0, r5, asr #9
	...
   106e4:	00000012 	andeq	r0, r0, r2, lsl r0
   106e8:	00000087 	andeq	r0, r0, r7, lsl #1
	...
   106f4:	00000012 	andeq	r0, r0, r2, lsl r0
   106f8:	00000120 	andeq	r0, r0, r0, lsr #2
	...
   10704:	00000012 	andeq	r0, r0, r2, lsl r0
   10708:	000004cb 	andeq	r0, r0, fp, asr #9
   1070c:	00011620 	andeq	r1, r1, r0, lsr #12
   10710:	00000008 	andeq	r0, r0, r8
   10714:	00090012 	andeq	r0, r9, r2, lsl r0
   10718:	00000286 	andeq	r0, r0, r6, lsl #5
	...
   10724:	00000011 	andeq	r0, r0, r1, lsl r0
   10728:	00000413 	andeq	r0, r0, r3, lsl r4
	...
   10734:	00000012 	andeq	r0, r0, r2, lsl r0
   10738:	000004db 	ldrdeq	r0, [r0], -fp
   1073c:	00015b80 	andeq	r5, r1, r0, lsl #23
   10740:	000000a4 	andeq	r0, r0, r4, lsr #1
   10744:	00090012 	andeq	r0, r9, r2, lsl r0
   10748:	000003fb 	strdeq	r0, [r0], -fp
	...
   10754:	00000012 	andeq	r0, r0, r2, lsl r0
   10758:	000004ea 	andeq	r0, r0, sl, ror #9
   1075c:	00011660 	andeq	r1, r1, r0, ror #12
   10760:	00000098 	muleq	r0, r8, r0
   10764:	00090012 	andeq	r0, r9, r2, lsl r0
   10768:	0000020c 	andeq	r0, r0, ip, lsl #4
	...
   10774:	00000012 	andeq	r0, r0, r2, lsl r0
   10778:	0000006b 	andeq	r0, r0, fp, rrx
	...
   10784:	00000012 	andeq	r0, r0, r2, lsl r0
   10788:	000003ab 	andeq	r0, r0, fp, lsr #7
	...
   10794:	00000012 	andeq	r0, r0, r2, lsl r0
   10798:	000004fa 	strdeq	r0, [r0], -sl
   1079c:	00013554 	andeq	r3, r1, r4, asr r5
   107a0:	00000004 	andeq	r0, r0, r4
   107a4:	00090012 	andeq	r0, r9, r2, lsl r0
   107a8:	000003cd 	andeq	r0, r0, sp, asr #7
	...
   107b4:	00000012 	andeq	r0, r0, r2, lsl r0
   107b8:	0000034f 	andeq	r0, r0, pc, asr #6
	...
   107c4:	00000012 	andeq	r0, r0, r2, lsl r0
   107c8:	00000059 	andeq	r0, r0, r9, asr r0
	...
   107d4:	00000012 	andeq	r0, r0, r2, lsl r0
   107d8:	00000346 	andeq	r0, r0, r6, asr #6
	...
   107e4:	00000012 	andeq	r0, r0, r2, lsl r0
   107e8:	0000007f 	andeq	r0, r0, pc, ror r0
	...
   107f4:	00000012 	andeq	r0, r0, r2, lsl r0
   107f8:	00000020 	andeq	r0, r0, r0, lsr #32
	...
   10804:	00000012 	andeq	r0, r0, r2, lsl r0
   10808:	000000e9 	andeq	r0, r0, r9, ror #1
	...
   10814:	00000012 	andeq	r0, r0, r2, lsl r0
   10818:	00000034 	andeq	r0, r0, r4, lsr r0
	...
   10824:	00000012 	andeq	r0, r0, r2, lsl r0
   10828:	0000050c 	andeq	r0, r0, ip, lsl #10
   1082c:	00011828 	andeq	r1, r1, r8, lsr #16
   10830:	0000009c 	muleq	r0, ip, r0
   10834:	00090012 	andeq	r0, r9, r2, lsl r0
   10838:	000001c5 	andeq	r0, r0, r5, asr #3
	...
   10844:	00000012 	andeq	r0, r0, r2, lsl r0
   10848:	00000182 	andeq	r0, r0, r2, lsl #3
	...
   10854:	00000012 	andeq	r0, r0, r2, lsl r0
   10858:	00000072 	andeq	r0, r0, r2, ror r0
	...
   10864:	00000012 	andeq	r0, r0, r2, lsl r0
   10868:	000001a2 	andeq	r0, r0, r2, lsr #3
	...
   10874:	00000012 	andeq	r0, r0, r2, lsl r0
   10878:	00000296 	muleq	r0, r6, r2
	...
   10884:	00000012 	andeq	r0, r0, r2, lsl r0
   10888:	0000010c 	andeq	r0, r0, ip, lsl #2
	...
   10894:	00000012 	andeq	r0, r0, r2, lsl r0
   10898:	000000be 	strheq	r0, [r0], -lr
   1089c:	000113a0 	andeq	r1, r1, r0, lsr #7
   108a0:	00000000 	andeq	r0, r0, r0
   108a4:	00000012 	andeq	r0, r0, r2, lsl r0
   108a8:	00000189 	andeq	r0, r0, r9, lsl #3
	...
   108b4:	00000012 	andeq	r0, r0, r2, lsl r0
   108b8:	0000051a 	andeq	r0, r0, sl, lsl r5
   108bc:	0001374c 	andeq	r3, r1, ip, asr #14
   108c0:	0000002c 	andeq	r0, r0, ip, lsr #32
   108c4:	00090012 	andeq	r0, r9, r2, lsl r0
   108c8:	00000128 	andeq	r0, r0, r8, lsr #2
	...
   108d4:	00000012 	andeq	r0, r0, r2, lsl r0
   108d8:	00000258 	andeq	r0, r0, r8, asr r2
	...
   108e4:	00000012 	andeq	r0, r0, r2, lsl r0
   108e8:	00000080 	andeq	r0, r0, r0, lsl #1
	...
   108f4:	00000012 	andeq	r0, r0, r2, lsl r0
   108f8:	00000275 	andeq	r0, r0, r5, ror r2
	...
   10904:	00000012 	andeq	r0, r0, r2, lsl r0
   10908:	0000004a 	andeq	r0, r0, sl, asr #32
	...
   10914:	00000012 	andeq	r0, r0, r2, lsl r0
   10918:	000000e4 	andeq	r0, r0, r4, ror #1
	...
   10924:	00000012 	andeq	r0, r0, r2, lsl r0
   10928:	000001eb 	andeq	r0, r0, fp, ror #3
	...
   10934:	00000012 	andeq	r0, r0, r2, lsl r0
   10938:	00000107 	andeq	r0, r0, r7, lsl #2
	...
   10944:	00000012 	andeq	r0, r0, r2, lsl r0
   10948:	0000005f 	andeq	r0, r0, pc, asr r0
   1094c:	000110e8 	andeq	r1, r1, r8, ror #1
   10950:	00000000 	andeq	r0, r0, r0
   10954:	00070012 	andeq	r0, r7, r2, lsl r0
   10958:	000000d0 	ldrdeq	r0, [r0], -r0	; <UNPREDICTABLE>
	...
   10964:	00000012 	andeq	r0, r0, r2, lsl r0
   10968:	000002b3 			; <UNDEFINED> instruction: 0x000002b3
	...
   10974:	00000020 	andeq	r0, r0, r0, lsr #32
   10978:	000000b1 	strheq	r0, [r0], -r1
	...
   10984:	00000012 	andeq	r0, r0, r2, lsl r0

Disassembly of section .dynstr:

00010988 <.dynstr>:
   10988:	62696c00 	rsbvs	r6, r9, #0, 24
   1098c:	72687470 	rsbvc	r7, r8, #112, 8	; 0x70000000
   10990:	2e646165 	powcssz	f6, f4, f5
   10994:	302e6f73 	eorcc	r6, lr, r3, ror pc
   10998:	68747000 	ldmdavs	r4!, {ip, sp, lr}^
   1099c:	64616572 	strbtvs	r6, [r1], #-1394	; 0x572
   109a0:	6572635f 	ldrbvs	r6, [r2, #-863]!	; 0x35f
   109a4:	00657461 	rsbeq	r7, r5, r1, ror #8
   109a8:	72687470 	rsbvc	r7, r8, #112, 8	; 0x70000000
   109ac:	5f646165 	svcpl	0x00646165
   109b0:	74697865 	strbtvc	r7, [r9], #-2149	; 0x865
   109b4:	6d656d00 	stclvs	13, cr6, [r5, #-0]
   109b8:	00797063 	rsbseq	r7, r9, r3, rrx
   109bc:	72687470 	rsbvc	r7, r8, #112, 8	; 0x70000000
   109c0:	5f646165 	svcpl	0x00646165
   109c4:	636e6163 	cmnvs	lr, #-1073741800	; 0xc0000018
   109c8:	6d006c65 	stcvs	12, cr6, [r0, #-404]	; 0xfffffe6c
   109cc:	6f6c6c61 	svcvs	0x006c6c61
   109d0:	74700063 	ldrbtvc	r0, [r0], #-99	; 0x63
   109d4:	61657268 	cmnvs	r5, r8, ror #4
   109d8:	65645f64 	strbvs	r5, [r4, #-3940]!	; 0xf64
   109dc:	68636174 	stmdavs	r3!, {r2, r4, r5, r6, r8, sp, lr}^
   109e0:	6f626100 	svcvs	0x00626100
   109e4:	5f007472 	svcpl	0x00007472
   109e8:	74696e69 	strbtvc	r6, [r9], #-3689	; 0xe69
   109ec:	69727700 	ldmdbvs	r2!, {r8, r9, sl, ip, sp, lr}^
   109f0:	6d006574 	cfstr32vs	mvfx6, [r0, #-464]	; 0xfffffe30
   109f4:	65736d65 	ldrbvs	r6, [r3, #-3429]!	; 0xd65
   109f8:	74730074 	ldrbtvc	r0, [r3], #-116	; 0x74
   109fc:	706d6372 	rsbvc	r6, sp, r2, ror r3
   10a00:	69665f00 	stmdbvs	r6!, {r8, r9, sl, fp, ip, lr}^
   10a04:	7300696e 	movwvc	r6, #2414	; 0x96e
   10a08:	6e697270 	mcrvs	2, 3, r7, cr9, cr0, {3}
   10a0c:	70006674 	andvc	r6, r0, r4, ror r6
   10a10:	65726874 	ldrbvs	r6, [r2, #-2164]!	; 0x874
   10a14:	735f6461 	cmpvc	pc, #1627389952	; 0x61000000
   10a18:	00666c65 	rsbeq	r6, r6, r5, ror #24
   10a1c:	72655f5f 	rsbvc	r5, r5, #380	; 0x17c
   10a20:	5f6f6e72 	svcpl	0x006f6e72
   10a24:	61636f6c 	cmnvs	r3, ip, ror #30
   10a28:	6e6f6974 	mcrvs	9, 3, r6, cr15, cr4, {3}
   10a2c:	72747300 	rsbsvc	r7, r4, #0, 6
   10a30:	006e656c 	rsbeq	r6, lr, ip, ror #10
   10a34:	6e65706f 	cdpvs	0, 6, cr7, cr5, cr15, {3}
   10a38:	68747000 	ldmdavs	r4!, {ip, sp, lr}^
   10a3c:	64616572 	strbtvs	r6, [r1], #-1394	; 0x572
   10a40:	696f6a5f 	stmdbvs	pc!, {r0, r1, r2, r3, r4, r6, r9, fp, sp, lr}^	; <UNPREDICTABLE>
   10a44:	7266006e 	rsbvc	r0, r6, #110	; 0x6e
   10a48:	6c006565 	cfstr32vs	mvfx6, [r0], {101}	; 0x65
   10a4c:	70616269 	rsbvc	r6, r1, r9, ror #4
   10a50:	62696c70 	rsbvs	r6, r9, #112, 24	; 0x7000
   10a54:	006f732e 	rsbeq	r7, pc, lr, lsr #6
   10a58:	63727473 	cmnvs	r2, #1929379840	; 0x73000000
   10a5c:	69007970 	stmdbvs	r0, {r4, r5, r6, r8, fp, ip, sp, lr}
   10a60:	6c74636f 	ldclvs	3, cr6, [r4], #-444	; 0xfffffe44
   10a64:	6c737500 	cfldr64vs	mvdx7, [r3], #-0
   10a68:	00706565 	rsbseq	r6, r0, r5, ror #10
   10a6c:	73747570 	cmnvc	r4, #112, 10	; 0x1c000000
   10a70:	636f7300 	cmnvs	pc, #0, 6
   10a74:	0074656b 	rsbseq	r6, r4, fp, ror #10
   10a78:	656c6573 	strbvs	r6, [ip, #-1395]!	; 0x573
   10a7c:	67007463 	strvs	r7, [r0, -r3, ror #8]
   10a80:	635f7465 	cmpvs	pc, #1694498816	; 0x65000000
   10a84:	69666e6f 	stmdbvs	r6!, {r0, r1, r2, r3, r5, r6, r9, sl, fp, sp, lr}^
   10a88:	65730067 	ldrbvs	r0, [r3, #-103]!	; 0x67
   10a8c:	7000646e 	andvc	r6, r0, lr, ror #8
   10a90:	00657069 	rsbeq	r7, r5, r9, rrx
   10a94:	65636361 	strbvs	r6, [r3, #-865]!	; 0x361
   10a98:	62007470 	andvs	r7, r0, #112, 8	; 0x70000000
   10a9c:	00646e69 	rsbeq	r6, r4, r9, ror #28
   10aa0:	6e727473 	mrcvs	4, 3, r7, cr2, cr3, {3}
   10aa4:	00706d63 	rsbseq	r6, r0, r3, ror #26
   10aa8:	6e727473 	mrcvs	4, 3, r7, cr2, cr3, {3}
   10aac:	00797063 	rsbseq	r7, r9, r3, rrx
   10ab0:	7473696c 	ldrbtvc	r6, [r3], #-2412	; 0x96c
   10ab4:	73006e65 	movwvc	r6, #3685	; 0xe65
   10ab8:	635f7465 	cmpvs	pc, #1694498816	; 0x65000000
   10abc:	69666e6f 	stmdbvs	r6!, {r0, r1, r2, r3, r5, r6, r9, sl, fp, sp, lr}^
   10ac0:	63660067 	cmnvs	r6, #103	; 0x67
   10ac4:	006c746e 	rsbeq	r7, ip, lr, ror #8
   10ac8:	7262696c 	rsbvc	r6, r2, #108, 18	; 0x1b0000
   10acc:	6f732e74 	svcvs	0x00732e74
   10ad0:	6c00302e 	stcvs	0, cr3, [r0], {46}	; 0x2e
   10ad4:	70616269 	rsbvc	r6, r1, r9, ror #4
   10ad8:	666e6f63 	strbtvs	r6, [lr], -r3, ror #30
   10adc:	732e6769 	teqvc	lr, #27525120	; 0x1a40000
   10ae0:	7973006f 	ldmdbvc	r3!, {r0, r1, r2, r3, r5, r6}^
   10ae4:	635f636e 	cmpvs	pc, #-1207959551	; 0xb8000001
   10ae8:	69666e6f 	stmdbvs	r6!, {r0, r1, r2, r3, r5, r6, r9, sl, fp, sp, lr}^
   10aec:	696c0067 	stmdbvs	ip!, {r0, r1, r2, r5, r6}^
   10af0:	2e6c6462 	cdpcs	4, 6, cr6, cr12, cr2, {3}
   10af4:	302e6f73 	eorcc	r6, lr, r3, ror pc
   10af8:	62696c00 	rsbvs	r6, r9, #0, 24
   10afc:	666e6f63 	strbtvs	r6, [lr], -r3, ror #30
   10b00:	61706769 	cmnvs	r0, r9, ror #14
   10b04:	732e7472 	teqvc	lr, #1912602624	; 0x72000000
   10b08:	7473006f 	ldrbtvc	r0, [r3], #-111	; 0x6f
   10b0c:	72747372 	rsbsvc	r7, r4, #-939524095	; 0xc8000001
   10b10:	72747300 	rsbsvc	r7, r4, #0, 6
   10b14:	00726863 	rsbseq	r6, r2, r3, ror #16
   10b18:	7762696c 	strbvc	r6, [r2, -ip, ror #18]!
   10b1c:	5f696669 	svcpl	0x00696669
   10b20:	65696c63 	strbvs	r6, [r9, #-3171]!	; 0xc63
   10b24:	732e746e 	teqvc	lr, #1845493760	; 0x6e000000
   10b28:	6977006f 	ldmdbvs	r7!, {r0, r1, r2, r3, r5, r6}^
   10b2c:	675f6966 	ldrbvs	r6, [pc, -r6, ror #18]
   10b30:	775f7465 	ldrbvc	r7, [pc, -r5, ror #8]
   10b34:	5f696669 	svcpl	0x00696669
   10b38:	6f666e69 	svcvs	0x00666e69
   10b3c:	62696c00 	rsbvs	r6, r9, #0, 24
   10b40:	6f732e6d 	svcvs	0x00732e6d
   10b44:	6600302e 	strvs	r3, [r0], -lr, lsr #32
   10b48:	726f6f6c 	rsbvc	r6, pc, #108, 30	; 0x1b0
   10b4c:	776f7000 	strbvc	r7, [pc, -r0]!
   10b50:	62696c00 	rsbvs	r6, r9, #0, 24
   10b54:	6f6f6c61 	svcvs	0x006f6c61
   10b58:	2e726570 	mrccs	5, 3, r6, cr2, cr0, {3}
   10b5c:	6c006f73 	stcvs	15, cr6, [r0], {115}	; 0x73
   10b60:	74736269 	ldrbtvc	r6, [r3], #-617	; 0x269
   10b64:	6d616572 	cfstr64vs	mvdx6, [r1, #-456]!	; 0xfffffe38
   10b68:	756f735f 	strbvc	r7, [pc, #-863]!	; 10811 <_init-0x8d7>
   10b6c:	2e656372 	mcrcs	3, 3, r6, cr5, cr2, {3}
   10b70:	67006f73 	smlsdxvs	r0, r3, pc, r6	; <UNPREDICTABLE>
   10b74:	70747468 	rsbsvc	r7, r4, r8, ror #8
   10b78:	7165725f 	cmnvc	r5, pc, asr r2
   10b7c:	74736575 	ldrbtvc	r6, [r3], #-1397	; 0x575
   10b80:	77656e5f 			; <UNDEFINED> instruction: 0x77656e5f
   10b84:	74686700 	strbtvc	r6, [r8], #-1792	; 0x700
   10b88:	735f7074 	cmpvc	pc, #116	; 0x74
   10b8c:	625f7465 	subsvs	r7, pc, #1694498816	; 0x65000000
   10b90:	0079646f 	rsbseq	r6, r9, pc, ror #8
   10b94:	74746867 	ldrbtvc	r6, [r4], #-2151	; 0x867
   10b98:	65725f70 	ldrbvs	r5, [r2, #-3952]!	; 0xf70
   10b9c:	73006461 	movwvc	r6, #1121	; 0x461
   10ba0:	6f737465 	svcvs	0x00737465
   10ba4:	706f6b63 	rsbvc	r6, pc, r3, ror #22
   10ba8:	68670074 	stmdavs	r7!, {r2, r4, r5, r6}^
   10bac:	5f707474 	svcpl	0x00707474
   10bb0:	74617473 	strbtvc	r7, [r1], #-1139	; 0x473
   10bb4:	635f7375 	cmpvs	pc, #-738197503	; 0xd4000001
   10bb8:	0065646f 	rsbeq	r6, r5, pc, ror #8
   10bbc:	74746867 	ldrbtvc	r6, [r4], #-2151	; 0x867
   10bc0:	65725f70 	ldrbvs	r5, [r2, #-3952]!	; 0xf70
   10bc4:	73657571 	cmnvc	r5, #473956352	; 0x1c400000
   10bc8:	65645f74 	strbvs	r5, [r4, #-3956]!	; 0xf74
   10bcc:	6f727473 	svcvs	0x00727473
   10bd0:	68670079 	stmdavs	r7!, {r0, r3, r4, r5, r6}^
   10bd4:	5f707474 	svcpl	0x00707474
   10bd8:	70657270 	rsbvc	r7, r5, r0, ror r2
   10bdc:	00657261 	rsbeq	r7, r5, r1, ror #4
   10be0:	74746867 	ldrbtvc	r6, [r4], #-2151	; 0x867
   10be4:	65735f70 	ldrbvs	r5, [r3, #-3952]!	; 0xf70
   10be8:	79745f74 	ldmdbvc	r4!, {r2, r4, r5, r6, r8, r9, sl, fp, ip, lr}^
   10bec:	67006570 	smlsdxvs	r0, r0, r5, r6
   10bf0:	70747468 	rsbsvc	r7, r4, r8, ror #8
   10bf4:	6e6f635f 	mcrvs	3, 3, r6, cr15, cr15, {2}
   10bf8:	7463656e 	strbtvc	r6, [r3], #-1390	; 0x56e
   10bfc:	74686700 	strbtvc	r6, [r8], #-1792	; 0x700
   10c00:	735f7074 	cmpvc	pc, #116	; 0x74
   10c04:	685f7465 	ldmdavs	pc, {r0, r2, r5, r6, sl, ip, sp, lr}^	; <UNPREDICTABLE>
   10c08:	65646165 	strbvs	r6, [r4, #-357]!	; 0x165
   10c0c:	5f5f0072 	svcpl	0x005f0072
   10c10:	70797463 	rsbsvc	r7, r9, r3, ror #8
   10c14:	6f745f65 	svcvs	0x00745f65
   10c18:	65776f6c 	ldrbvs	r6, [r7, #-3948]!	; 0xf6c
   10c1c:	68670072 	stmdavs	r7!, {r1, r4, r5, r6}^
   10c20:	5f707474 	svcpl	0x00707474
   10c24:	5f746573 	svcpl	0x00746573
   10c28:	00697275 	rsbeq	r7, r9, r5, ror r2
   10c2c:	6a62696c 	bvs	18ab1e4 <__bss_end__+0x1881a5c>
   10c30:	2d6e6f73 	stclcs	15, cr6, [lr, #-460]!	; 0xfffffe34
   10c34:	6f732e63 	svcvs	0x00732e63
   10c38:	5f00322e 	svcpl	0x0000322e
   10c3c:	7265645f 	rsbvc	r6, r5, #1593835520	; 0x5f000000
   10c40:	73696765 	cmnvc	r9, #26476544	; 0x1940000
   10c44:	5f726574 	svcpl	0x00726574
   10c48:	6d617266 	sfmvs	f7, 2, [r1, #-408]!	; 0xfffffe68
   10c4c:	6e695f65 	cdpvs	15, 6, cr5, cr9, cr5, {3}
   10c50:	5f006f66 	svcpl	0x00006f66
   10c54:	5f4d5449 	svcpl	0x004d5449
   10c58:	69676572 	stmdbvs	r7!, {r1, r4, r5, r6, r8, sl, sp, lr}^
   10c5c:	72657473 	rsbvc	r7, r5, #1929379840	; 0x73000000
   10c60:	6c434d54 	mcrrvs	13, 5, r4, r3, cr4
   10c64:	54656e6f 	strbtpl	r6, [r5], #-3695	; 0xe6f
   10c68:	656c6261 	strbvs	r6, [ip, #-609]!	; 0x261
   10c6c:	54495f00 	strbpl	r5, [r9], #-3840	; 0xf00
   10c70:	65645f4d 	strbvs	r5, [r4, #-3917]!	; 0xf4d
   10c74:	69676572 	stmdbvs	r7!, {r1, r4, r5, r6, r8, sl, sp, lr}^
   10c78:	72657473 	rsbvc	r7, r5, #1929379840	; 0x73000000
   10c7c:	6c434d54 	mcrrvs	13, 5, r4, r3, cr4
   10c80:	54656e6f 	strbtpl	r6, [r5], #-3695	; 0xe6f
   10c84:	656c6261 	strbvs	r6, [ip, #-609]!	; 0x261
   10c88:	725f5f00 	subsvc	r5, pc, #0, 30
   10c8c:	73696765 	cmnvc	r9, #26476544	; 0x1940000
   10c90:	5f726574 	svcpl	0x00726574
   10c94:	6d617266 	sfmvs	f7, 2, [r1, #-408]!	; 0xfffffe68
   10c98:	6e695f65 	cdpvs	15, 6, cr5, cr9, cr5, {3}
   10c9c:	6c006f66 	stcvs	15, cr6, [r0], {102}	; 0x66
   10ca0:	6c6d6269 	sfmvs	f6, 2, [sp], #-420	; 0xfffffe5c
   10ca4:	2e676e61 	cdpcs	14, 6, cr6, cr7, cr1, {3}
   10ca8:	6c006f73 	stcvs	15, cr6, [r0], {115}	; 0x73
   10cac:	656d6269 	strbvs	r6, [sp, #-617]!	; 0x269
   10cb0:	5f616964 	svcpl	0x00616964
   10cb4:	6976616e 	ldmdbvs	r6!, {r1, r2, r3, r5, r6, r8, sp, lr}^
   10cb8:	6970615f 	ldmdbvs	r0!, {r0, r1, r2, r3, r4, r6, r8, sp, lr}^
   10cbc:	006f732e 	rsbeq	r7, pc, lr, lsr #6
   10cc0:	6362696c 	cmnvs	r2, #108, 18	; 0x1b0000
   10cc4:	73657261 	cmnvc	r5, #268435462	; 0x10000006
   10cc8:	2e6f732e 	cdpcs	3, 6, cr7, cr15, cr14, {1}
   10ccc:	65720032 	ldrbvs	r0, [r2, #-50]!	; 0x32
   10cd0:	72667663 	rsbvc	r7, r6, #103809024	; 0x6300000
   10cd4:	69006d6f 	stmdbvs	r0, {r0, r1, r2, r3, r5, r6, r8, sl, fp, sp, lr}
   10cd8:	5f74656e 	svcpl	0x0074656e
   10cdc:	72646461 	rsbvc	r6, r4, #1627389952	; 0x61000000
   10ce0:	62696c00 	rsbvs	r6, r9, #0, 24
   10ce4:	6973756d 	ldmdbvs	r3!, {r0, r2, r3, r5, r6, r8, sl, ip, sp, lr}^
   10ce8:	6c705f63 	ldclvs	15, cr5, [r0], #-396	; 0xfffffe74
   10cec:	72657961 	rsbvc	r7, r5, #1589248	; 0x184000
   10cf0:	6970615f 	ldmdbvs	r0!, {r0, r1, r2, r3, r4, r6, r8, sp, lr}^
   10cf4:	006f732e 	rsbeq	r7, pc, lr, lsr #6
   10cf8:	7362696c 	cmnvc	r2, #108, 18	; 0x1b0000
   10cfc:	7472616d 	ldrbtvc	r6, [r2], #-365	; 0x16d
   10d00:	616c705f 	qdsubvs	r7, pc, ip	; <UNPREDICTABLE>
   10d04:	5f726579 	svcpl	0x00726579
   10d08:	2e697061 	cdpcs	0, 6, cr7, cr9, cr1, {3}
   10d0c:	6c006f73 	stcvs	15, cr6, [r0], {115}	; 0x73
   10d10:	6f686269 	svcvs	0x00686269
   10d14:	615f6570 	cmpvs	pc, r0, ror r5	; <UNPREDICTABLE>
   10d18:	732e6970 	teqvc	lr, #112, 18	; 0x1c0000
   10d1c:	696c006f 	stmdbvs	ip!, {r0, r1, r2, r3, r5, r6}^
   10d20:	67736d62 	ldrbvs	r6, [r3, -r2, ror #26]!
   10d24:	7265735f 	rsbvc	r7, r5, #2080374785	; 0x7c000001
   10d28:	5f726576 	svcpl	0x00726576
   10d2c:	2e697061 	cdpcs	0, 6, cr7, cr9, cr1, {3}
   10d30:	68006f73 	stmdavs	r0, {r0, r1, r4, r5, r6, r8, r9, sl, fp, sp, lr}
   10d34:	6c70746f 	cfldrdvs	mvd7, [r0], #-444	; 0xfffffe44
   10d38:	675f6775 			; <UNDEFINED> instruction: 0x675f6775
   10d3c:	775f7465 	ldrbvc	r7, [pc, -r5, ror #8]
   10d40:	5f696669 	svcpl	0x00696669
   10d44:	74617473 	strbtvc	r7, [r1], #-1139	; 0x473
   10d48:	6c007375 	stcvs	3, cr7, [r0], {117}	; 0x75
   10d4c:	2e636269 	cdpcs	2, 6, cr6, cr3, cr9, {3}
   10d50:	302e6f73 	eorcc	r6, lr, r3, ror pc
   10d54:	66637400 	strbtvs	r7, [r3], -r0, lsl #8
   10d58:	6873756c 	ldmdavs	r3!, {r2, r3, r5, r6, r8, sl, ip, sp, lr}^
   10d5c:	73666300 	cmnvc	r6, #0, 6
   10d60:	73697465 	cmnvc	r9, #1694498816	; 0x65000000
   10d64:	64656570 	strbtvs	r6, [r5], #-1392	; 0x570
   10d68:	73666300 	cmnvc	r6, #0, 6
   10d6c:	736f7465 	cmnvc	pc, #1694498816	; 0x65000000
   10d70:	64656570 	strbtvs	r6, [r5], #-1392	; 0x570
   10d74:	755f5f00 	ldrbvc	r5, [pc, #-3840]	; fe7c <_init-0x126c>
   10d78:	62696c43 	rsbvs	r6, r9, #17152	; 0x4300
   10d7c:	616d5f63 	cmnvs	sp, r3, ror #30
   10d80:	74006e69 	strvc	r6, [r0], #-3689	; 0xe69
   10d84:	74656763 	strbtvc	r6, [r5], #-1891	; 0x763
   10d88:	72747461 	rsbsvc	r7, r4, #1627389952	; 0x61000000
   10d8c:	74656700 	strbtvc	r6, [r5], #-1792	; 0x700
   10d90:	74736f68 	ldrbtvc	r6, [r3], #-3944	; 0xf68
   10d94:	616e7962 	cmnvs	lr, r2, ror #18
   10d98:	7400656d 	strvc	r6, [r0], #-1389	; 0x56d
   10d9c:	74657363 	strbtvc	r7, [r5], #-867	; 0x363
   10da0:	72747461 	rsbsvc	r7, r4, #1627389952	; 0x61000000
   10da4:	62696c00 	rsbvs	r6, r9, #0, 24
   10da8:	5f636367 	svcpl	0x00636367
   10dac:	6f732e73 	svcvs	0x00732e73
   10db0:	5f00312e 	svcpl	0x0000312e
   10db4:	74616465 	strbtvc	r6, [r1], #-1125	; 0x465
   10db8:	5f5f0061 	svcpl	0x005f0061
   10dbc:	5f737362 	svcpl	0x00737362
   10dc0:	72617473 	rsbvc	r7, r1, #1929379840	; 0x73000000
   10dc4:	5f5f0074 	svcpl	0x005f0074
   10dc8:	5f737362 	svcpl	0x00737362
   10dcc:	72617473 	rsbvc	r7, r1, #1929379840	; 0x73000000
   10dd0:	005f5f74 	subseq	r5, pc, r4, ror pc	; <UNPREDICTABLE>
   10dd4:	73625f5f 	cmnvc	r2, #380	; 0x17c
   10dd8:	6e655f73 	mcrvs	15, 3, r5, cr5, cr3, {3}
   10ddc:	005f5f64 	subseq	r5, pc, r4, ror #30
   10de0:	6e655f5f 	mcrvs	15, 3, r5, cr5, cr15, {2}
   10de4:	005f5f64 	subseq	r5, pc, r4, ror #30
   10de8:	646e655f 	strbtvs	r6, [lr], #-1375	; 0x55f
   10dec:	70637400 	rsbvc	r7, r3, r0, lsl #8
   10df0:	696c635f 	stmdbvs	ip!, {r0, r1, r2, r3, r4, r6, r8, r9, sp, lr}^
   10df4:	6365725f 	cmnvs	r5, #-268435451	; 0xf0000005
   10df8:	62635f76 	rsbvs	r5, r3, #472	; 0x1d8
   10dfc:	70697000 	rsbvc	r7, r9, r0
   10e00:	61635f65 	cmnvs	r3, r5, ror #30
   10e04:	61626c6c 	cmnvs	r2, ip, ror #24
   10e08:	68006b63 	stmdavs	r0, {r0, r1, r5, r6, r8, r9, fp, sp, lr}
   10e0c:	5f6f6c61 	svcpl	0x006f6c61
   10e10:	5f706475 	svcpl	0x00706475
   10e14:	76636572 			; <UNDEFINED> instruction: 0x76636572
   10e18:	0062635f 	rsbeq	r6, r2, pc, asr r3
   10e1c:	5f706374 	svcpl	0x00706374
   10e20:	5f767273 	svcpl	0x00767273
   10e24:	736f6c63 	cmnvc	pc, #25344	; 0x6300
   10e28:	62635f65 	rsbvs	r5, r3, #404	; 0x194
   10e2c:	6c616800 	stclvs	8, cr6, [r1], #-0
   10e30:	61755f6f 	cmnvs	r5, pc, ror #30
   10e34:	635f7472 	cmpvs	pc, #1912602624	; 0x72000000
   10e38:	65736f6c 	ldrbvs	r6, [r3, #-3948]!	; 0xf6c
   10e3c:	44415000 	strbmi	r5, [r1], #-0
   10e40:	474e4944 	strbmi	r4, [lr, -r4, asr #18]
   10e44:	70637400 	rsbvc	r7, r3, r0, lsl #8
   10e48:	696c635f 	stmdbvs	ip!, {r0, r1, r2, r3, r4, r6, r8, r9, sp, lr}^
   10e4c:	6f6c635f 	svcvs	0x006c635f
   10e50:	74006573 	strvc	r6, [r0], #-1395	; 0x573
   10e54:	735f7063 	cmpvc	pc, #99	; 0x63
   10e58:	735f7672 	cmpvc	pc, #119537664	; 0x7200000
   10e5c:	5f646e65 	svcpl	0x00646e65
   10e60:	68006263 	stmdavs	r0, {r0, r1, r5, r6, r9, sp, lr}
   10e64:	5f6f6c61 	svcpl	0x006f6c61
   10e68:	74726175 	ldrbtvc	r6, [r2], #-373	; 0x175
   10e6c:	6365725f 	cmnvs	r5, #-268435451	; 0xf0000005
   10e70:	63740076 	cmnvs	r4, #118	; 0x76
   10e74:	72735f70 	rsbsvc	r5, r3, #112, 30	; 0x1c0
   10e78:	65725f76 	ldrbvs	r5, [r2, #-3958]!	; 0xf76
   10e7c:	635f7663 	cmpvs	pc, #103809024	; 0x6300000
   10e80:	61680062 	cmnvs	r8, r2, rrx
   10e84:	755f6f6c 	ldrbvc	r6, [pc, #-3948]	; ff20 <_init-0x11c8>
   10e88:	635f7064 	cmpvs	pc, #100	; 0x64
   10e8c:	65736f6c 	ldrbvs	r6, [r3, #-3948]!	; 0xf6c
   10e90:	0062635f 	rsbeq	r6, r2, pc, asr r3
   10e94:	5f706374 	svcpl	0x00706374
   10e98:	65636361 	strbvs	r6, [r3, #-865]!	; 0x361
   10e9c:	635f7470 	cmpvs	pc, #112, 8	; 0x70000000
   10ea0:	69740062 	ldmdbvs	r4!, {r1, r5, r6}^
   10ea4:	756f656d 	strbvc	r6, [pc, #-1389]!	; 1093f <_init-0x7a9>
   10ea8:	62635f74 	rsbvs	r5, r3, #116, 30	; 0x1d0
	...

Disassembly of section .rel.dyn:

00010eb0 <.rel.dyn>:
   10eb0:	00029568 	andeq	r9, r2, r8, ror #10
   10eb4:	00001c15 	andeq	r1, r0, r5, lsl ip
   10eb8:	0002957c 	andeq	r9, r2, ip, ror r5
   10ebc:	00003815 	andeq	r3, r0, r5, lsl r8
   10ec0:	00029590 	muleq	r2, r0, r5
   10ec4:	00005015 	andeq	r5, r0, r5, lsl r0

Disassembly of section .rel.plt:

00010ec8 <.rel.plt>:
   10ec8:	00029448 	andeq	r9, r2, r8, asr #8
   10ecc:	00000916 	andeq	r0, r0, r6, lsl r9
   10ed0:	0002944c 	andeq	r9, r2, ip, asr #8
   10ed4:	00000a16 	andeq	r0, r0, r6, lsl sl
   10ed8:	00029450 	andeq	r9, r2, r0, asr r4
   10edc:	00000b16 	andeq	r0, r0, r6, lsl fp
   10ee0:	00029454 	andeq	r9, r2, r4, asr r4
   10ee4:	00000c16 	andeq	r0, r0, r6, lsl ip
   10ee8:	00029458 	andeq	r9, r2, r8, asr r4
   10eec:	00000e16 	andeq	r0, r0, r6, lsl lr
   10ef0:	0002945c 	andeq	r9, r2, ip, asr r4
   10ef4:	00000f16 	andeq	r0, r0, r6, lsl pc
   10ef8:	00029460 	andeq	r9, r2, r0, ror #8
   10efc:	00001016 	andeq	r1, r0, r6, lsl r0
   10f00:	00029464 	andeq	r9, r2, r4, ror #8
   10f04:	00001116 	andeq	r1, r0, r6, lsl r1
   10f08:	00029468 	andeq	r9, r2, r8, ror #8
   10f0c:	00001216 	andeq	r1, r0, r6, lsl r2
   10f10:	0002946c 	andeq	r9, r2, ip, ror #8
   10f14:	00001316 	andeq	r1, r0, r6, lsl r3
   10f18:	00029470 	andeq	r9, r2, r0, ror r4
   10f1c:	00001416 	andeq	r1, r0, r6, lsl r4
   10f20:	00029474 	andeq	r9, r2, r4, ror r4
   10f24:	00001516 	andeq	r1, r0, r6, lsl r5
   10f28:	00029478 	andeq	r9, r2, r8, ror r4
   10f2c:	00001716 	andeq	r1, r0, r6, lsl r7
   10f30:	0002947c 	andeq	r9, r2, ip, ror r4
   10f34:	00001816 	andeq	r1, r0, r6, lsl r8
   10f38:	00029480 	andeq	r9, r2, r0, lsl #9
   10f3c:	00001c16 	andeq	r1, r0, r6, lsl ip
   10f40:	00029484 	andeq	r9, r2, r4, lsl #9
   10f44:	00001d16 	andeq	r1, r0, r6, lsl sp
   10f48:	00029488 	andeq	r9, r2, r8, lsl #9
   10f4c:	00001e16 	andeq	r1, r0, r6, lsl lr
   10f50:	0002948c 	andeq	r9, r2, ip, lsl #9
   10f54:	00001f16 	andeq	r1, r0, r6, lsl pc
   10f58:	00029490 	muleq	r2, r0, r4
   10f5c:	00002016 	andeq	r2, r0, r6, lsl r0
   10f60:	00029494 	muleq	r2, r4, r4
   10f64:	00002116 	andeq	r2, r0, r6, lsl r1
   10f68:	00029498 	muleq	r2, r8, r4
   10f6c:	00002216 	andeq	r2, r0, r6, lsl r2
   10f70:	0002949c 	muleq	r2, ip, r4
   10f74:	00002316 	andeq	r2, r0, r6, lsl r3
   10f78:	000294a0 	andeq	r9, r2, r0, lsr #9
   10f7c:	00002516 	andeq	r2, r0, r6, lsl r5
   10f80:	000294a4 	andeq	r9, r2, r4, lsr #9
   10f84:	00002716 	andeq	r2, r0, r6, lsl r7
   10f88:	000294a8 	andeq	r9, r2, r8, lsr #9
   10f8c:	00002816 	andeq	r2, r0, r6, lsl r8
   10f90:	000294ac 	andeq	r9, r2, ip, lsr #9
   10f94:	00002916 	andeq	r2, r0, r6, lsl r9
   10f98:	000294b0 			; <UNDEFINED> instruction: 0x000294b0
   10f9c:	00002c16 	andeq	r2, r0, r6, lsl ip
   10fa0:	000294b4 			; <UNDEFINED> instruction: 0x000294b4
   10fa4:	00002d16 	andeq	r2, r0, r6, lsl sp
   10fa8:	000294b8 			; <UNDEFINED> instruction: 0x000294b8
   10fac:	00002e16 	andeq	r2, r0, r6, lsl lr
   10fb0:	000294bc 			; <UNDEFINED> instruction: 0x000294bc
   10fb4:	00002f16 	andeq	r2, r0, r6, lsl pc
   10fb8:	000294c0 	andeq	r9, r2, r0, asr #9
   10fbc:	00003016 	andeq	r3, r0, r6, lsl r0
   10fc0:	000294c4 	andeq	r9, r2, r4, asr #9
   10fc4:	00003216 	andeq	r3, r0, r6, lsl r2
   10fc8:	000294c8 	andeq	r9, r2, r8, asr #9
   10fcc:	00003316 	andeq	r3, r0, r6, lsl r3
   10fd0:	000294cc 	andeq	r9, r2, ip, asr #9
   10fd4:	00003416 	andeq	r3, r0, r6, lsl r4
   10fd8:	000294d0 	ldrdeq	r9, [r2], -r0
   10fdc:	00003516 	andeq	r3, r0, r6, lsl r5
   10fe0:	000294d4 	ldrdeq	r9, [r2], -r4
   10fe4:	00003616 	andeq	r3, r0, r6, lsl r6
   10fe8:	000294d8 	ldrdeq	r9, [r2], -r8
   10fec:	00003916 	andeq	r3, r0, r6, lsl r9
   10ff0:	000294dc 	ldrdeq	r9, [r2], -ip
   10ff4:	00003b16 	andeq	r3, r0, r6, lsl fp
   10ff8:	000294e0 	andeq	r9, r2, r0, ror #9
   10ffc:	00003d16 	andeq	r3, r0, r6, lsl sp
   11000:	000294e4 	andeq	r9, r2, r4, ror #9
   11004:	00003e16 	andeq	r3, r0, r6, lsl lr
   11008:	000294e8 	andeq	r9, r2, r8, ror #9
   1100c:	00003f16 	andeq	r3, r0, r6, lsl pc
   11010:	000294ec 	andeq	r9, r2, ip, ror #9
   11014:	00004116 	andeq	r4, r0, r6, lsl r1
   11018:	000294f0 	strdeq	r9, [r2], -r0
   1101c:	00004216 	andeq	r4, r0, r6, lsl r2
   11020:	000294f4 	strdeq	r9, [r2], -r4
   11024:	00004316 	andeq	r4, r0, r6, lsl r3
   11028:	000294f8 	strdeq	r9, [r2], -r8
   1102c:	00004416 	andeq	r4, r0, r6, lsl r4
   11030:	000294fc 	strdeq	r9, [r2], -ip
   11034:	00004516 	andeq	r4, r0, r6, lsl r5
   11038:	00029500 	andeq	r9, r2, r0, lsl #10
   1103c:	00004616 	andeq	r4, r0, r6, lsl r6
   11040:	00029504 	andeq	r9, r2, r4, lsl #10
   11044:	00004716 	andeq	r4, r0, r6, lsl r7
   11048:	00029508 	andeq	r9, r2, r8, lsl #10
   1104c:	00004816 	andeq	r4, r0, r6, lsl r8
   11050:	0002950c 	andeq	r9, r2, ip, lsl #10
   11054:	00004a16 	andeq	r4, r0, r6, lsl sl
   11058:	00029510 	andeq	r9, r2, r0, lsl r5
   1105c:	00004b16 	andeq	r4, r0, r6, lsl fp
   11060:	00029514 	andeq	r9, r2, r4, lsl r5
   11064:	00004c16 	andeq	r4, r0, r6, lsl ip
   11068:	00029518 	andeq	r9, r2, r8, lsl r5
   1106c:	00004d16 	andeq	r4, r0, r6, lsl sp
   11070:	0002951c 	andeq	r9, r2, ip, lsl r5
   11074:	00004e16 	andeq	r4, r0, r6, lsl lr
   11078:	00029520 	andeq	r9, r2, r0, lsr #10
   1107c:	00004f16 	andeq	r4, r0, r6, lsl pc
   11080:	00029524 	andeq	r9, r2, r4, lsr #10
   11084:	00005016 	andeq	r5, r0, r6, lsl r0
   11088:	00029528 	andeq	r9, r2, r8, lsr #10
   1108c:	00005116 	andeq	r5, r0, r6, lsl r1
   11090:	0002952c 	andeq	r9, r2, ip, lsr #10
   11094:	00005316 	andeq	r5, r0, r6, lsl r3
   11098:	00029530 	andeq	r9, r2, r0, lsr r5
   1109c:	00005416 	andeq	r5, r0, r6, lsl r4
   110a0:	00029534 	andeq	r9, r2, r4, lsr r5
   110a4:	00005516 	andeq	r5, r0, r6, lsl r5
   110a8:	00029538 	andeq	r9, r2, r8, lsr r5
   110ac:	00005616 	andeq	r5, r0, r6, lsl r6
   110b0:	0002953c 	andeq	r9, r2, ip, lsr r5
   110b4:	00005716 	andeq	r5, r0, r6, lsl r7
   110b8:	00029540 	andeq	r9, r2, r0, asr #10
   110bc:	00005816 	andeq	r5, r0, r6, lsl r8
   110c0:	00029544 	andeq	r9, r2, r4, asr #10
   110c4:	00005916 	andeq	r5, r0, r6, lsl r9
   110c8:	00029548 	andeq	r9, r2, r8, asr #10
   110cc:	00005a16 	andeq	r5, r0, r6, lsl sl
   110d0:	0002954c 	andeq	r9, r2, ip, asr #10
   110d4:	00005c16 	andeq	r5, r0, r6, lsl ip
   110d8:	00029550 	andeq	r9, r2, r0, asr r5
   110dc:	00005d16 	andeq	r5, r0, r6, lsl sp
   110e0:	00029554 	andeq	r9, r2, r4, asr r5
   110e4:	00005e16 	andeq	r5, r0, r6, lsl lr

Disassembly of section .init:

000110e8 <_init>:
   110e8:	e1a0c00d 	mov	ip, sp
   110ec:	e92ddff0 	push	{r4, r5, r6, r7, r8, r9, sl, fp, ip, lr, pc}
   110f0:	e24cb004 	sub	fp, ip, #4
   110f4:	e91baff0 	ldmdb	fp, {r4, r5, r6, r7, r8, r9, sl, fp, sp, pc}

Disassembly of section .plt:

000110f8 <.plt>:
   110f8:	e52de004 	push	{lr}		; (str lr, [sp, #-4]!)
   110fc:	e59fe004 	ldr	lr, [pc, #4]	; 11108 <_init+0x20>
   11100:	e08fe00e 	add	lr, pc, lr
   11104:	e5bef008 	ldr	pc, [lr, #8]!
   11108:	00018334 	andeq	r8, r1, r4, lsr r3
   1110c:	e28fc600 	add	ip, pc, #0, 12
   11110:	e28cca18 	add	ip, ip, #24, 20	; 0x18000
   11114:	e5bcf334 	ldr	pc, [ip, #820]!	; 0x334
   11118:	e28fc600 	add	ip, pc, #0, 12
   1111c:	e28cca18 	add	ip, ip, #24, 20	; 0x18000
   11120:	e5bcf32c 	ldr	pc, [ip, #812]!	; 0x32c
   11124:	e28fc600 	add	ip, pc, #0, 12
   11128:	e28cca18 	add	ip, ip, #24, 20	; 0x18000
   1112c:	e5bcf324 	ldr	pc, [ip, #804]!	; 0x324
   11130:	e28fc600 	add	ip, pc, #0, 12
   11134:	e28cca18 	add	ip, ip, #24, 20	; 0x18000
   11138:	e5bcf31c 	ldr	pc, [ip, #796]!	; 0x31c
   1113c:	e28fc600 	add	ip, pc, #0, 12
   11140:	e28cca18 	add	ip, ip, #24, 20	; 0x18000
   11144:	e5bcf314 	ldr	pc, [ip, #788]!	; 0x314
   11148:	e28fc600 	add	ip, pc, #0, 12
   1114c:	e28cca18 	add	ip, ip, #24, 20	; 0x18000
   11150:	e5bcf30c 	ldr	pc, [ip, #780]!	; 0x30c
   11154:	e28fc600 	add	ip, pc, #0, 12
   11158:	e28cca18 	add	ip, ip, #24, 20	; 0x18000
   1115c:	e5bcf304 	ldr	pc, [ip, #772]!	; 0x304
   11160:	e28fc600 	add	ip, pc, #0, 12
   11164:	e28cca18 	add	ip, ip, #24, 20	; 0x18000
   11168:	e5bcf2fc 	ldr	pc, [ip, #764]!	; 0x2fc
   1116c:	e28fc600 	add	ip, pc, #0, 12
   11170:	e28cca18 	add	ip, ip, #24, 20	; 0x18000
   11174:	e5bcf2f4 	ldr	pc, [ip, #756]!	; 0x2f4
   11178:	e28fc600 	add	ip, pc, #0, 12
   1117c:	e28cca18 	add	ip, ip, #24, 20	; 0x18000
   11180:	e5bcf2ec 	ldr	pc, [ip, #748]!	; 0x2ec
   11184:	e28fc600 	add	ip, pc, #0, 12
   11188:	e28cca18 	add	ip, ip, #24, 20	; 0x18000
   1118c:	e5bcf2e4 	ldr	pc, [ip, #740]!	; 0x2e4
   11190:	e28fc600 	add	ip, pc, #0, 12
   11194:	e28cca18 	add	ip, ip, #24, 20	; 0x18000
   11198:	e5bcf2dc 	ldr	pc, [ip, #732]!	; 0x2dc
   1119c:	e28fc600 	add	ip, pc, #0, 12
   111a0:	e28cca18 	add	ip, ip, #24, 20	; 0x18000
   111a4:	e5bcf2d4 	ldr	pc, [ip, #724]!	; 0x2d4
   111a8:	e28fc600 	add	ip, pc, #0, 12
   111ac:	e28cca18 	add	ip, ip, #24, 20	; 0x18000
   111b0:	e5bcf2cc 	ldr	pc, [ip, #716]!	; 0x2cc
   111b4:	e28fc600 	add	ip, pc, #0, 12
   111b8:	e28cca18 	add	ip, ip, #24, 20	; 0x18000
   111bc:	e5bcf2c4 	ldr	pc, [ip, #708]!	; 0x2c4
   111c0:	e28fc600 	add	ip, pc, #0, 12
   111c4:	e28cca18 	add	ip, ip, #24, 20	; 0x18000
   111c8:	e5bcf2bc 	ldr	pc, [ip, #700]!	; 0x2bc
   111cc:	e28fc600 	add	ip, pc, #0, 12
   111d0:	e28cca18 	add	ip, ip, #24, 20	; 0x18000
   111d4:	e5bcf2b4 	ldr	pc, [ip, #692]!	; 0x2b4
   111d8:	e28fc600 	add	ip, pc, #0, 12
   111dc:	e28cca18 	add	ip, ip, #24, 20	; 0x18000
   111e0:	e5bcf2ac 	ldr	pc, [ip, #684]!	; 0x2ac
   111e4:	e28fc600 	add	ip, pc, #0, 12
   111e8:	e28cca18 	add	ip, ip, #24, 20	; 0x18000
   111ec:	e5bcf2a4 	ldr	pc, [ip, #676]!	; 0x2a4
   111f0:	e28fc600 	add	ip, pc, #0, 12
   111f4:	e28cca18 	add	ip, ip, #24, 20	; 0x18000
   111f8:	e5bcf29c 	ldr	pc, [ip, #668]!	; 0x29c
   111fc:	e28fc600 	add	ip, pc, #0, 12
   11200:	e28cca18 	add	ip, ip, #24, 20	; 0x18000
   11204:	e5bcf294 	ldr	pc, [ip, #660]!	; 0x294
   11208:	e28fc600 	add	ip, pc, #0, 12
   1120c:	e28cca18 	add	ip, ip, #24, 20	; 0x18000
   11210:	e5bcf28c 	ldr	pc, [ip, #652]!	; 0x28c
   11214:	e28fc600 	add	ip, pc, #0, 12
   11218:	e28cca18 	add	ip, ip, #24, 20	; 0x18000
   1121c:	e5bcf284 	ldr	pc, [ip, #644]!	; 0x284
   11220:	e28fc600 	add	ip, pc, #0, 12
   11224:	e28cca18 	add	ip, ip, #24, 20	; 0x18000
   11228:	e5bcf27c 	ldr	pc, [ip, #636]!	; 0x27c
   1122c:	e28fc600 	add	ip, pc, #0, 12
   11230:	e28cca18 	add	ip, ip, #24, 20	; 0x18000
   11234:	e5bcf274 	ldr	pc, [ip, #628]!	; 0x274
   11238:	e28fc600 	add	ip, pc, #0, 12
   1123c:	e28cca18 	add	ip, ip, #24, 20	; 0x18000
   11240:	e5bcf26c 	ldr	pc, [ip, #620]!	; 0x26c
   11244:	e28fc600 	add	ip, pc, #0, 12
   11248:	e28cca18 	add	ip, ip, #24, 20	; 0x18000
   1124c:	e5bcf264 	ldr	pc, [ip, #612]!	; 0x264
   11250:	e28fc600 	add	ip, pc, #0, 12
   11254:	e28cca18 	add	ip, ip, #24, 20	; 0x18000
   11258:	e5bcf25c 	ldr	pc, [ip, #604]!	; 0x25c
   1125c:	e28fc600 	add	ip, pc, #0, 12
   11260:	e28cca18 	add	ip, ip, #24, 20	; 0x18000
   11264:	e5bcf254 	ldr	pc, [ip, #596]!	; 0x254
   11268:	e28fc600 	add	ip, pc, #0, 12
   1126c:	e28cca18 	add	ip, ip, #24, 20	; 0x18000
   11270:	e5bcf24c 	ldr	pc, [ip, #588]!	; 0x24c
   11274:	e28fc600 	add	ip, pc, #0, 12
   11278:	e28cca18 	add	ip, ip, #24, 20	; 0x18000
   1127c:	e5bcf244 	ldr	pc, [ip, #580]!	; 0x244
   11280:	e28fc600 	add	ip, pc, #0, 12
   11284:	e28cca18 	add	ip, ip, #24, 20	; 0x18000
   11288:	e5bcf23c 	ldr	pc, [ip, #572]!	; 0x23c
   1128c:	e28fc600 	add	ip, pc, #0, 12
   11290:	e28cca18 	add	ip, ip, #24, 20	; 0x18000
   11294:	e5bcf234 	ldr	pc, [ip, #564]!	; 0x234
   11298:	e28fc600 	add	ip, pc, #0, 12
   1129c:	e28cca18 	add	ip, ip, #24, 20	; 0x18000
   112a0:	e5bcf22c 	ldr	pc, [ip, #556]!	; 0x22c
   112a4:	e28fc600 	add	ip, pc, #0, 12
   112a8:	e28cca18 	add	ip, ip, #24, 20	; 0x18000
   112ac:	e5bcf224 	ldr	pc, [ip, #548]!	; 0x224
   112b0:	e28fc600 	add	ip, pc, #0, 12
   112b4:	e28cca18 	add	ip, ip, #24, 20	; 0x18000
   112b8:	e5bcf21c 	ldr	pc, [ip, #540]!	; 0x21c
   112bc:	e28fc600 	add	ip, pc, #0, 12
   112c0:	e28cca18 	add	ip, ip, #24, 20	; 0x18000
   112c4:	e5bcf214 	ldr	pc, [ip, #532]!	; 0x214
   112c8:	e28fc600 	add	ip, pc, #0, 12
   112cc:	e28cca18 	add	ip, ip, #24, 20	; 0x18000
   112d0:	e5bcf20c 	ldr	pc, [ip, #524]!	; 0x20c
   112d4:	e28fc600 	add	ip, pc, #0, 12
   112d8:	e28cca18 	add	ip, ip, #24, 20	; 0x18000
   112dc:	e5bcf204 	ldr	pc, [ip, #516]!	; 0x204
   112e0:	e28fc600 	add	ip, pc, #0, 12
   112e4:	e28cca18 	add	ip, ip, #24, 20	; 0x18000
   112e8:	e5bcf1fc 	ldr	pc, [ip, #508]!	; 0x1fc
   112ec:	e28fc600 	add	ip, pc, #0, 12
   112f0:	e28cca18 	add	ip, ip, #24, 20	; 0x18000
   112f4:	e5bcf1f4 	ldr	pc, [ip, #500]!	; 0x1f4
   112f8:	e28fc600 	add	ip, pc, #0, 12
   112fc:	e28cca18 	add	ip, ip, #24, 20	; 0x18000
   11300:	e5bcf1ec 	ldr	pc, [ip, #492]!	; 0x1ec
   11304:	e28fc600 	add	ip, pc, #0, 12
   11308:	e28cca18 	add	ip, ip, #24, 20	; 0x18000
   1130c:	e5bcf1e4 	ldr	pc, [ip, #484]!	; 0x1e4
   11310:	e28fc600 	add	ip, pc, #0, 12
   11314:	e28cca18 	add	ip, ip, #24, 20	; 0x18000
   11318:	e5bcf1dc 	ldr	pc, [ip, #476]!	; 0x1dc
   1131c:	e28fc600 	add	ip, pc, #0, 12
   11320:	e28cca18 	add	ip, ip, #24, 20	; 0x18000
   11324:	e5bcf1d4 	ldr	pc, [ip, #468]!	; 0x1d4
   11328:	e28fc600 	add	ip, pc, #0, 12
   1132c:	e28cca18 	add	ip, ip, #24, 20	; 0x18000
   11330:	e5bcf1cc 	ldr	pc, [ip, #460]!	; 0x1cc
   11334:	e28fc600 	add	ip, pc, #0, 12
   11338:	e28cca18 	add	ip, ip, #24, 20	; 0x18000
   1133c:	e5bcf1c4 	ldr	pc, [ip, #452]!	; 0x1c4
   11340:	e28fc600 	add	ip, pc, #0, 12
   11344:	e28cca18 	add	ip, ip, #24, 20	; 0x18000
   11348:	e5bcf1bc 	ldr	pc, [ip, #444]!	; 0x1bc
   1134c:	e28fc600 	add	ip, pc, #0, 12
   11350:	e28cca18 	add	ip, ip, #24, 20	; 0x18000
   11354:	e5bcf1b4 	ldr	pc, [ip, #436]!	; 0x1b4
   11358:	e28fc600 	add	ip, pc, #0, 12
   1135c:	e28cca18 	add	ip, ip, #24, 20	; 0x18000
   11360:	e5bcf1ac 	ldr	pc, [ip, #428]!	; 0x1ac
   11364:	e28fc600 	add	ip, pc, #0, 12
   11368:	e28cca18 	add	ip, ip, #24, 20	; 0x18000
   1136c:	e5bcf1a4 	ldr	pc, [ip, #420]!	; 0x1a4
   11370:	e28fc600 	add	ip, pc, #0, 12
   11374:	e28cca18 	add	ip, ip, #24, 20	; 0x18000
   11378:	e5bcf19c 	ldr	pc, [ip, #412]!	; 0x19c
   1137c:	e28fc600 	add	ip, pc, #0, 12
   11380:	e28cca18 	add	ip, ip, #24, 20	; 0x18000
   11384:	e5bcf194 	ldr	pc, [ip, #404]!	; 0x194
   11388:	e28fc600 	add	ip, pc, #0, 12
   1138c:	e28cca18 	add	ip, ip, #24, 20	; 0x18000
   11390:	e5bcf18c 	ldr	pc, [ip, #396]!	; 0x18c
   11394:	e28fc600 	add	ip, pc, #0, 12
   11398:	e28cca18 	add	ip, ip, #24, 20	; 0x18000
   1139c:	e5bcf184 	ldr	pc, [ip, #388]!	; 0x184
   113a0:	e28fc600 	add	ip, pc, #0, 12
   113a4:	e28cca18 	add	ip, ip, #24, 20	; 0x18000
   113a8:	e5bcf17c 	ldr	pc, [ip, #380]!	; 0x17c
   113ac:	e28fc600 	add	ip, pc, #0, 12
   113b0:	e28cca18 	add	ip, ip, #24, 20	; 0x18000
   113b4:	e5bcf174 	ldr	pc, [ip, #372]!	; 0x174
   113b8:	e28fc600 	add	ip, pc, #0, 12
   113bc:	e28cca18 	add	ip, ip, #24, 20	; 0x18000
   113c0:	e5bcf16c 	ldr	pc, [ip, #364]!	; 0x16c
   113c4:	e28fc600 	add	ip, pc, #0, 12
   113c8:	e28cca18 	add	ip, ip, #24, 20	; 0x18000
   113cc:	e5bcf164 	ldr	pc, [ip, #356]!	; 0x164
   113d0:	e28fc600 	add	ip, pc, #0, 12
   113d4:	e28cca18 	add	ip, ip, #24, 20	; 0x18000
   113d8:	e5bcf15c 	ldr	pc, [ip, #348]!	; 0x15c
   113dc:	e28fc600 	add	ip, pc, #0, 12
   113e0:	e28cca18 	add	ip, ip, #24, 20	; 0x18000
   113e4:	e5bcf154 	ldr	pc, [ip, #340]!	; 0x154
   113e8:	e28fc600 	add	ip, pc, #0, 12
   113ec:	e28cca18 	add	ip, ip, #24, 20	; 0x18000
   113f0:	e5bcf14c 	ldr	pc, [ip, #332]!	; 0x14c
   113f4:	e28fc600 	add	ip, pc, #0, 12
   113f8:	e28cca18 	add	ip, ip, #24, 20	; 0x18000
   113fc:	e5bcf144 	ldr	pc, [ip, #324]!	; 0x144
   11400:	e28fc600 	add	ip, pc, #0, 12
   11404:	e28cca18 	add	ip, ip, #24, 20	; 0x18000
   11408:	e5bcf13c 	ldr	pc, [ip, #316]!	; 0x13c
   1140c:	e28fc600 	add	ip, pc, #0, 12
   11410:	e28cca18 	add	ip, ip, #24, 20	; 0x18000
   11414:	e5bcf134 	ldr	pc, [ip, #308]!	; 0x134
   11418:	e28fc600 	add	ip, pc, #0, 12
   1141c:	e28cca18 	add	ip, ip, #24, 20	; 0x18000
   11420:	e5bcf12c 	ldr	pc, [ip, #300]!	; 0x12c
   11424:	e28fc600 	add	ip, pc, #0, 12
   11428:	e28cca18 	add	ip, ip, #24, 20	; 0x18000
   1142c:	e5bcf124 	ldr	pc, [ip, #292]!	; 0x124
   11430:	e28fc600 	add	ip, pc, #0, 12
   11434:	e28cca18 	add	ip, ip, #24, 20	; 0x18000
   11438:	e5bcf11c 	ldr	pc, [ip, #284]!	; 0x11c

Disassembly of section .text:

00011440 <main>:
   11440:	e59f30a0 	ldr	r3, [pc, #160]	; 114e8 <main+0xa8>
   11444:	e92d4010 	push	{r4, lr}
   11448:	e59f409c 	ldr	r4, [pc, #156]	; 114ec <main+0xac>
   1144c:	e08f3003 	add	r3, pc, r3
   11450:	e59f2098 	ldr	r2, [pc, #152]	; 114f0 <main+0xb0>
   11454:	e08f4004 	add	r4, pc, r4
   11458:	e24dd020 	sub	sp, sp, #32
   1145c:	e7931002 	ldr	r1, [r3, r2]
   11460:	e1a00004 	mov	r0, r4
   11464:	e3a02002 	mov	r2, #2
   11468:	e3a03000 	mov	r3, #0
   1146c:	eb0006ae 	bl	12f2c <halo_common_init>
   11470:	e1a00004 	mov	r0, r4
   11474:	e3a01000 	mov	r1, #0
   11478:	eb000442 	bl	12588 <halo_init_add>
   1147c:	e59f0070 	ldr	r0, [pc, #112]	; 114f4 <main+0xb4>
   11480:	e3a01000 	mov	r1, #0
   11484:	e08f0000 	add	r0, pc, r0
   11488:	eb00043e 	bl	12588 <halo_init_add>
   1148c:	e59f0064 	ldr	r0, [pc, #100]	; 114f8 <main+0xb8>
   11490:	e3a01000 	mov	r1, #0
   11494:	e08f0000 	add	r0, pc, r0
   11498:	eb00043a 	bl	12588 <halo_init_add>
   1149c:	e28d400c 	add	r4, sp, #12
   114a0:	eb00078b 	bl	132d4 <halo_common_start>
   114a4:	e59f0050 	ldr	r0, [pc, #80]	; 114fc <main+0xbc>
   114a8:	e59f1050 	ldr	r1, [pc, #80]	; 11500 <main+0xc0>
   114ac:	e3a02087 	mov	r2, #135	; 0x87
   114b0:	e08f1001 	add	r1, pc, r1
   114b4:	e08f0000 	add	r0, pc, r0
   114b8:	ebffffc4 	bl	113d0 <_init+0x2e8>
   114bc:	e1a00004 	mov	r0, r4
   114c0:	e3a01000 	mov	r1, #0
   114c4:	e3a02014 	mov	r2, #20
   114c8:	ebffff84 	bl	112e0 <_init+0x1f8>
   114cc:	e59d301c 	ldr	r3, [sp, #28]
   114d0:	e58d3000 	str	r3, [sp]
   114d4:	e894000f 	ldm	r4, {r0, r1, r2, r3}
   114d8:	eb00079c 	bl	13350 <halo_update>
   114dc:	e3a00003 	mov	r0, #3
   114e0:	ebffff27 	bl	11184 <_init+0x9c>
   114e4:	eafffff8 	b	114cc <main+0x8c>
   114e8:	00017fe8 	andeq	r7, r1, r8, ror #31
   114ec:	0000231c 	andeq	r2, r0, ip, lsl r3
   114f0:	00000158 	andeq	r0, r0, r8, asr r1
   114f4:	000021c8 	andeq	r2, r0, r8, asr #3
   114f8:	0000215c 	andeq	r2, r0, ip, asr r1
   114fc:	0000752f 	andeq	r7, r0, pc, lsr #10
   11500:	0000744d 	andeq	r7, r0, sp, asr #8

00011504 <_start>:
   11504:	e3a0b000 	mov	fp, #0
   11508:	e3a0e000 	mov	lr, #0
   1150c:	e49d1004 	pop	{r1}		; (ldr r1, [sp], #4)
   11510:	e1a0200d 	mov	r2, sp
   11514:	e52d2004 	push	{r2}		; (str r2, [sp, #-4]!)
   11518:	e52d0004 	push	{r0}		; (str r0, [sp, #-4]!)
   1151c:	e59fc010 	ldr	ip, [pc, #16]	; 11534 <_start+0x30>
   11520:	e52dc004 	push	{ip}		; (str ip, [sp, #-4]!)
   11524:	e59f000c 	ldr	r0, [pc, #12]	; 11538 <_start+0x34>
   11528:	e59f300c 	ldr	r3, [pc, #12]	; 1153c <_start+0x38>
   1152c:	eaffff26 	b	111cc <_init+0xe4>
   11530:	ebffff76 	bl	11310 <_init+0x228>
   11534:	00017b64 	andeq	r7, r1, r4, ror #22
   11538:	00011440 	andeq	r1, r1, r0, asr #8
   1153c:	000110e8 	andeq	r1, r1, r8, ror #1

00011540 <deregister_tm_clones>:
   11540:	e59f001c 	ldr	r0, [pc, #28]	; 11564 <deregister_tm_clones+0x24>
   11544:	e59f301c 	ldr	r3, [pc, #28]	; 11568 <deregister_tm_clones+0x28>
   11548:	e0603003 	rsb	r3, r0, r3
   1154c:	e3530006 	cmp	r3, #6
   11550:	912fff1e 	bxls	lr
   11554:	e59f3010 	ldr	r3, [pc, #16]	; 1156c <deregister_tm_clones+0x2c>
   11558:	e3530000 	cmp	r3, #0
   1155c:	012fff1e 	bxeq	lr
   11560:	e12fff13 	bx	r3
   11564:	0002972c 	andeq	r9, r2, ip, lsr #14
   11568:	0002972f 	andeq	r9, r2, pc, lsr #14
   1156c:	00000000 	andeq	r0, r0, r0

00011570 <register_tm_clones>:
   11570:	e59f0024 	ldr	r0, [pc, #36]	; 1159c <register_tm_clones+0x2c>
   11574:	e59f1024 	ldr	r1, [pc, #36]	; 115a0 <register_tm_clones+0x30>
   11578:	e0601001 	rsb	r1, r0, r1
   1157c:	e1a01141 	asr	r1, r1, #2
   11580:	e0811fa1 	add	r1, r1, r1, lsr #31
   11584:	e1b010c1 	asrs	r1, r1, #1
   11588:	012fff1e 	bxeq	lr
   1158c:	e59f3010 	ldr	r3, [pc, #16]	; 115a4 <register_tm_clones+0x34>
   11590:	e3530000 	cmp	r3, #0
   11594:	012fff1e 	bxeq	lr
   11598:	e12fff13 	bx	r3
   1159c:	0002972c 	andeq	r9, r2, ip, lsr #14
   115a0:	0002972c 	andeq	r9, r2, ip, lsr #14
   115a4:	00000000 	andeq	r0, r0, r0

000115a8 <__do_global_dtors_aux>:
   115a8:	e59f3034 	ldr	r3, [pc, #52]	; 115e4 <__do_global_dtors_aux+0x3c>
   115ac:	e5d32000 	ldrb	r2, [r3]
   115b0:	e3520000 	cmp	r2, #0
   115b4:	112fff1e 	bxne	lr
   115b8:	e92d4010 	push	{r4, lr}
   115bc:	e1a04003 	mov	r4, r3
   115c0:	ebffffde 	bl	11540 <deregister_tm_clones>
   115c4:	e59f301c 	ldr	r3, [pc, #28]	; 115e8 <__do_global_dtors_aux+0x40>
   115c8:	e3530000 	cmp	r3, #0
   115cc:	0a000001 	beq	115d8 <__do_global_dtors_aux+0x30>
   115d0:	e59f0014 	ldr	r0, [pc, #20]	; 115ec <__do_global_dtors_aux+0x44>
   115d4:	ebffff92 	bl	11424 <_init+0x33c>
   115d8:	e3a03001 	mov	r3, #1
   115dc:	e5c43000 	strb	r3, [r4]
   115e0:	e8bd8010 	pop	{r4, pc}
   115e4:	0002972c 	andeq	r9, r2, ip, lsr #14
   115e8:	00000000 	andeq	r0, r0, r0
   115ec:	000192c8 	andeq	r9, r1, r8, asr #5

000115f0 <frame_dummy>:
   115f0:	e92d4008 	push	{r3, lr}
   115f4:	e59f3018 	ldr	r3, [pc, #24]	; 11614 <frame_dummy+0x24>
   115f8:	e3530000 	cmp	r3, #0
   115fc:	0a000002 	beq	1160c <frame_dummy+0x1c>
   11600:	e59f0010 	ldr	r0, [pc, #16]	; 11618 <frame_dummy+0x28>
   11604:	e59f1010 	ldr	r1, [pc, #16]	; 1161c <frame_dummy+0x2c>
   11608:	ebfffec2 	bl	11118 <_init+0x30>
   1160c:	e8bd4008 	pop	{r3, lr}
   11610:	eaffffd6 	b	11570 <register_tm_clones>
   11614:	00000000 	andeq	r0, r0, r0
   11618:	000192c8 	andeq	r9, r1, r8, asr #5
   1161c:	00029730 	andeq	r9, r2, r0, lsr r7

00011620 <tcp_srv_send_cb>:
   11620:	e3a00000 	mov	r0, #0
   11624:	e12fff1e 	bx	lr

00011628 <tcp_srv_close_cb>:
   11628:	e92d4010 	push	{r4, lr}
   1162c:	e59f1024 	ldr	r1, [pc, #36]	; 11658 <tcp_srv_close_cb+0x30>
   11630:	e1a04000 	mov	r4, r0
   11634:	e59f0020 	ldr	r0, [pc, #32]	; 1165c <tcp_srv_close_cb+0x34>
   11638:	e1a03004 	mov	r3, r4
   1163c:	e08f0000 	add	r0, pc, r0
   11640:	e08f1001 	add	r1, pc, r1
   11644:	e3a02034 	mov	r2, #52	; 0x34
   11648:	ebffff60 	bl	113d0 <_init+0x2e8>
   1164c:	e1a00004 	mov	r0, r4
   11650:	e8bd4010 	pop	{r4, lr}
   11654:	eaffff0f 	b	11298 <_init+0x1b0>
   11658:	00006553 	andeq	r6, r0, r3, asr r5
   1165c:	00006530 	andeq	r6, r0, r0, lsr r5

00011660 <tcp_srv_recv_cb>:
   11660:	e92d4013 	push	{r0, r1, r4, lr}
   11664:	e1a04000 	mov	r4, r0
   11668:	e3a01000 	mov	r1, #0
   1166c:	e5942018 	ldr	r2, [r4, #24]
   11670:	e5900014 	ldr	r0, [r0, #20]
   11674:	ebffff19 	bl	112e0 <_init+0x1f8>
   11678:	e3a03000 	mov	r3, #0
   1167c:	e5940008 	ldr	r0, [r4, #8]
   11680:	e5941014 	ldr	r1, [r4, #20]
   11684:	e5942018 	ldr	r2, [r4, #24]
   11688:	ebfffed8 	bl	111f0 <_init+0x108>
   1168c:	e3500000 	cmp	r0, #0
   11690:	e1a03000 	mov	r3, r0
   11694:	e584001c 	str	r0, [r4, #28]
   11698:	ca000004 	bgt	116b0 <tcp_srv_recv_cb+0x50>
   1169c:	ebfffea3 	bl	11130 <_init+0x48>
   116a0:	e5900000 	ldr	r0, [r0]
   116a4:	e2500004 	subs	r0, r0, #4
   116a8:	13e00000 	mvnne	r0, #0
   116ac:	ea00000d 	b	116e8 <tcp_srv_recv_cb+0x88>
   116b0:	e5942014 	ldr	r2, [r4, #20]
   116b4:	e59f0034 	ldr	r0, [pc, #52]	; 116f0 <tcp_srv_recv_cb+0x90>
   116b8:	e59f1034 	ldr	r1, [pc, #52]	; 116f4 <tcp_srv_recv_cb+0x94>
   116bc:	e58d2000 	str	r2, [sp]
   116c0:	e08f1001 	add	r1, pc, r1
   116c4:	e3a0204b 	mov	r2, #75	; 0x4b
   116c8:	e08f0000 	add	r0, pc, r0
   116cc:	ebffff3f 	bl	113d0 <_init+0x2e8>
   116d0:	e5940008 	ldr	r0, [r4, #8]
   116d4:	e5941014 	ldr	r1, [r4, #20]
   116d8:	e594201c 	ldr	r2, [r4, #28]
   116dc:	e3a03000 	mov	r3, #0
   116e0:	ebfffeaa 	bl	11190 <_init+0xa8>
   116e4:	e3a00000 	mov	r0, #0
   116e8:	e28dd008 	add	sp, sp, #8
   116ec:	e8bd8010 	pop	{r4, pc}
   116f0:	000064da 	ldrdeq	r6, [r0], -sl
   116f4:	000064d3 	ldrdeq	r6, [r0], -r3

000116f8 <init_tcp_server>:
   116f8:	e92d40f8 	push	{r3, r4, r5, r6, r7, lr}
   116fc:	e3a01001 	mov	r1, #1
   11700:	e1a06000 	mov	r6, r0
   11704:	e3a02000 	mov	r2, #0
   11708:	e3a00002 	mov	r0, #2
   1170c:	ebffff0b 	bl	11340 <_init+0x258>
   11710:	e59f40ec 	ldr	r4, [pc, #236]	; 11804 <init_tcp_server+0x10c>
   11714:	e08f4004 	add	r4, pc, r4
   11718:	e3500000 	cmp	r0, #0
   1171c:	e1a05000 	mov	r5, r0
   11720:	e5840000 	str	r0, [r4]
   11724:	aa000006 	bge	11744 <init_tcp_server+0x4c>
   11728:	e59f00d8 	ldr	r0, [pc, #216]	; 11808 <init_tcp_server+0x110>
   1172c:	e59f10d8 	ldr	r1, [pc, #216]	; 1180c <init_tcp_server+0x114>
   11730:	e3a0201b 	mov	r2, #27
   11734:	e08f1001 	add	r1, pc, r1
   11738:	e08f0000 	add	r0, pc, r0
   1173c:	ebffff23 	bl	113d0 <_init+0x2e8>
   11740:	ea000019 	b	117ac <init_tcp_server+0xb4>
   11744:	e6ff6076 	uxth	r6, r6
   11748:	e2847008 	add	r7, r4, #8
   1174c:	e3a01000 	mov	r1, #0
   11750:	e3a02010 	mov	r2, #16
   11754:	e1a00007 	mov	r0, r7
   11758:	e1c460b4 	strh	r6, [r4, #4]
   1175c:	ebfffedf 	bl	112e0 <_init+0x1f8>
   11760:	e3a03002 	mov	r3, #2
   11764:	e1a00005 	mov	r0, r5
   11768:	e1c430b8 	strh	r3, [r4, #8]
   1176c:	e1a03406 	lsl	r3, r6, #8
   11770:	e1836426 	orr	r6, r3, r6, lsr #8
   11774:	e1a01007 	mov	r1, r7
   11778:	e3a02010 	mov	r2, #16
   1177c:	e1c460ba 	strh	r6, [r4, #10]
   11780:	ebfffe61 	bl	1110c <_init+0x24>
   11784:	e3500000 	cmp	r0, #0
   11788:	aa000009 	bge	117b4 <init_tcp_server+0xbc>
   1178c:	e59f007c 	ldr	r0, [pc, #124]	; 11810 <init_tcp_server+0x118>
   11790:	e59f107c 	ldr	r1, [pc, #124]	; 11814 <init_tcp_server+0x11c>
   11794:	e08f0000 	add	r0, pc, r0
   11798:	e08f1001 	add	r1, pc, r1
   1179c:	e3a02024 	mov	r2, #36	; 0x24
   117a0:	ebffff0a 	bl	113d0 <_init+0x2e8>
   117a4:	e5940000 	ldr	r0, [r4]
   117a8:	ebfffeba 	bl	11298 <_init+0x1b0>
   117ac:	e3e00000 	mvn	r0, #0
   117b0:	e8bd80f8 	pop	{r3, r4, r5, r6, r7, pc}
   117b4:	e5940000 	ldr	r0, [r4]
   117b8:	e3a0100a 	mov	r1, #10
   117bc:	ebfffefd 	bl	113b8 <_init+0x2d0>
   117c0:	e3500000 	cmp	r0, #0
   117c4:	aa000005 	bge	117e0 <init_tcp_server+0xe8>
   117c8:	e59f0048 	ldr	r0, [pc, #72]	; 11818 <init_tcp_server+0x120>
   117cc:	e59f1048 	ldr	r1, [pc, #72]	; 1181c <init_tcp_server+0x124>
   117d0:	e08f0000 	add	r0, pc, r0
   117d4:	e08f1001 	add	r1, pc, r1
   117d8:	e3a02029 	mov	r2, #41	; 0x29
   117dc:	eaffffef 	b	117a0 <init_tcp_server+0xa8>
   117e0:	e59f0038 	ldr	r0, [pc, #56]	; 11820 <init_tcp_server+0x128>
   117e4:	e59f1038 	ldr	r1, [pc, #56]	; 11824 <init_tcp_server+0x12c>
   117e8:	e3a0202d 	mov	r2, #45	; 0x2d
   117ec:	e08f1001 	add	r1, pc, r1
   117f0:	e5943000 	ldr	r3, [r4]
   117f4:	e08f0000 	add	r0, pc, r0
   117f8:	ebfffef4 	bl	113d0 <_init+0x2e8>
   117fc:	e5940000 	ldr	r0, [r4]
   11800:	e8bd80f8 	pop	{r3, r4, r5, r6, r7, pc}
   11804:	0001802c 	andeq	r8, r1, ip, lsr #32
   11808:	0000648e 	andeq	r6, r0, lr, lsl #9
   1180c:	0000645f 	andeq	r6, r0, pc, asr r4
   11810:	00006462 	andeq	r6, r0, r2, ror #8
   11814:	000063fb 	strdeq	r6, [r0], -fp
   11818:	00006450 	andeq	r6, r0, r0, asr r4
   1181c:	000063bf 			; <UNDEFINED> instruction: 0x000063bf
   11820:	00006458 	andeq	r6, r0, r8, asr r4
   11824:	000063a7 	andeq	r6, r0, r7, lsr #7

00011828 <tcp_accept_cb>:
   11828:	e92d4030 	push	{r4, r5, lr}
   1182c:	e3a03010 	mov	r3, #16
   11830:	e24dd01c 	sub	sp, sp, #28
   11834:	e5900008 	ldr	r0, [r0, #8]
   11838:	e28d1008 	add	r1, sp, #8
   1183c:	e28d2004 	add	r2, sp, #4
   11840:	e58d3004 	str	r3, [sp, #4]
   11844:	ebfffed2 	bl	11394 <_init+0x2ac>
   11848:	e59f405c 	ldr	r4, [pc, #92]	; 118ac <tcp_accept_cb+0x84>
   1184c:	e3700001 	cmn	r0, #1
   11850:	e08f4004 	add	r4, pc, r4
   11854:	e1a05000 	mov	r5, r0
   11858:	0a000011 	beq	118a4 <tcp_accept_cb+0x7c>
   1185c:	e59f004c 	ldr	r0, [pc, #76]	; 118b0 <tcp_accept_cb+0x88>
   11860:	e59f104c 	ldr	r1, [pc, #76]	; 118b4 <tcp_accept_cb+0x8c>
   11864:	e3a02059 	mov	r2, #89	; 0x59
   11868:	e08f1001 	add	r1, pc, r1
   1186c:	e08f0000 	add	r0, pc, r0
   11870:	ebfffed6 	bl	113d0 <_init+0x2e8>
   11874:	e59f303c 	ldr	r3, [pc, #60]	; 118b8 <tcp_accept_cb+0x90>
   11878:	e3a02b01 	mov	r2, #1024	; 0x400
   1187c:	e7941003 	ldr	r1, [r4, r3]
   11880:	e59f3034 	ldr	r3, [pc, #52]	; 118bc <tcp_accept_cb+0x94>
   11884:	e1a00005 	mov	r0, r5
   11888:	e7943003 	ldr	r3, [r4, r3]
   1188c:	eb0003fe 	bl	1288c <halo_loop_add>
   11890:	e59f3028 	ldr	r3, [pc, #40]	; 118c0 <tcp_accept_cb+0x98>
   11894:	e1a00005 	mov	r0, r5
   11898:	e7941003 	ldr	r1, [r4, r3]
   1189c:	e3a02b01 	mov	r2, #1024	; 0x400
   118a0:	eb00037c 	bl	12698 <halo_send_add>
   118a4:	e28dd01c 	add	sp, sp, #28
   118a8:	e8bd8030 	pop	{r4, r5, pc}
   118ac:	00017be4 	andeq	r7, r1, r4, ror #23
   118b0:	0000640d 	andeq	r6, r0, sp, lsl #8
   118b4:	0000632b 	andeq	r6, r0, fp, lsr #6
   118b8:	00000148 	andeq	r0, r0, r8, asr #2
   118bc:	00000128 	andeq	r0, r0, r8, lsr #2
   118c0:	0000013c 	andeq	r0, r0, ip, lsr r1

000118c4 <__http_interrupt>:
   118c4:	e3a00000 	mov	r0, #0
   118c8:	e12fff1e 	bx	lr

000118cc <__bodies_to_payload>:
   118cc:	e92d41f0 	push	{r4, r5, r6, r7, r8, lr}
   118d0:	e1a07000 	mov	r7, r0
   118d4:	e1a05001 	mov	r5, r1
   118d8:	e1a08002 	mov	r8, r2
   118dc:	e5914000 	ldr	r4, [r1]
   118e0:	e3a06000 	mov	r6, #0
   118e4:	e1540005 	cmp	r4, r5
   118e8:	0a000010 	beq	11930 <__bodies_to_payload+0x64>
   118ec:	e1a00007 	mov	r0, r7
   118f0:	e5941008 	ldr	r1, [r4, #8]
   118f4:	e594200c 	ldr	r2, [r4, #12]
   118f8:	e1a03008 	mov	r3, r8
   118fc:	eb0007fc 	bl	138f4 <add_x_www_couple>
   11900:	e5940008 	ldr	r0, [r4, #8]
   11904:	e3500000 	cmp	r0, #0
   11908:	0a000001 	beq	11914 <__bodies_to_payload+0x48>
   1190c:	ebfffea3 	bl	113a0 <_init+0x2b8>
   11910:	e5846008 	str	r6, [r4, #8]
   11914:	e594000c 	ldr	r0, [r4, #12]
   11918:	e3500000 	cmp	r0, #0
   1191c:	0a000001 	beq	11928 <__bodies_to_payload+0x5c>
   11920:	ebfffe9e 	bl	113a0 <_init+0x2b8>
   11924:	e584600c 	str	r6, [r4, #12]
   11928:	e5944000 	ldr	r4, [r4]
   1192c:	eaffffec 	b	118e4 <__bodies_to_payload+0x18>
   11930:	e3a00000 	mov	r0, #0
   11934:	e8bd81f0 	pop	{r4, r5, r6, r7, r8, pc}

00011938 <__http_proc>:
   11938:	e59f3380 	ldr	r3, [pc, #896]	; 11cc0 <__http_proc+0x388>
   1193c:	e92d4ff0 	push	{r4, r5, r6, r7, r8, r9, sl, fp, lr}
   11940:	e24dd01c 	sub	sp, sp, #28
   11944:	e08f3003 	add	r3, pc, r3
   11948:	e5933000 	ldr	r3, [r3]
   1194c:	e5933410 	ldr	r3, [r3, #1040]	; 0x410
   11950:	e3530000 	cmp	r3, #0
   11954:	0a000001 	beq	11960 <__http_proc+0x28>
   11958:	ebfffe51 	bl	112a4 <_init+0x1bc>
   1195c:	ebfffea1 	bl	113e8 <_init+0x300>
   11960:	e28d8014 	add	r8, sp, #20
   11964:	e1a00008 	mov	r0, r8
   11968:	ebfffe5f 	bl	112ec <_init+0x204>
   1196c:	e59d3014 	ldr	r3, [sp, #20]
   11970:	e3530005 	cmp	r3, #5
   11974:	1a0000ce 	bne	11cb4 <__http_proc+0x37c>
   11978:	e59f3344 	ldr	r3, [pc, #836]	; 11cc4 <__http_proc+0x38c>
   1197c:	e59fa344 	ldr	sl, [pc, #836]	; 11cc8 <__http_proc+0x390>
   11980:	e08f3003 	add	r3, pc, r3
   11984:	e08fa00a 	add	sl, pc, sl
   11988:	e5933000 	ldr	r3, [r3]
   1198c:	e5933004 	ldr	r3, [r3, #4]
   11990:	e5934000 	ldr	r4, [r3]
   11994:	e59f3330 	ldr	r3, [pc, #816]	; 11ccc <__http_proc+0x394>
   11998:	e08f3003 	add	r3, pc, r3
   1199c:	e5933000 	ldr	r3, [r3]
   119a0:	e5932004 	ldr	r2, [r3, #4]
   119a4:	e1540002 	cmp	r4, r2
   119a8:	0a0000ba 	beq	11c98 <__http_proc+0x360>
   119ac:	e5943008 	ldr	r3, [r4, #8]
   119b0:	e3530000 	cmp	r3, #0
   119b4:	0a0000b5 	beq	11c90 <__http_proc+0x358>
   119b8:	e5943010 	ldr	r3, [r4, #16]
   119bc:	e3530000 	cmp	r3, #0
   119c0:	0a0000b2 	beq	11c90 <__http_proc+0x358>
   119c4:	e59fb304 	ldr	fp, [pc, #772]	; 11cd0 <__http_proc+0x398>
   119c8:	e3a07000 	mov	r7, #0
   119cc:	e08fb00b 	add	fp, pc, fp
   119d0:	e1a00008 	mov	r0, r8
   119d4:	ebfffe44 	bl	112ec <_init+0x204>
   119d8:	e59d3014 	ldr	r3, [sp, #20]
   119dc:	e3530005 	cmp	r3, #5
   119e0:	1a0000b3 	bne	11cb4 <__http_proc+0x37c>
   119e4:	e59b3000 	ldr	r3, [fp]
   119e8:	e593340c 	ldr	r3, [r3, #1036]	; 0x40c
   119ec:	e3530000 	cmp	r3, #0
   119f0:	da00000a 	ble	11a20 <__http_proc+0xe8>
   119f4:	e2877001 	add	r7, r7, #1
   119f8:	e1570003 	cmp	r7, r3
   119fc:	da000007 	ble	11a20 <__http_proc+0xe8>
   11a00:	e59f02cc 	ldr	r0, [pc, #716]	; 11cd4 <__http_proc+0x39c>
   11a04:	e59f12cc 	ldr	r1, [pc, #716]	; 11cd8 <__http_proc+0x3a0>
   11a08:	e08f0000 	add	r0, pc, r0
   11a0c:	e08f1001 	add	r1, pc, r1
   11a10:	e3002133 	movw	r2, #307	; 0x133
   11a14:	ebfffe6d 	bl	113d0 <_init+0x2e8>
   11a18:	e3e00000 	mvn	r0, #0
   11a1c:	ea0000a3 	b	11cb0 <__http_proc+0x378>
   11a20:	e59f02b4 	ldr	r0, [pc, #692]	; 11cdc <__http_proc+0x3a4>
   11a24:	e59f52b4 	ldr	r5, [pc, #692]	; 11ce0 <__http_proc+0x3a8>
   11a28:	ebfffdc9 	bl	11154 <_init+0x6c>
   11a2c:	e59f02b0 	ldr	r0, [pc, #688]	; 11ce4 <__http_proc+0x3ac>
   11a30:	e59f12b0 	ldr	r1, [pc, #688]	; 11ce8 <__http_proc+0x3b0>
   11a34:	e08f5005 	add	r5, pc, r5
   11a38:	e5943008 	ldr	r3, [r4, #8]
   11a3c:	e08f0000 	add	r0, pc, r0
   11a40:	e08f1001 	add	r1, pc, r1
   11a44:	e3a02f4e 	mov	r2, #312	; 0x138
   11a48:	ebfffe60 	bl	113d0 <_init+0x2e8>
   11a4c:	e5953000 	ldr	r3, [r5]
   11a50:	e5930414 	ldr	r0, [r3, #1044]	; 0x414
   11a54:	e3500000 	cmp	r0, #0
   11a58:	0a000003 	beq	11a6c <__http_proc+0x134>
   11a5c:	ebfffdd1 	bl	111a8 <_init+0xc0>
   11a60:	e5953000 	ldr	r3, [r5]
   11a64:	e3a02000 	mov	r2, #0
   11a68:	e5832414 	str	r2, [r3, #1044]	; 0x414
   11a6c:	e59f5278 	ldr	r5, [pc, #632]	; 11cec <__http_proc+0x3b4>
   11a70:	e59f0278 	ldr	r0, [pc, #632]	; 11cf0 <__http_proc+0x3b8>
   11a74:	e08f5005 	add	r5, pc, r5
   11a78:	e3a01000 	mov	r1, #0
   11a7c:	e08f0000 	add	r0, pc, r0
   11a80:	e5956000 	ldr	r6, [r5]
   11a84:	ebfffe5d 	bl	11400 <_init+0x318>
   11a88:	e5953000 	ldr	r3, [r5]
   11a8c:	e5860414 	str	r0, [r6, #1044]	; 0x414
   11a90:	e5930414 	ldr	r0, [r3, #1044]	; 0x414
   11a94:	e5941008 	ldr	r1, [r4, #8]
   11a98:	ebfffe3a 	bl	11388 <_init+0x2a0>
   11a9c:	e3500000 	cmp	r0, #0
   11aa0:	0a000006 	beq	11ac0 <__http_proc+0x188>
   11aa4:	e59f0248 	ldr	r0, [pc, #584]	; 11cf4 <__http_proc+0x3bc>
   11aa8:	e59f1248 	ldr	r1, [pc, #584]	; 11cf8 <__http_proc+0x3c0>
   11aac:	e08f0000 	add	r0, pc, r0
   11ab0:	e08f1001 	add	r1, pc, r1
   11ab4:	e300214a 	movw	r2, #330	; 0x14a
   11ab8:	e5943008 	ldr	r3, [r4, #8]
   11abc:	ea000033 	b	11b90 <__http_proc+0x258>
   11ac0:	e5953000 	ldr	r3, [r5]
   11ac4:	e3a01003 	mov	r1, #3
   11ac8:	e5930414 	ldr	r0, [r3, #1044]	; 0x414
   11acc:	ebfffe3c 	bl	113c4 <_init+0x2dc>
   11ad0:	e3500000 	cmp	r0, #0
   11ad4:	0a000005 	beq	11af0 <__http_proc+0x1b8>
   11ad8:	e59f021c 	ldr	r0, [pc, #540]	; 11cfc <__http_proc+0x3c4>
   11adc:	e59f121c 	ldr	r1, [pc, #540]	; 11d00 <__http_proc+0x3c8>
   11ae0:	e08f0000 	add	r0, pc, r0
   11ae4:	e08f1001 	add	r1, pc, r1
   11ae8:	e300214e 	movw	r2, #334	; 0x14e
   11aec:	ea000048 	b	11c14 <__http_proc+0x2dc>
   11af0:	e594300c 	ldr	r3, [r4, #12]
   11af4:	e3530000 	cmp	r3, #0
   11af8:	15935000 	ldrne	r5, [r3]
   11afc:	1a000007 	bne	11b20 <__http_proc+0x1e8>
   11b00:	e5953000 	ldr	r3, [r5]
   11b04:	e59f11f8 	ldr	r1, [pc, #504]	; 11d04 <__http_proc+0x3cc>
   11b08:	e59f21f8 	ldr	r2, [pc, #504]	; 11d08 <__http_proc+0x3d0>
   11b0c:	e5930414 	ldr	r0, [r3, #1044]	; 0x414
   11b10:	e08f1001 	add	r1, pc, r1
   11b14:	e08f2002 	add	r2, pc, r2
   11b18:	ebfffe2f 	bl	113dc <_init+0x2f4>
   11b1c:	ea000009 	b	11b48 <__http_proc+0x210>
   11b20:	e594300c 	ldr	r3, [r4, #12]
   11b24:	e1550003 	cmp	r5, r3
   11b28:	0a000006 	beq	11b48 <__http_proc+0x210>
   11b2c:	e59a3000 	ldr	r3, [sl]
   11b30:	e5951008 	ldr	r1, [r5, #8]
   11b34:	e595200c 	ldr	r2, [r5, #12]
   11b38:	e5930414 	ldr	r0, [r3, #1044]	; 0x414
   11b3c:	ebfffe26 	bl	113dc <_init+0x2f4>
   11b40:	e5955000 	ldr	r5, [r5]
   11b44:	eafffff5 	b	11b20 <__http_proc+0x1e8>
   11b48:	e5946010 	ldr	r6, [r4, #16]
   11b4c:	e59f51b8 	ldr	r5, [pc, #440]	; 11d0c <__http_proc+0x3d4>
   11b50:	e1a00006 	mov	r0, r6
   11b54:	e08f5005 	add	r5, pc, r5
   11b58:	ebfffda7 	bl	111fc <_init+0x114>
   11b5c:	e1a01006 	mov	r1, r6
   11b60:	e5953000 	ldr	r3, [r5]
   11b64:	e1a02000 	mov	r2, r0
   11b68:	e5930414 	ldr	r0, [r3, #1044]	; 0x414
   11b6c:	ebfffd8a 	bl	1119c <_init+0xb4>
   11b70:	e3500000 	cmp	r0, #0
   11b74:	0a000007 	beq	11b98 <__http_proc+0x260>
   11b78:	e59f0190 	ldr	r0, [pc, #400]	; 11d10 <__http_proc+0x3d8>
   11b7c:	e59f1190 	ldr	r1, [pc, #400]	; 11d14 <__http_proc+0x3dc>
   11b80:	e08f0000 	add	r0, pc, r0
   11b84:	e08f1001 	add	r1, pc, r1
   11b88:	e300215b 	movw	r2, #347	; 0x15b
   11b8c:	e5943010 	ldr	r3, [r4, #16]
   11b90:	ebfffe0e 	bl	113d0 <_init+0x2e8>
   11b94:	eaffff8d 	b	119d0 <__http_proc+0x98>
   11b98:	e5953000 	ldr	r3, [r5]
   11b9c:	e5930414 	ldr	r0, [r3, #1044]	; 0x414
   11ba0:	ebfffda7 	bl	11244 <_init+0x15c>
   11ba4:	e3500000 	cmp	r0, #0
   11ba8:	0a000005 	beq	11bc4 <__http_proc+0x28c>
   11bac:	e59f0164 	ldr	r0, [pc, #356]	; 11d18 <__http_proc+0x3e0>
   11bb0:	e59f1164 	ldr	r1, [pc, #356]	; 11d1c <__http_proc+0x3e4>
   11bb4:	e08f0000 	add	r0, pc, r0
   11bb8:	e08f1001 	add	r1, pc, r1
   11bbc:	e300215f 	movw	r2, #351	; 0x15f
   11bc0:	ea000013 	b	11c14 <__http_proc+0x2dc>
   11bc4:	e5956000 	ldr	r6, [r5]
   11bc8:	f2c00010 	vmov.i32	d16, #0	; 0x00000000
   11bcc:	ec532b30 	vmov	r2, r3, d16
   11bd0:	edcd0b00 	vstr	d16, [sp]
   11bd4:	e5960414 	ldr	r0, [r6, #1044]	; 0x414
   11bd8:	ebfffda2 	bl	11268 <_init+0x180>
   11bdc:	e5860418 	str	r0, [r6, #1048]	; 0x418
   11be0:	e5956000 	ldr	r6, [r5]
   11be4:	e5963418 	ldr	r3, [r6, #1048]	; 0x418
   11be8:	e3530001 	cmp	r3, #1
   11bec:	13730002 	cmnne	r3, #2
   11bf0:	13a02001 	movne	r2, #1
   11bf4:	03a02000 	moveq	r2, #0
   11bf8:	e58d200c 	str	r2, [sp, #12]
   11bfc:	0a000006 	beq	11c1c <__http_proc+0x2e4>
   11c00:	e59f0118 	ldr	r0, [pc, #280]	; 11d20 <__http_proc+0x3e8>
   11c04:	e59f1118 	ldr	r1, [pc, #280]	; 11d24 <__http_proc+0x3ec>
   11c08:	e08f0000 	add	r0, pc, r0
   11c0c:	e08f1001 	add	r1, pc, r1
   11c10:	e3a02f59 	mov	r2, #356	; 0x164
   11c14:	ebfffded 	bl	113d0 <_init+0x2e8>
   11c18:	eaffff6c 	b	119d0 <__http_proc+0x98>
   11c1c:	e5960414 	ldr	r0, [r6, #1044]	; 0x414
   11c20:	ebfffd51 	bl	1116c <_init+0x84>
   11c24:	e5860008 	str	r0, [r6, #8]
   11c28:	e5956000 	ldr	r6, [r5]
   11c2c:	e5963008 	ldr	r3, [r6, #8]
   11c30:	e35300c8 	cmp	r3, #200	; 0xc8
   11c34:	0a000005 	beq	11c50 <__http_proc+0x318>
   11c38:	e59f00e8 	ldr	r0, [pc, #232]	; 11d28 <__http_proc+0x3f0>
   11c3c:	e59f10e8 	ldr	r1, [pc, #232]	; 11d2c <__http_proc+0x3f4>
   11c40:	e08f0000 	add	r0, pc, r0
   11c44:	e08f1001 	add	r1, pc, r1
   11c48:	e3002169 	movw	r2, #361	; 0x169
   11c4c:	eaffffcf 	b	11b90 <__http_proc+0x258>
   11c50:	e286900c 	add	r9, r6, #12
   11c54:	e59d100c 	ldr	r1, [sp, #12]
   11c58:	e3a02b01 	mov	r2, #1024	; 0x400
   11c5c:	e1a00009 	mov	r0, r9
   11c60:	ebfffd9e 	bl	112e0 <_init+0x1f8>
   11c64:	e1a01009 	mov	r1, r9
   11c68:	e3a02b01 	mov	r2, #1024	; 0x400
   11c6c:	e5960414 	ldr	r0, [r6, #1044]	; 0x414
   11c70:	ebfffd97 	bl	112d4 <_init+0x1ec>
   11c74:	e5950000 	ldr	r0, [r5]
   11c78:	e5943018 	ldr	r3, [r4, #24]
   11c7c:	e2800008 	add	r0, r0, #8
   11c80:	e1a01004 	mov	r1, r4
   11c84:	e12fff33 	blx	r3
   11c88:	e3500000 	cmp	r0, #0
   11c8c:	1affff4f 	bne	119d0 <__http_proc+0x98>
   11c90:	e5944000 	ldr	r4, [r4]
   11c94:	eaffff3e 	b	11994 <__http_proc+0x5c>
   11c98:	e593241c 	ldr	r2, [r3, #1052]	; 0x41c
   11c9c:	e3520000 	cmp	r2, #0
   11ca0:	0a000001 	beq	11cac <__http_proc+0x374>
   11ca4:	e5930420 	ldr	r0, [r3, #1056]	; 0x420
   11ca8:	e12fff32 	blx	r2
   11cac:	e3a00000 	mov	r0, #0
   11cb0:	ebfffd9f 	bl	11334 <_init+0x24c>
   11cb4:	e3e00000 	mvn	r0, #0
   11cb8:	e28dd01c 	add	sp, sp, #28
   11cbc:	e8bd8ff0 	pop	{r4, r5, r6, r7, r8, r9, sl, fp, pc}
   11cc0:	00017e14 	andeq	r7, r1, r4, lsl lr
   11cc4:	00017dd8 	ldrdeq	r7, [r1], -r8
   11cc8:	00017dd4 	ldrdeq	r7, [r1], -r4
   11ccc:	00017dc0 	andeq	r7, r1, r0, asr #27
   11cd0:	00017d8c 	andeq	r7, r1, ip, lsl #27
   11cd4:	0000629a 	muleq	r0, sl, r2
   11cd8:	000062c4 	andeq	r6, r0, r4, asr #5
   11cdc:	000186a0 	andeq	r8, r1, r0, lsr #13
   11ce0:	00017d24 	andeq	r7, r1, r4, lsr #26
   11ce4:	000062a0 	andeq	r6, r0, r0, lsr #5
   11ce8:	00006290 	muleq	r0, r0, r2
   11cec:	00017ce4 	andeq	r7, r1, r4, ror #25
   11cf0:	fffffe40 			; <UNDEFINED> instruction: 0xfffffe40
   11cf4:	00006256 	andeq	r6, r0, r6, asr r2
   11cf8:	00006220 	andeq	r6, r0, r0, lsr #4
   11cfc:	00006253 	andeq	r6, r0, r3, asr r2
   11d00:	000061ec 	andeq	r6, r0, ip, ror #3
   11d04:	00006257 	andeq	r6, r0, r7, asr r2
   11d08:	00006260 	andeq	r6, r0, r0, ror #4
   11d0c:	00017c04 	andeq	r7, r1, r4, lsl #24
   11d10:	00006216 	andeq	r6, r0, r6, lsl r2
   11d14:	0000614c 	andeq	r6, r0, ip, asr #2
   11d18:	00006215 	andeq	r6, r0, r5, lsl r2
   11d1c:	00006118 	andeq	r6, r0, r8, lsl r1
   11d20:	000061ef 	andeq	r6, r0, pc, ror #3
   11d24:	000060c4 	andeq	r6, r0, r4, asr #1
   11d28:	000061e4 	andeq	r6, r0, r4, ror #3
   11d2c:	0000608c 	andeq	r6, r0, ip, lsl #1

00011d30 <add_hash>:
   11d30:	e92d41f0 	push	{r4, r5, r6, r7, r8, lr}
   11d34:	e1a07000 	mov	r7, r0
   11d38:	e3a00010 	mov	r0, #16
   11d3c:	e1a06001 	mov	r6, r1
   11d40:	e1a04002 	mov	r4, r2
   11d44:	ebfffd1a 	bl	111b4 <_init+0xcc>
   11d48:	e2505000 	subs	r5, r0, #0
   11d4c:	1a000003 	bne	11d60 <add_hash+0x30>
   11d50:	e59f00b0 	ldr	r0, [pc, #176]	; 11e08 <add_hash+0xd8>
   11d54:	e08f0000 	add	r0, pc, r0
   11d58:	ebfffda5 	bl	113f4 <_init+0x30c>
   11d5c:	ea000026 	b	11dfc <add_hash+0xcc>
   11d60:	e1a00006 	mov	r0, r6
   11d64:	ebfffd24 	bl	111fc <_init+0x114>
   11d68:	e2800001 	add	r0, r0, #1
   11d6c:	ebfffd10 	bl	111b4 <_init+0xcc>
   11d70:	e1a01006 	mov	r1, r6
   11d74:	e5850008 	str	r0, [r5, #8]
   11d78:	e1a08000 	mov	r8, r0
   11d7c:	ebfffda5 	bl	11418 <_init+0x330>
   11d80:	e1a00004 	mov	r0, r4
   11d84:	ebfffd1c 	bl	111fc <_init+0x114>
   11d88:	e2800001 	add	r0, r0, #1
   11d8c:	ebfffd08 	bl	111b4 <_init+0xcc>
   11d90:	e1a01004 	mov	r1, r4
   11d94:	e585000c 	str	r0, [r5, #12]
   11d98:	ebfffd9e 	bl	11418 <_init+0x330>
   11d9c:	e3570000 	cmp	r7, #0
   11da0:	0a000015 	beq	11dfc <add_hash+0xcc>
   11da4:	e5974000 	ldr	r4, [r7]
   11da8:	e1540007 	cmp	r4, r7
   11dac:	0a00000b 	beq	11de0 <add_hash+0xb0>
   11db0:	e1a00008 	mov	r0, r8
   11db4:	e5941008 	ldr	r1, [r4, #8]
   11db8:	ebfffd6c 	bl	11370 <_init+0x288>
   11dbc:	e2506000 	subs	r6, r0, #0
   11dc0:	1a000004 	bne	11dd8 <add_hash+0xa8>
   11dc4:	e59f0040 	ldr	r0, [pc, #64]	; 11e0c <add_hash+0xdc>
   11dc8:	e1a01008 	mov	r1, r8
   11dcc:	e08f0000 	add	r0, pc, r0
   11dd0:	ebfffd7e 	bl	113d0 <_init+0x2e8>
   11dd4:	ea000009 	b	11e00 <add_hash+0xd0>
   11dd8:	e5944000 	ldr	r4, [r4]
   11ddc:	eafffff1 	b	11da8 <add_hash+0x78>
   11de0:	e5943004 	ldr	r3, [r4, #4]
   11de4:	e3a06000 	mov	r6, #0
   11de8:	e5845004 	str	r5, [r4, #4]
   11dec:	e5854000 	str	r4, [r5]
   11df0:	e5853004 	str	r3, [r5, #4]
   11df4:	e5835000 	str	r5, [r3]
   11df8:	ea000000 	b	11e00 <add_hash+0xd0>
   11dfc:	e3e06000 	mvn	r6, #0
   11e00:	e1a00006 	mov	r0, r6
   11e04:	e8bd81f0 	pop	{r4, r5, r6, r7, r8, pc}
   11e08:	00006108 	andeq	r6, r0, r8, lsl #2
   11e0c:	0000609f 	muleq	r0, pc, r0	; <UNPREDICTABLE>

00011e10 <del_hash>:
   11e10:	e92d4010 	push	{r4, lr}
   11e14:	e2504000 	subs	r4, r0, #0
   11e18:	0a000015 	beq	11e74 <del_hash+0x64>
   11e1c:	e5940008 	ldr	r0, [r4, #8]
   11e20:	e3500000 	cmp	r0, #0
   11e24:	0a000002 	beq	11e34 <del_hash+0x24>
   11e28:	ebfffd5c 	bl	113a0 <_init+0x2b8>
   11e2c:	e3a03000 	mov	r3, #0
   11e30:	e5843008 	str	r3, [r4, #8]
   11e34:	e594000c 	ldr	r0, [r4, #12]
   11e38:	e3500000 	cmp	r0, #0
   11e3c:	0a000002 	beq	11e4c <del_hash+0x3c>
   11e40:	ebfffd56 	bl	113a0 <_init+0x2b8>
   11e44:	e3a03000 	mov	r3, #0
   11e48:	e584300c 	str	r3, [r4, #12]
   11e4c:	e5943000 	ldr	r3, [r4]
   11e50:	e5942004 	ldr	r2, [r4, #4]
   11e54:	e1a00004 	mov	r0, r4
   11e58:	e5832004 	str	r2, [r3, #4]
   11e5c:	e894000c 	ldm	r4, {r2, r3}
   11e60:	e5832000 	str	r2, [r3]
   11e64:	e3a03000 	mov	r3, #0
   11e68:	e5843004 	str	r3, [r4, #4]
   11e6c:	e5843000 	str	r3, [r4]
   11e70:	ebfffd4a 	bl	113a0 <_init+0x2b8>
   11e74:	e3a00000 	mov	r0, #0
   11e78:	e8bd8010 	pop	{r4, pc}

00011e7c <free_hash>:
   11e7c:	e92d4038 	push	{r3, r4, r5, lr}
   11e80:	e2505000 	subs	r5, r0, #0
   11e84:	0a000007 	beq	11ea8 <free_hash+0x2c>
   11e88:	e5950000 	ldr	r0, [r5]
   11e8c:	e5904000 	ldr	r4, [r0]
   11e90:	e1500005 	cmp	r0, r5
   11e94:	0a000003 	beq	11ea8 <free_hash+0x2c>
   11e98:	ebffffdc 	bl	11e10 <del_hash>
   11e9c:	e1a00004 	mov	r0, r4
   11ea0:	e5944000 	ldr	r4, [r4]
   11ea4:	eafffff9 	b	11e90 <free_hash+0x14>
   11ea8:	e3a00000 	mov	r0, #0
   11eac:	e8bd8038 	pop	{r3, r4, r5, pc}

00011eb0 <add_post>:
   11eb0:	e3510000 	cmp	r1, #0
   11eb4:	13530000 	cmpne	r3, #0
   11eb8:	e92d43f8 	push	{r3, r4, r5, r6, r7, r8, r9, lr}
   11ebc:	e1a05003 	mov	r5, r3
   11ec0:	e1a07001 	mov	r7, r1
   11ec4:	1a000003 	bne	11ed8 <add_post+0x28>
   11ec8:	e59f011c 	ldr	r0, [pc, #284]	; 11fec <add_post+0x13c>
   11ecc:	e08f0000 	add	r0, pc, r0
   11ed0:	ebfffd47 	bl	113f4 <_init+0x30c>
   11ed4:	ea000041 	b	11fe0 <add_post+0x130>
   11ed8:	e1a09000 	mov	r9, r0
   11edc:	e3a0001c 	mov	r0, #28
   11ee0:	e1a08002 	mov	r8, r2
   11ee4:	ebfffcb2 	bl	111b4 <_init+0xcc>
   11ee8:	e2504000 	subs	r4, r0, #0
   11eec:	0a00003b 	beq	11fe0 <add_post+0x130>
   11ef0:	e1a00007 	mov	r0, r7
   11ef4:	ebfffcc0 	bl	111fc <_init+0x114>
   11ef8:	e2800001 	add	r0, r0, #1
   11efc:	ebfffcac 	bl	111b4 <_init+0xcc>
   11f00:	e1a01007 	mov	r1, r7
   11f04:	e5840008 	str	r0, [r4, #8]
   11f08:	e1a06000 	mov	r6, r0
   11f0c:	ebfffd41 	bl	11418 <_init+0x330>
   11f10:	e584800c 	str	r8, [r4, #12]
   11f14:	e1a00005 	mov	r0, r5
   11f18:	ebfffcb7 	bl	111fc <_init+0x114>
   11f1c:	e2800001 	add	r0, r0, #1
   11f20:	ebfffca3 	bl	111b4 <_init+0xcc>
   11f24:	e1a01005 	mov	r1, r5
   11f28:	e5840010 	str	r0, [r4, #16]
   11f2c:	e1a07000 	mov	r7, r0
   11f30:	ebfffd38 	bl	11418 <_init+0x330>
   11f34:	e59d3020 	ldr	r3, [sp, #32]
   11f38:	e3560000 	cmp	r6, #0
   11f3c:	e5843018 	str	r3, [r4, #24]
   11f40:	0a000003 	beq	11f54 <add_post+0xa4>
   11f44:	e3570000 	cmp	r7, #0
   11f48:	15995000 	ldrne	r5, [r9]
   11f4c:	15958000 	ldrne	r8, [r5]
   11f50:	1a00000d 	bne	11f8c <add_post+0xdc>
   11f54:	e59f0094 	ldr	r0, [pc, #148]	; 11ff0 <add_post+0x140>
   11f58:	e1a01006 	mov	r1, r6
   11f5c:	e1a02007 	mov	r2, r7
   11f60:	e08f0000 	add	r0, pc, r0
   11f64:	ebfffd19 	bl	113d0 <_init+0x2e8>
   11f68:	ea00001c 	b	11fe0 <add_post+0x130>
   11f6c:	e5950008 	ldr	r0, [r5, #8]
   11f70:	e1a01006 	mov	r1, r6
   11f74:	e3a02b01 	mov	r2, #1024	; 0x400
   11f78:	ebfffc90 	bl	111c0 <_init+0xd8>
   11f7c:	e3500000 	cmp	r0, #0
   11f80:	0a000004 	beq	11f98 <add_post+0xe8>
   11f84:	e1a05008 	mov	r5, r8
   11f88:	e5988000 	ldr	r8, [r8]
   11f8c:	e1550009 	cmp	r5, r9
   11f90:	1afffff5 	bne	11f6c <add_post+0xbc>
   11f94:	ea00000a 	b	11fc4 <add_post+0x114>
   11f98:	e5951010 	ldr	r1, [r5, #16]
   11f9c:	e1a00007 	mov	r0, r7
   11fa0:	ebfffcf2 	bl	11370 <_init+0x288>
   11fa4:	e2505000 	subs	r5, r0, #0
   11fa8:	1afffff5 	bne	11f84 <add_post+0xd4>
   11fac:	e59f0040 	ldr	r0, [pc, #64]	; 11ff4 <add_post+0x144>
   11fb0:	e1a01006 	mov	r1, r6
   11fb4:	e1a02007 	mov	r2, r7
   11fb8:	e08f0000 	add	r0, pc, r0
   11fbc:	ebfffd03 	bl	113d0 <_init+0x2e8>
   11fc0:	ea000007 	b	11fe4 <add_post+0x134>
   11fc4:	e5953004 	ldr	r3, [r5, #4]
   11fc8:	e5854004 	str	r4, [r5, #4]
   11fcc:	e5845000 	str	r5, [r4]
   11fd0:	e5843004 	str	r3, [r4, #4]
   11fd4:	e3a05000 	mov	r5, #0
   11fd8:	e5834000 	str	r4, [r3]
   11fdc:	ea000000 	b	11fe4 <add_post+0x134>
   11fe0:	e3e05000 	mvn	r5, #0
   11fe4:	e1a00005 	mov	r0, r5
   11fe8:	e8bd83f8 	pop	{r3, r4, r5, r6, r7, r8, r9, pc}
   11fec:	00005fba 			; <UNDEFINED> instruction: 0x00005fba
   11ff0:	00005f37 	andeq	r5, r0, r7, lsr pc
   11ff4:	00005efd 	strdeq	r5, [r0], -sp

00011ff8 <add_post_dynamic>:
   11ff8:	e3510000 	cmp	r1, #0
   11ffc:	13530000 	cmpne	r3, #0
   12000:	e92d43f8 	push	{r3, r4, r5, r6, r7, r8, r9, lr}
   12004:	e1a06003 	mov	r6, r3
   12008:	e1a07001 	mov	r7, r1
   1200c:	03a08001 	moveq	r8, #1
   12010:	13a08000 	movne	r8, #0
   12014:	0a000002 	beq	12024 <add_post_dynamic+0x2c>
   12018:	e3500000 	cmp	r0, #0
   1201c:	e1a05000 	mov	r5, r0
   12020:	1a000006 	bne	12040 <add_post_dynamic+0x48>
   12024:	e59f00a4 	ldr	r0, [pc, #164]	; 120d0 <add_post_dynamic+0xd8>
   12028:	e59f10a4 	ldr	r1, [pc, #164]	; 120d4 <add_post_dynamic+0xdc>
   1202c:	e3a020ac 	mov	r2, #172	; 0xac
   12030:	e08f1001 	add	r1, pc, r1
   12034:	e08f0000 	add	r0, pc, r0
   12038:	ebfffce4 	bl	113d0 <_init+0x2e8>
   1203c:	ea000021 	b	120c8 <add_post_dynamic+0xd0>
   12040:	e59f0090 	ldr	r0, [pc, #144]	; 120d8 <add_post_dynamic+0xe0>
   12044:	e59f1090 	ldr	r1, [pc, #144]	; 120dc <add_post_dynamic+0xe4>
   12048:	e1a09002 	mov	r9, r2
   1204c:	e08f1001 	add	r1, pc, r1
   12050:	e3a020af 	mov	r2, #175	; 0xaf
   12054:	e08f0000 	add	r0, pc, r0
   12058:	ebfffcdc 	bl	113d0 <_init+0x2e8>
   1205c:	e3a0001c 	mov	r0, #28
   12060:	ebfffc53 	bl	111b4 <_init+0xcc>
   12064:	e2504000 	subs	r4, r0, #0
   12068:	0a000016 	beq	120c8 <add_post_dynamic+0xd0>
   1206c:	e1a00007 	mov	r0, r7
   12070:	ebfffc61 	bl	111fc <_init+0x114>
   12074:	e2800001 	add	r0, r0, #1
   12078:	ebfffc4d 	bl	111b4 <_init+0xcc>
   1207c:	e1a01007 	mov	r1, r7
   12080:	e5840008 	str	r0, [r4, #8]
   12084:	ebfffce3 	bl	11418 <_init+0x330>
   12088:	e584900c 	str	r9, [r4, #12]
   1208c:	e1a00006 	mov	r0, r6
   12090:	ebfffc59 	bl	111fc <_init+0x114>
   12094:	e2800001 	add	r0, r0, #1
   12098:	ebfffc45 	bl	111b4 <_init+0xcc>
   1209c:	e1a01006 	mov	r1, r6
   120a0:	e5840010 	str	r0, [r4, #16]
   120a4:	ebfffcdb 	bl	11418 <_init+0x330>
   120a8:	e59d3020 	ldr	r3, [sp, #32]
   120ac:	e1a00008 	mov	r0, r8
   120b0:	e5843018 	str	r3, [r4, #24]
   120b4:	e5953000 	ldr	r3, [r5]
   120b8:	e5834004 	str	r4, [r3, #4]
   120bc:	e8840028 	stm	r4, {r3, r5}
   120c0:	e5854000 	str	r4, [r5]
   120c4:	e8bd83f8 	pop	{r3, r4, r5, r6, r7, r8, r9, pc}
   120c8:	e3e00000 	mvn	r0, #0
   120cc:	e8bd83f8 	pop	{r3, r4, r5, r6, r7, r8, r9, pc}
   120d0:	00005ea3 	andeq	r5, r0, r3, lsr #29
   120d4:	00005ca0 	andeq	r5, r0, r0, lsr #25
   120d8:	00005eb6 			; <UNDEFINED> instruction: 0x00005eb6
   120dc:	00005c84 	andeq	r5, r0, r4, lsl #25

000120e0 <add_post_hash_bodies>:
   120e0:	e92d4ff1 	push	{r0, r4, r5, r6, r7, r8, r9, sl, fp, lr}
   120e4:	e1a09000 	mov	r9, r0
   120e8:	e1a08001 	mov	r8, r1
   120ec:	e1a07002 	mov	r7, r2
   120f0:	e1a06003 	mov	r6, r3
   120f4:	e59da028 	ldr	sl, [sp, #40]	; 0x28
   120f8:	e5934000 	ldr	r4, [r3]
   120fc:	e3a05000 	mov	r5, #0
   12100:	e1540006 	cmp	r4, r6
   12104:	0a000009 	beq	12130 <add_post_hash_bodies+0x50>
   12108:	e5940008 	ldr	r0, [r4, #8]
   1210c:	eb00068f 	bl	13b50 <sizeof_x_www_format>
   12110:	e2855001 	add	r5, r5, #1
   12114:	e1a0b000 	mov	fp, r0
   12118:	e594000c 	ldr	r0, [r4, #12]
   1211c:	eb00068b 	bl	13b50 <sizeof_x_www_format>
   12120:	e085500b 	add	r5, r5, fp
   12124:	e5944000 	ldr	r4, [r4]
   12128:	e0855000 	add	r5, r5, r0
   1212c:	eafffff3 	b	12100 <add_post_hash_bodies+0x20>
   12130:	e1a00005 	mov	r0, r5
   12134:	ebfffc1e 	bl	111b4 <_init+0xcc>
   12138:	e2506000 	subs	r6, r0, #0
   1213c:	1a000003 	bne	12150 <add_post_hash_bodies+0x70>
   12140:	e59f0058 	ldr	r0, [pc, #88]	; 121a0 <add_post_hash_bodies+0xc0>
   12144:	e08f0000 	add	r0, pc, r0
   12148:	ebfffca9 	bl	113f4 <_init+0x30c>
   1214c:	ea000010 	b	12194 <add_post_hash_bodies+0xb4>
   12150:	e3a01000 	mov	r1, #0
   12154:	e1a02005 	mov	r2, r5
   12158:	ebfffc60 	bl	112e0 <_init+0x1f8>
   1215c:	e1a00006 	mov	r0, r6
   12160:	e1a01004 	mov	r1, r4
   12164:	e1a02005 	mov	r2, r5
   12168:	ebfffdd7 	bl	118cc <__bodies_to_payload>
   1216c:	e3500000 	cmp	r0, #0
   12170:	1a000007 	bne	12194 <add_post_hash_bodies+0xb4>
   12174:	e58da028 	str	sl, [sp, #40]	; 0x28
   12178:	e1a00009 	mov	r0, r9
   1217c:	e1a01008 	mov	r1, r8
   12180:	e1a02007 	mov	r2, r7
   12184:	e1a03006 	mov	r3, r6
   12188:	e28dd004 	add	sp, sp, #4
   1218c:	e8bd4ff0 	pop	{r4, r5, r6, r7, r8, r9, sl, fp, lr}
   12190:	eaffff46 	b	11eb0 <add_post>
   12194:	e3e00000 	mvn	r0, #0
   12198:	e28dd004 	add	sp, sp, #4
   1219c:	e8bd8ff0 	pop	{r4, r5, r6, r7, r8, r9, sl, fp, pc}
   121a0:	00005df8 	strdeq	r5, [r0], -r8

000121a4 <add_post_hash_bodies_dy>:
   121a4:	e92d4ff1 	push	{r0, r4, r5, r6, r7, r8, r9, sl, fp, lr}
   121a8:	e1a09000 	mov	r9, r0
   121ac:	e1a08001 	mov	r8, r1
   121b0:	e1a07002 	mov	r7, r2
   121b4:	e1a06003 	mov	r6, r3
   121b8:	e59da028 	ldr	sl, [sp, #40]	; 0x28
   121bc:	e5934000 	ldr	r4, [r3]
   121c0:	e3a05000 	mov	r5, #0
   121c4:	e1540006 	cmp	r4, r6
   121c8:	0a000009 	beq	121f4 <add_post_hash_bodies_dy+0x50>
   121cc:	e5940008 	ldr	r0, [r4, #8]
   121d0:	eb00065e 	bl	13b50 <sizeof_x_www_format>
   121d4:	e2855001 	add	r5, r5, #1
   121d8:	e1a0b000 	mov	fp, r0
   121dc:	e594000c 	ldr	r0, [r4, #12]
   121e0:	eb00065a 	bl	13b50 <sizeof_x_www_format>
   121e4:	e085500b 	add	r5, r5, fp
   121e8:	e5944000 	ldr	r4, [r4]
   121ec:	e0855000 	add	r5, r5, r0
   121f0:	eafffff3 	b	121c4 <add_post_hash_bodies_dy+0x20>
   121f4:	e1a00005 	mov	r0, r5
   121f8:	ebfffbed 	bl	111b4 <_init+0xcc>
   121fc:	e2506000 	subs	r6, r0, #0
   12200:	1a000003 	bne	12214 <add_post_hash_bodies_dy+0x70>
   12204:	e59f0058 	ldr	r0, [pc, #88]	; 12264 <add_post_hash_bodies_dy+0xc0>
   12208:	e08f0000 	add	r0, pc, r0
   1220c:	ebfffc78 	bl	113f4 <_init+0x30c>
   12210:	ea000010 	b	12258 <add_post_hash_bodies_dy+0xb4>
   12214:	e3a01000 	mov	r1, #0
   12218:	e1a02005 	mov	r2, r5
   1221c:	ebfffc2f 	bl	112e0 <_init+0x1f8>
   12220:	e1a00006 	mov	r0, r6
   12224:	e1a01004 	mov	r1, r4
   12228:	e1a02005 	mov	r2, r5
   1222c:	ebfffda6 	bl	118cc <__bodies_to_payload>
   12230:	e3500000 	cmp	r0, #0
   12234:	1a000007 	bne	12258 <add_post_hash_bodies_dy+0xb4>
   12238:	e58da028 	str	sl, [sp, #40]	; 0x28
   1223c:	e1a00009 	mov	r0, r9
   12240:	e1a01008 	mov	r1, r8
   12244:	e1a02007 	mov	r2, r7
   12248:	e1a03006 	mov	r3, r6
   1224c:	e28dd004 	add	sp, sp, #4
   12250:	e8bd4ff0 	pop	{r4, r5, r6, r7, r8, r9, sl, fp, lr}
   12254:	eaffff67 	b	11ff8 <add_post_dynamic>
   12258:	e3e00000 	mvn	r0, #0
   1225c:	e28dd004 	add	sp, sp, #4
   12260:	e8bd8ff0 	pop	{r4, r5, r6, r7, r8, r9, sl, fp, pc}
   12264:	00005d34 	andeq	r5, r0, r4, lsr sp

00012268 <init_http>:
   12268:	e92d40f8 	push	{r3, r4, r5, r6, r7, lr}
   1226c:	e1a07000 	mov	r7, r0
   12270:	e3000424 	movw	r0, #1060	; 0x424
   12274:	e1a04003 	mov	r4, r3
   12278:	e1a06001 	mov	r6, r1
   1227c:	e1a05002 	mov	r5, r2
   12280:	ebfffbcb 	bl	111b4 <_init+0xcc>
   12284:	e59f3054 	ldr	r3, [pc, #84]	; 122e0 <init_http+0x78>
   12288:	e3500000 	cmp	r0, #0
   1228c:	e08f3003 	add	r3, pc, r3
   12290:	e1a0c000 	mov	ip, r0
   12294:	e5830000 	str	r0, [r3]
   12298:	1a000007 	bne	122bc <init_http+0x54>
   1229c:	e59f0040 	ldr	r0, [pc, #64]	; 122e4 <init_http+0x7c>
   122a0:	e59f1040 	ldr	r1, [pc, #64]	; 122e8 <init_http+0x80>
   122a4:	e3002107 	movw	r2, #263	; 0x107
   122a8:	e08f1001 	add	r1, pc, r1
   122ac:	e08f0000 	add	r0, pc, r0
   122b0:	ebfffc46 	bl	113d0 <_init+0x2e8>
   122b4:	e3e00000 	mvn	r0, #0
   122b8:	e8bd80f8 	pop	{r3, r4, r5, r6, r7, pc}
   122bc:	e5807004 	str	r7, [r0, #4]
   122c0:	e580640c 	str	r6, [r0, #1036]	; 0x40c
   122c4:	e5805410 	str	r5, [r0, #1040]	; 0x410
   122c8:	e59d3018 	ldr	r3, [sp, #24]
   122cc:	e3a00000 	mov	r0, #0
   122d0:	e58c441c 	str	r4, [ip, #1052]	; 0x41c
   122d4:	e58c0414 	str	r0, [ip, #1044]	; 0x414
   122d8:	e58c3420 	str	r3, [ip, #1056]	; 0x420
   122dc:	e8bd80f8 	pop	{r3, r4, r5, r6, r7, pc}
   122e0:	000174cc 	andeq	r7, r1, ip, asr #9
   122e4:	00005c96 	muleq	r0, r6, ip
   122e8:	00005a28 	andeq	r5, r0, r8, lsr #20

000122ec <halo_http_start>:
   122ec:	e59f3014 	ldr	r3, [pc, #20]	; 12308 <halo_http_start+0x1c>
   122f0:	e59f2014 	ldr	r2, [pc, #20]	; 1230c <halo_http_start+0x20>
   122f4:	e3a01000 	mov	r1, #0
   122f8:	e79f0003 	ldr	r0, [pc, r3]
   122fc:	e08f2002 	add	r2, pc, r2
   12300:	e1a03001 	mov	r3, r1
   12304:	eafffbdd 	b	11280 <_init+0x198>
   12308:	00017460 	andeq	r7, r1, r0, ror #8
   1230c:	fffff634 			; <UNDEFINED> instruction: 0xfffff634

00012310 <halo_http_result>:
   12310:	e59f3020 	ldr	r3, [pc, #32]	; 12338 <halo_http_result+0x28>
   12314:	e92d4007 	push	{r0, r1, r2, lr}
   12318:	e28d1004 	add	r1, sp, #4
   1231c:	e08f3003 	add	r3, pc, r3
   12320:	e5933000 	ldr	r3, [r3]
   12324:	e5930000 	ldr	r0, [r3]
   12328:	ebfffc40 	bl	11430 <_init+0x348>
   1232c:	e59d0004 	ldr	r0, [sp, #4]
   12330:	e28dd00c 	add	sp, sp, #12
   12334:	e49df004 	pop	{pc}		; (ldr pc, [sp], #4)
   12338:	0001743c 	andeq	r7, r1, ip, lsr r4

0001233c <deinit_http>:
   1233c:	e92d4ff8 	push	{r3, r4, r5, r6, r7, r8, r9, sl, fp, lr}
   12340:	e59f91e4 	ldr	r9, [pc, #484]	; 1252c <deinit_http+0x1f0>
   12344:	e59f01e4 	ldr	r0, [pc, #484]	; 12530 <deinit_http+0x1f4>
   12348:	e59f11e4 	ldr	r1, [pc, #484]	; 12534 <deinit_http+0x1f8>
   1234c:	e08f9009 	add	r9, pc, r9
   12350:	e08f0000 	add	r0, pc, r0
   12354:	e08f1001 	add	r1, pc, r1
   12358:	e3a02f62 	mov	r2, #392	; 0x188
   1235c:	ebfffc1b 	bl	113d0 <_init+0x2e8>
   12360:	e5993000 	ldr	r3, [r9]
   12364:	e3530000 	cmp	r3, #0
   12368:	0a00006d 	beq	12524 <deinit_http+0x1e8>
   1236c:	e5933004 	ldr	r3, [r3, #4]
   12370:	e3530000 	cmp	r3, #0
   12374:	0a00005e 	beq	124f4 <deinit_http+0x1b8>
   12378:	e5934000 	ldr	r4, [r3]
   1237c:	e59fa1b4 	ldr	sl, [pc, #436]	; 12538 <deinit_http+0x1fc>
   12380:	e5947000 	ldr	r7, [r4]
   12384:	e08fa00a 	add	sl, pc, sl
   12388:	e5993000 	ldr	r3, [r9]
   1238c:	e5932004 	ldr	r2, [r3, #4]
   12390:	e1540002 	cmp	r4, r2
   12394:	0a000052 	beq	124e4 <deinit_http+0x1a8>
   12398:	e5943008 	ldr	r3, [r4, #8]
   1239c:	e3530000 	cmp	r3, #0
   123a0:	0a000009 	beq	123cc <deinit_http+0x90>
   123a4:	e59f0190 	ldr	r0, [pc, #400]	; 1253c <deinit_http+0x200>
   123a8:	e59f1190 	ldr	r1, [pc, #400]	; 12540 <deinit_http+0x204>
   123ac:	e3a02e19 	mov	r2, #400	; 0x190
   123b0:	e08f1001 	add	r1, pc, r1
   123b4:	e08f0000 	add	r0, pc, r0
   123b8:	ebfffc04 	bl	113d0 <_init+0x2e8>
   123bc:	e5940008 	ldr	r0, [r4, #8]
   123c0:	ebfffbf6 	bl	113a0 <_init+0x2b8>
   123c4:	e3a03000 	mov	r3, #0
   123c8:	e5843008 	str	r3, [r4, #8]
   123cc:	e594300c 	ldr	r3, [r4, #12]
   123d0:	e3530000 	cmp	r3, #0
   123d4:	1a000006 	bne	123f4 <deinit_http+0xb8>
   123d8:	e5940010 	ldr	r0, [r4, #16]
   123dc:	e3500000 	cmp	r0, #0
   123e0:	0a00002c 	beq	12498 <deinit_http+0x15c>
   123e4:	ebfffbed 	bl	113a0 <_init+0x2b8>
   123e8:	e3a03000 	mov	r3, #0
   123ec:	e5843010 	str	r3, [r4, #16]
   123f0:	ea000028 	b	12498 <deinit_http+0x15c>
   123f4:	e59f0148 	ldr	r0, [pc, #328]	; 12544 <deinit_http+0x208>
   123f8:	e59f1148 	ldr	r1, [pc, #328]	; 12548 <deinit_http+0x20c>
   123fc:	e08f0000 	add	r0, pc, r0
   12400:	e08f1001 	add	r1, pc, r1
   12404:	e3a02f66 	mov	r2, #408	; 0x198
   12408:	ebfffbf0 	bl	113d0 <_init+0x2e8>
   1240c:	e594300c 	ldr	r3, [r4, #12]
   12410:	e59fb134 	ldr	fp, [pc, #308]	; 1254c <deinit_http+0x210>
   12414:	e5935000 	ldr	r5, [r3]
   12418:	e3a06000 	mov	r6, #0
   1241c:	e5958000 	ldr	r8, [r5]
   12420:	e08fb00b 	add	fp, pc, fp
   12424:	e594300c 	ldr	r3, [r4, #12]
   12428:	e1550003 	cmp	r5, r3
   1242c:	0affffe9 	beq	123d8 <deinit_http+0x9c>
   12430:	e5950008 	ldr	r0, [r5, #8]
   12434:	e3500000 	cmp	r0, #0
   12438:	0a000001 	beq	12444 <deinit_http+0x108>
   1243c:	ebfffbd7 	bl	113a0 <_init+0x2b8>
   12440:	e5856008 	str	r6, [r5, #8]
   12444:	e595000c 	ldr	r0, [r5, #12]
   12448:	e3500000 	cmp	r0, #0
   1244c:	0a000001 	beq	12458 <deinit_http+0x11c>
   12450:	ebfffbd2 	bl	113a0 <_init+0x2b8>
   12454:	e585600c 	str	r6, [r5, #12]
   12458:	e5953000 	ldr	r3, [r5]
   1245c:	e5952004 	ldr	r2, [r5, #4]
   12460:	e1a00005 	mov	r0, r5
   12464:	e5832004 	str	r2, [r3, #4]
   12468:	e895000c 	ldm	r5, {r2, r3}
   1246c:	e5832000 	str	r2, [r3]
   12470:	e5856004 	str	r6, [r5, #4]
   12474:	e5856000 	str	r6, [r5]
   12478:	ebfffbc8 	bl	113a0 <_init+0x2b8>
   1247c:	e1a0000a 	mov	r0, sl
   12480:	e1a0100b 	mov	r1, fp
   12484:	e30021a6 	movw	r2, #422	; 0x1a6
   12488:	ebfffbd0 	bl	113d0 <_init+0x2e8>
   1248c:	e1a05008 	mov	r5, r8
   12490:	e5988000 	ldr	r8, [r8]
   12494:	eaffffe2 	b	12424 <deinit_http+0xe8>
   12498:	e5943000 	ldr	r3, [r4]
   1249c:	e5942004 	ldr	r2, [r4, #4]
   124a0:	e1a00004 	mov	r0, r4
   124a4:	e5832004 	str	r2, [r3, #4]
   124a8:	e894000c 	ldm	r4, {r2, r3}
   124ac:	e5832000 	str	r2, [r3]
   124b0:	e3a03000 	mov	r3, #0
   124b4:	e5843004 	str	r3, [r4, #4]
   124b8:	e5843000 	str	r3, [r4]
   124bc:	ebfffbb7 	bl	113a0 <_init+0x2b8>
   124c0:	e59f0088 	ldr	r0, [pc, #136]	; 12550 <deinit_http+0x214>
   124c4:	e59f1088 	ldr	r1, [pc, #136]	; 12554 <deinit_http+0x218>
   124c8:	e08f0000 	add	r0, pc, r0
   124cc:	e08f1001 	add	r1, pc, r1
   124d0:	e30021b6 	movw	r2, #438	; 0x1b6
   124d4:	ebfffbbd 	bl	113d0 <_init+0x2e8>
   124d8:	e1a04007 	mov	r4, r7
   124dc:	e5977000 	ldr	r7, [r7]
   124e0:	eaffffa8 	b	12388 <deinit_http+0x4c>
   124e4:	e5930414 	ldr	r0, [r3, #1044]	; 0x414
   124e8:	e3500000 	cmp	r0, #0
   124ec:	0a000000 	beq	124f4 <deinit_http+0x1b8>
   124f0:	ebfffb2c 	bl	111a8 <_init+0xc0>
   124f4:	e59f405c 	ldr	r4, [pc, #92]	; 12558 <deinit_http+0x21c>
   124f8:	e08f4004 	add	r4, pc, r4
   124fc:	e5940000 	ldr	r0, [r4]
   12500:	ebfffba6 	bl	113a0 <_init+0x2b8>
   12504:	e59f0050 	ldr	r0, [pc, #80]	; 1255c <deinit_http+0x220>
   12508:	e59f1050 	ldr	r1, [pc, #80]	; 12560 <deinit_http+0x224>
   1250c:	e3a03000 	mov	r3, #0
   12510:	e08f0000 	add	r0, pc, r0
   12514:	e08f1001 	add	r1, pc, r1
   12518:	e30021be 	movw	r2, #446	; 0x1be
   1251c:	e5843000 	str	r3, [r4]
   12520:	ebfffbaa 	bl	113d0 <_init+0x2e8>
   12524:	e3a00000 	mov	r0, #0
   12528:	e8bd8ff8 	pop	{r3, r4, r5, r6, r7, r8, r9, sl, fp, pc}
   1252c:	0001740c 	andeq	r7, r1, ip, lsl #8
   12530:	00005c2b 	andeq	r5, r0, fp, lsr #24
   12534:	0000597c 	andeq	r5, r0, ip, ror r9
   12538:	00005c7e 	andeq	r5, r0, lr, ror ip
   1253c:	00005bf2 	strdeq	r5, [r0], -r2
   12540:	00005920 	andeq	r5, r0, r0, lsr #18
   12544:	00005bd5 	ldrdeq	r5, [r0], -r5	; <UNPREDICTABLE>
   12548:	000058d0 	ldrdeq	r5, [r0], -r0
   1254c:	000058b0 			; <UNDEFINED> instruction: 0x000058b0
   12550:	00005b6b 	andeq	r5, r0, fp, ror #22
   12554:	00005804 	andeq	r5, r0, r4, lsl #16
   12558:	00017260 	andeq	r7, r1, r0, ror #4
   1255c:	00005b58 	andeq	r5, r0, r8, asr fp
   12560:	000057bc 			; <UNDEFINED> instruction: 0x000057bc

00012564 <list_del>:
   12564:	e5903000 	ldr	r3, [r0]
   12568:	e5902004 	ldr	r2, [r0, #4]
   1256c:	e5832004 	str	r2, [r3, #4]
   12570:	e890000c 	ldm	r0, {r2, r3}
   12574:	e5832000 	str	r2, [r3]
   12578:	e3a03000 	mov	r3, #0
   1257c:	e5803004 	str	r3, [r0, #4]
   12580:	e5803000 	str	r3, [r0]
   12584:	e12fff1e 	bx	lr

00012588 <halo_init_add>:
   12588:	e59f30e4 	ldr	r3, [pc, #228]	; 12674 <halo_init_add+0xec>
   1258c:	e92d4070 	push	{r4, r5, r6, lr}
   12590:	e79f5003 	ldr	r5, [pc, r3]
   12594:	e3550000 	cmp	r5, #0
   12598:	1a000005 	bne	125b4 <halo_init_add+0x2c>
   1259c:	e59f00d4 	ldr	r0, [pc, #212]	; 12678 <halo_init_add+0xf0>
   125a0:	e59f10d4 	ldr	r1, [pc, #212]	; 1267c <halo_init_add+0xf4>
   125a4:	e08f0000 	add	r0, pc, r0
   125a8:	e08f1001 	add	r1, pc, r1
   125ac:	e3a02039 	mov	r2, #57	; 0x39
   125b0:	ea000017 	b	12614 <halo_init_add+0x8c>
   125b4:	e1a04000 	mov	r4, r0
   125b8:	e3a00010 	mov	r0, #16
   125bc:	e1a06001 	mov	r6, r1
   125c0:	ebfffafb 	bl	111b4 <_init+0xcc>
   125c4:	e2502000 	subs	r2, r0, #0
   125c8:	1a000005 	bne	125e4 <halo_init_add+0x5c>
   125cc:	e59f00ac 	ldr	r0, [pc, #172]	; 12680 <halo_init_add+0xf8>
   125d0:	e59f10ac 	ldr	r1, [pc, #172]	; 12684 <halo_init_add+0xfc>
   125d4:	e08f0000 	add	r0, pc, r0
   125d8:	e08f1001 	add	r1, pc, r1
   125dc:	e3a0203e 	mov	r2, #62	; 0x3e
   125e0:	ea00000b 	b	12614 <halo_init_add+0x8c>
   125e4:	e5824008 	str	r4, [r2, #8]
   125e8:	e582600c 	str	r6, [r2, #12]
   125ec:	e3540000 	cmp	r4, #0
   125f0:	e595000c 	ldr	r0, [r5, #12]
   125f4:	15903000 	ldrne	r3, [r0]
   125f8:	15931000 	ldrne	r1, [r3]
   125fc:	1a000009 	bne	12628 <halo_init_add+0xa0>
   12600:	e59f0080 	ldr	r0, [pc, #128]	; 12688 <halo_init_add+0x100>
   12604:	e59f1080 	ldr	r1, [pc, #128]	; 1268c <halo_init_add+0x104>
   12608:	e08f0000 	add	r0, pc, r0
   1260c:	e08f1001 	add	r1, pc, r1
   12610:	e3a02028 	mov	r2, #40	; 0x28
   12614:	ebfffb6d 	bl	113d0 <_init+0x2e8>
   12618:	e3e00000 	mvn	r0, #0
   1261c:	e8bd8070 	pop	{r4, r5, r6, pc}
   12620:	e1a03001 	mov	r3, r1
   12624:	e5911000 	ldr	r1, [r1]
   12628:	e1530000 	cmp	r3, r0
   1262c:	0a000009 	beq	12658 <halo_init_add+0xd0>
   12630:	e5933008 	ldr	r3, [r3, #8]
   12634:	e1530004 	cmp	r3, r4
   12638:	1afffff8 	bne	12620 <halo_init_add+0x98>
   1263c:	e59f004c 	ldr	r0, [pc, #76]	; 12690 <halo_init_add+0x108>
   12640:	e59f104c 	ldr	r1, [pc, #76]	; 12694 <halo_init_add+0x10c>
   12644:	e3a0202e 	mov	r2, #46	; 0x2e
   12648:	e08f1001 	add	r1, pc, r1
   1264c:	e08f0000 	add	r0, pc, r0
   12650:	ebfffb5e 	bl	113d0 <_init+0x2e8>
   12654:	ea000004 	b	1266c <halo_init_add+0xe4>
   12658:	e5931004 	ldr	r1, [r3, #4]
   1265c:	e5832004 	str	r2, [r3, #4]
   12660:	e5823000 	str	r3, [r2]
   12664:	e5821004 	str	r1, [r2, #4]
   12668:	e5812000 	str	r2, [r1]
   1266c:	e3a00000 	mov	r0, #0
   12670:	e8bd8070 	pop	{r4, r5, r6, pc}
   12674:	000171cc 	andeq	r7, r1, ip, asr #3
   12678:	00005af2 	strdeq	r5, [r0], -r2
   1267c:	00005b2a 	andeq	r5, r0, sl, lsr #22
   12680:	00005b07 	andeq	r5, r0, r7, lsl #22
   12684:	00005afa 	strdeq	r5, [r0], -sl
   12688:	00005b01 	andeq	r5, r0, r1, lsl #22
   1268c:	00005ac6 	andeq	r5, r0, r6, asr #21
   12690:	00005aef 	andeq	r5, r0, pc, ror #21
   12694:	00005a8a 	andeq	r5, r0, sl, lsl #21

00012698 <halo_send_add>:
   12698:	e59f3108 	ldr	r3, [pc, #264]	; 127a8 <halo_send_add+0x110>
   1269c:	e92d41f0 	push	{r4, r5, r6, r7, r8, lr}
   126a0:	e79f7003 	ldr	r7, [pc, r3]
   126a4:	e3570000 	cmp	r7, #0
   126a8:	1a000005 	bne	126c4 <halo_send_add+0x2c>
   126ac:	e59f00f8 	ldr	r0, [pc, #248]	; 127ac <halo_send_add+0x114>
   126b0:	e59f10f8 	ldr	r1, [pc, #248]	; 127b0 <halo_send_add+0x118>
   126b4:	e08f0000 	add	r0, pc, r0
   126b8:	e08f1001 	add	r1, pc, r1
   126bc:	e3a0205b 	mov	r2, #91	; 0x5b
   126c0:	ea00000b 	b	126f4 <halo_send_add+0x5c>
   126c4:	e1a05000 	mov	r5, r0
   126c8:	e3a00024 	mov	r0, #36	; 0x24
   126cc:	e1a06001 	mov	r6, r1
   126d0:	e1a08002 	mov	r8, r2
   126d4:	ebfffab6 	bl	111b4 <_init+0xcc>
   126d8:	e2504000 	subs	r4, r0, #0
   126dc:	1a000006 	bne	126fc <halo_send_add+0x64>
   126e0:	e59f00cc 	ldr	r0, [pc, #204]	; 127b4 <halo_send_add+0x11c>
   126e4:	e59f10cc 	ldr	r1, [pc, #204]	; 127b8 <halo_send_add+0x120>
   126e8:	e08f0000 	add	r0, pc, r0
   126ec:	e08f1001 	add	r1, pc, r1
   126f0:	e3a02060 	mov	r2, #96	; 0x60
   126f4:	ebfffb35 	bl	113d0 <_init+0x2e8>
   126f8:	ea000014 	b	12750 <halo_send_add+0xb8>
   126fc:	e5845008 	str	r5, [r4, #8]
   12700:	e584600c 	str	r6, [r4, #12]
   12704:	e1a00008 	mov	r0, r8
   12708:	ebfffaa9 	bl	111b4 <_init+0xcc>
   1270c:	e3550000 	cmp	r5, #0
   12710:	e5848014 	str	r8, [r4, #20]
   12714:	e5840010 	str	r0, [r4, #16]
   12718:	e584001c 	str	r0, [r4, #28]
   1271c:	e5973014 	ldr	r3, [r7, #20]
   12720:	ba000002 	blt	12730 <halo_send_add+0x98>
   12724:	e3560000 	cmp	r6, #0
   12728:	15932000 	ldrne	r2, [r3]
   1272c:	1a00000a 	bne	1275c <halo_send_add+0xc4>
   12730:	e59f0084 	ldr	r0, [pc, #132]	; 127bc <halo_send_add+0x124>
   12734:	e59f1084 	ldr	r1, [pc, #132]	; 127c0 <halo_send_add+0x128>
   12738:	e08f0000 	add	r0, pc, r0
   1273c:	e08f1001 	add	r1, pc, r1
   12740:	e3a0204b 	mov	r2, #75	; 0x4b
   12744:	ebfffb21 	bl	113d0 <_init+0x2e8>
   12748:	e1a00004 	mov	r0, r4
   1274c:	ebfffb13 	bl	113a0 <_init+0x2b8>
   12750:	e3e00000 	mvn	r0, #0
   12754:	e8bd81f0 	pop	{r4, r5, r6, r7, r8, pc}
   12758:	e5922000 	ldr	r2, [r2]
   1275c:	e1520003 	cmp	r2, r3
   12760:	0a00000a 	beq	12790 <halo_send_add+0xf8>
   12764:	e5921008 	ldr	r1, [r2, #8]
   12768:	e1550001 	cmp	r5, r1
   1276c:	1afffff9 	bne	12758 <halo_send_add+0xc0>
   12770:	e59f004c 	ldr	r0, [pc, #76]	; 127c4 <halo_send_add+0x12c>
   12774:	e59f104c 	ldr	r1, [pc, #76]	; 127c8 <halo_send_add+0x130>
   12778:	e3a02050 	mov	r2, #80	; 0x50
   1277c:	e08f1001 	add	r1, pc, r1
   12780:	e1a03005 	mov	r3, r5
   12784:	e08f0000 	add	r0, pc, r0
   12788:	ebfffb10 	bl	113d0 <_init+0x2e8>
   1278c:	ea000003 	b	127a0 <halo_send_add+0x108>
   12790:	e5923004 	ldr	r3, [r2, #4]
   12794:	e5824004 	str	r4, [r2, #4]
   12798:	e884000c 	stm	r4, {r2, r3}
   1279c:	e5834000 	str	r4, [r3]
   127a0:	e3a00000 	mov	r0, #0
   127a4:	e8bd81f0 	pop	{r4, r5, r6, r7, r8, pc}
   127a8:	000170bc 	strheq	r7, [r1], -ip
   127ac:	00005ac6 	andeq	r5, r0, r6, asr #21
   127b0:	00005a1a 	andeq	r5, r0, sl, lsl sl
   127b4:	00005acf 	andeq	r5, r0, pc, asr #21
   127b8:	000059e6 	andeq	r5, r0, r6, ror #19
   127bc:	00005aab 	andeq	r5, r0, fp, lsr #21
   127c0:	00005996 	muleq	r0, r6, r9
   127c4:	00005a90 	muleq	r0, r0, sl
   127c8:	00005956 	andeq	r5, r0, r6, asr r9

000127cc <halo_send_del>:
   127cc:	e92d4038 	push	{r3, r4, r5, lr}
   127d0:	e2504000 	subs	r4, r0, #0
   127d4:	1a000007 	bne	127f8 <halo_send_del+0x2c>
   127d8:	e59f0090 	ldr	r0, [pc, #144]	; 12870 <halo_send_del+0xa4>
   127dc:	e59f1090 	ldr	r1, [pc, #144]	; 12874 <halo_send_del+0xa8>
   127e0:	e3a02078 	mov	r2, #120	; 0x78
   127e4:	e08f1001 	add	r1, pc, r1
   127e8:	e08f0000 	add	r0, pc, r0
   127ec:	ebfffaf7 	bl	113d0 <_init+0x2e8>
   127f0:	e3e00000 	mvn	r0, #0
   127f4:	e8bd8038 	pop	{r3, r4, r5, pc}
   127f8:	e59f0078 	ldr	r0, [pc, #120]	; 12878 <halo_send_del+0xac>
   127fc:	e59f1078 	ldr	r1, [pc, #120]	; 1287c <halo_send_del+0xb0>
   12800:	e08f0000 	add	r0, pc, r0
   12804:	e08f1001 	add	r1, pc, r1
   12808:	e3a0207b 	mov	r2, #123	; 0x7b
   1280c:	ebfffaef 	bl	113d0 <_init+0x2e8>
   12810:	e5940010 	ldr	r0, [r4, #16]
   12814:	e3500000 	cmp	r0, #0
   12818:	0a000002 	beq	12828 <halo_send_del+0x5c>
   1281c:	ebfffadf 	bl	113a0 <_init+0x2b8>
   12820:	e3a03000 	mov	r3, #0
   12824:	e5843010 	str	r3, [r4, #16]
   12828:	e59f5050 	ldr	r5, [pc, #80]	; 12880 <halo_send_del+0xb4>
   1282c:	e59f0050 	ldr	r0, [pc, #80]	; 12884 <halo_send_del+0xb8>
   12830:	e08f5005 	add	r5, pc, r5
   12834:	e1a01005 	mov	r1, r5
   12838:	e3a02082 	mov	r2, #130	; 0x82
   1283c:	e08f0000 	add	r0, pc, r0
   12840:	ebfffae2 	bl	113d0 <_init+0x2e8>
   12844:	e1a00004 	mov	r0, r4
   12848:	ebffff45 	bl	12564 <list_del>
   1284c:	e1a00004 	mov	r0, r4
   12850:	ebfffad2 	bl	113a0 <_init+0x2b8>
   12854:	e59f002c 	ldr	r0, [pc, #44]	; 12888 <halo_send_del+0xbc>
   12858:	e1a01005 	mov	r1, r5
   1285c:	e3a02086 	mov	r2, #134	; 0x86
   12860:	e08f0000 	add	r0, pc, r0
   12864:	ebfffad9 	bl	113d0 <_init+0x2e8>
   12868:	e3a00000 	mov	r0, #0
   1286c:	e8bd8038 	pop	{r3, r4, r5, pc}
   12870:	00005a5f 	andeq	r5, r0, pc, asr sl
   12874:	000058ee 	andeq	r5, r0, lr, ror #17
   12878:	00005a7d 	andeq	r5, r0, sp, ror sl
   1287c:	000058ce 	andeq	r5, r0, lr, asr #17
   12880:	000058a2 	andeq	r5, r0, r2, lsr #17
   12884:	00005a74 	andeq	r5, r0, r4, ror sl
   12888:	00005a79 	andeq	r5, r0, r9, ror sl

0001288c <halo_loop_add>:
   1288c:	e92d43f8 	push	{r3, r4, r5, r6, r7, r8, r9, lr}
   12890:	e1a09003 	mov	r9, r3
   12894:	e59f3108 	ldr	r3, [pc, #264]	; 129a4 <halo_loop_add+0x118>
   12898:	e79f7003 	ldr	r7, [pc, r3]
   1289c:	e3570000 	cmp	r7, #0
   128a0:	1a000005 	bne	128bc <halo_loop_add+0x30>
   128a4:	e59f00fc 	ldr	r0, [pc, #252]	; 129a8 <halo_loop_add+0x11c>
   128a8:	e59f10fc 	ldr	r1, [pc, #252]	; 129ac <halo_loop_add+0x120>
   128ac:	e08f0000 	add	r0, pc, r0
   128b0:	e08f1001 	add	r1, pc, r1
   128b4:	e3a020a2 	mov	r2, #162	; 0xa2
   128b8:	ea00000b 	b	128ec <halo_loop_add+0x60>
   128bc:	e1a05000 	mov	r5, r0
   128c0:	e3a00040 	mov	r0, #64	; 0x40
   128c4:	e1a06001 	mov	r6, r1
   128c8:	e1a08002 	mov	r8, r2
   128cc:	ebfffa38 	bl	111b4 <_init+0xcc>
   128d0:	e2504000 	subs	r4, r0, #0
   128d4:	1a000006 	bne	128f4 <halo_loop_add+0x68>
   128d8:	e59f00d0 	ldr	r0, [pc, #208]	; 129b0 <halo_loop_add+0x124>
   128dc:	e59f10d0 	ldr	r1, [pc, #208]	; 129b4 <halo_loop_add+0x128>
   128e0:	e08f0000 	add	r0, pc, r0
   128e4:	e08f1001 	add	r1, pc, r1
   128e8:	e3a020a7 	mov	r2, #167	; 0xa7
   128ec:	ebfffab7 	bl	113d0 <_init+0x2e8>
   128f0:	ea000015 	b	1294c <halo_loop_add+0xc0>
   128f4:	e5845008 	str	r5, [r4, #8]
   128f8:	e584600c 	str	r6, [r4, #12]
   128fc:	e584903c 	str	r9, [r4, #60]	; 0x3c
   12900:	e1a00008 	mov	r0, r8
   12904:	ebfffa2a 	bl	111b4 <_init+0xcc>
   12908:	e3550000 	cmp	r5, #0
   1290c:	e5848018 	str	r8, [r4, #24]
   12910:	e5840014 	str	r0, [r4, #20]
   12914:	e5840020 	str	r0, [r4, #32]
   12918:	e5973010 	ldr	r3, [r7, #16]
   1291c:	ba000002 	blt	1292c <halo_loop_add+0xa0>
   12920:	e3560000 	cmp	r6, #0
   12924:	15932000 	ldrne	r2, [r3]
   12928:	1a00000a 	bne	12958 <halo_loop_add+0xcc>
   1292c:	e59f0084 	ldr	r0, [pc, #132]	; 129b8 <halo_loop_add+0x12c>
   12930:	e59f1084 	ldr	r1, [pc, #132]	; 129bc <halo_loop_add+0x130>
   12934:	e08f0000 	add	r0, pc, r0
   12938:	e08f1001 	add	r1, pc, r1
   1293c:	e3a0208f 	mov	r2, #143	; 0x8f
   12940:	ebfffaa2 	bl	113d0 <_init+0x2e8>
   12944:	e1a00004 	mov	r0, r4
   12948:	ebfffa94 	bl	113a0 <_init+0x2b8>
   1294c:	e3e00000 	mvn	r0, #0
   12950:	e8bd83f8 	pop	{r3, r4, r5, r6, r7, r8, r9, pc}
   12954:	e5922000 	ldr	r2, [r2]
   12958:	e1520003 	cmp	r2, r3
   1295c:	0a00000a 	beq	1298c <halo_loop_add+0x100>
   12960:	e5921008 	ldr	r1, [r2, #8]
   12964:	e1550001 	cmp	r5, r1
   12968:	1afffff9 	bne	12954 <halo_loop_add+0xc8>
   1296c:	e59f004c 	ldr	r0, [pc, #76]	; 129c0 <halo_loop_add+0x134>
   12970:	e59f104c 	ldr	r1, [pc, #76]	; 129c4 <halo_loop_add+0x138>
   12974:	e3a02094 	mov	r2, #148	; 0x94
   12978:	e08f1001 	add	r1, pc, r1
   1297c:	e1a03005 	mov	r3, r5
   12980:	e08f0000 	add	r0, pc, r0
   12984:	ebfffa91 	bl	113d0 <_init+0x2e8>
   12988:	ea000003 	b	1299c <halo_loop_add+0x110>
   1298c:	e5923004 	ldr	r3, [r2, #4]
   12990:	e5824004 	str	r4, [r2, #4]
   12994:	e884000c 	stm	r4, {r2, r3}
   12998:	e5834000 	str	r4, [r3]
   1299c:	e3a00000 	mov	r0, #0
   129a0:	e8bd83f8 	pop	{r3, r4, r5, r6, r7, r8, r9, pc}
   129a4:	00016ec4 	andeq	r6, r1, r4, asr #29
   129a8:	000058ce 	andeq	r5, r0, lr, asr #17
   129ac:	00005822 	andeq	r5, r0, r2, lsr #16
   129b0:	000057fb 	strdeq	r5, [r0], -fp
   129b4:	000057ee 	andeq	r5, r0, lr, ror #15
   129b8:	000059d2 	ldrdeq	r5, [r0], -r2
   129bc:	0000579a 	muleq	r0, sl, r7
   129c0:	000059b8 			; <UNDEFINED> instruction: 0x000059b8
   129c4:	0000575a 	andeq	r5, r0, sl, asr r7

000129c8 <halo_loop_del>:
   129c8:	e92d4010 	push	{r4, lr}
   129cc:	e2504000 	subs	r4, r0, #0
   129d0:	1a000007 	bne	129f4 <halo_loop_del+0x2c>
   129d4:	e59f0064 	ldr	r0, [pc, #100]	; 12a40 <halo_loop_del+0x78>
   129d8:	e59f1064 	ldr	r1, [pc, #100]	; 12a44 <halo_loop_del+0x7c>
   129dc:	e3a020bf 	mov	r2, #191	; 0xbf
   129e0:	e08f1001 	add	r1, pc, r1
   129e4:	e08f0000 	add	r0, pc, r0
   129e8:	ebfffa78 	bl	113d0 <_init+0x2e8>
   129ec:	e3e00000 	mvn	r0, #0
   129f0:	e8bd8010 	pop	{r4, pc}
   129f4:	e5940008 	ldr	r0, [r4, #8]
   129f8:	e3500000 	cmp	r0, #0
   129fc:	ba000003 	blt	12a10 <halo_loop_del+0x48>
   12a00:	e594303c 	ldr	r3, [r4, #60]	; 0x3c
   12a04:	e3530000 	cmp	r3, #0
   12a08:	0a000000 	beq	12a10 <halo_loop_del+0x48>
   12a0c:	e12fff33 	blx	r3
   12a10:	e5940014 	ldr	r0, [r4, #20]
   12a14:	e3500000 	cmp	r0, #0
   12a18:	0a000002 	beq	12a28 <halo_loop_del+0x60>
   12a1c:	ebfffa5f 	bl	113a0 <_init+0x2b8>
   12a20:	e3a03000 	mov	r3, #0
   12a24:	e5843014 	str	r3, [r4, #20]
   12a28:	e1a00004 	mov	r0, r4
   12a2c:	ebfffecc 	bl	12564 <list_del>
   12a30:	e1a00004 	mov	r0, r4
   12a34:	ebfffa59 	bl	113a0 <_init+0x2b8>
   12a38:	e3a00000 	mov	r0, #0
   12a3c:	e8bd8010 	pop	{r4, pc}
   12a40:	00005863 	andeq	r5, r0, r3, ror #16
   12a44:	000056f2 	strdeq	r5, [r0], -r2

00012a48 <halo_common_del>:
   12a48:	e92d43f8 	push	{r3, r4, r5, r6, r7, r8, r9, lr}
   12a4c:	e59f30d4 	ldr	r3, [pc, #212]	; 12b28 <halo_common_del+0xe0>
   12a50:	e1a05000 	mov	r5, r0
   12a54:	e08f3003 	add	r3, pc, r3
   12a58:	e5933000 	ldr	r3, [r3]
   12a5c:	e5932010 	ldr	r2, [r3, #16]
   12a60:	e5924000 	ldr	r4, [r2]
   12a64:	e5943000 	ldr	r3, [r4]
   12a68:	e1540002 	cmp	r4, r2
   12a6c:	0a00000f 	beq	12ab0 <halo_common_del+0x68>
   12a70:	e5941008 	ldr	r1, [r4, #8]
   12a74:	e1510005 	cmp	r1, r5
   12a78:	1a000009 	bne	12aa4 <halo_common_del+0x5c>
   12a7c:	e59f00a8 	ldr	r0, [pc, #168]	; 12b2c <halo_common_del+0xe4>
   12a80:	e59f10a8 	ldr	r1, [pc, #168]	; 12b30 <halo_common_del+0xe8>
   12a84:	e3a020d6 	mov	r2, #214	; 0xd6
   12a88:	e08f1001 	add	r1, pc, r1
   12a8c:	e1a03005 	mov	r3, r5
   12a90:	e08f0000 	add	r0, pc, r0
   12a94:	ebfffa4d 	bl	113d0 <_init+0x2e8>
   12a98:	e1a00004 	mov	r0, r4
   12a9c:	ebffffc9 	bl	129c8 <halo_loop_del>
   12aa0:	ea000002 	b	12ab0 <halo_common_del+0x68>
   12aa4:	e1a04003 	mov	r4, r3
   12aa8:	e5933000 	ldr	r3, [r3]
   12aac:	eaffffed 	b	12a68 <halo_common_del+0x20>
   12ab0:	e59f307c 	ldr	r3, [pc, #124]	; 12b34 <halo_common_del+0xec>
   12ab4:	e59f807c 	ldr	r8, [pc, #124]	; 12b38 <halo_common_del+0xf0>
   12ab8:	e08f3003 	add	r3, pc, r3
   12abc:	e59f9078 	ldr	r9, [pc, #120]	; 12b3c <halo_common_del+0xf4>
   12ac0:	e5932000 	ldr	r2, [r3]
   12ac4:	e1a07003 	mov	r7, r3
   12ac8:	e5922014 	ldr	r2, [r2, #20]
   12acc:	e08f8008 	add	r8, pc, r8
   12ad0:	e5924000 	ldr	r4, [r2]
   12ad4:	e08f9009 	add	r9, pc, r9
   12ad8:	e5946000 	ldr	r6, [r4]
   12adc:	e5973000 	ldr	r3, [r7]
   12ae0:	e5933014 	ldr	r3, [r3, #20]
   12ae4:	e1540003 	cmp	r4, r3
   12ae8:	0a00000c 	beq	12b20 <halo_common_del+0xd8>
   12aec:	e5943008 	ldr	r3, [r4, #8]
   12af0:	e1530005 	cmp	r3, r5
   12af4:	1a000006 	bne	12b14 <halo_common_del+0xcc>
   12af8:	e1a00008 	mov	r0, r8
   12afc:	e1a01009 	mov	r1, r9
   12b00:	e3a020de 	mov	r2, #222	; 0xde
   12b04:	e1a03005 	mov	r3, r5
   12b08:	ebfffa30 	bl	113d0 <_init+0x2e8>
   12b0c:	e1a00004 	mov	r0, r4
   12b10:	ebffff2d 	bl	127cc <halo_send_del>
   12b14:	e1a04006 	mov	r4, r6
   12b18:	e5966000 	ldr	r6, [r6]
   12b1c:	eaffffee 	b	12adc <halo_common_del+0x94>
   12b20:	e3a00000 	mov	r0, #0
   12b24:	e8bd83f8 	pop	{r3, r4, r5, r6, r7, r8, r9, pc}
   12b28:	00016d08 	andeq	r6, r1, r8, lsl #26
   12b2c:	000058da 	ldrdeq	r5, [r0], -sl
   12b30:	0000564a 	andeq	r5, r0, sl, asr #12
   12b34:	00016ca4 	andeq	r6, r1, r4, lsr #25
   12b38:	000058dd 	ldrdeq	r5, [r0], -sp
   12b3c:	000055fe 	strdeq	r5, [r0], -lr

00012b40 <__common_proc>:
   12b40:	e92d4ff0 	push	{r4, r5, r6, r7, r8, r9, sl, fp, lr}
   12b44:	e59f7288 	ldr	r7, [pc, #648]	; 12dd4 <__common_proc+0x294>
   12b48:	e24dd094 	sub	sp, sp, #148	; 0x94
   12b4c:	e08f7007 	add	r7, pc, r7
   12b50:	ebfff9d3 	bl	112a4 <_init+0x1bc>
   12b54:	ebfffa23 	bl	113e8 <_init+0x300>
   12b58:	e5973000 	ldr	r3, [r7]
   12b5c:	e3530000 	cmp	r3, #0
   12b60:	13a04000 	movne	r4, #0
   12b64:	11a0a007 	movne	sl, r7
   12b68:	1a000007 	bne	12b8c <__common_proc+0x4c>
   12b6c:	e59f0264 	ldr	r0, [pc, #612]	; 12dd8 <__common_proc+0x298>
   12b70:	e59f1264 	ldr	r1, [pc, #612]	; 12ddc <__common_proc+0x29c>
   12b74:	e08f0000 	add	r0, pc, r0
   12b78:	e08f1001 	add	r1, pc, r1
   12b7c:	e3002173 	movw	r2, #371	; 0x173
   12b80:	ebfffa12 	bl	113d0 <_init+0x2e8>
   12b84:	e3e00000 	mvn	r0, #0
   12b88:	ebfff9e9 	bl	11334 <_init+0x24c>
   12b8c:	e5973000 	ldr	r3, [r7]
   12b90:	e593300c 	ldr	r3, [r3, #12]
   12b94:	e5935000 	ldr	r5, [r3]
   12b98:	e5956000 	ldr	r6, [r5]
   12b9c:	e59a3000 	ldr	r3, [sl]
   12ba0:	e593300c 	ldr	r3, [r3, #12]
   12ba4:	e1550003 	cmp	r5, r3
   12ba8:	0a00000a 	beq	12bd8 <__common_proc+0x98>
   12bac:	e5953008 	ldr	r3, [r5, #8]
   12bb0:	e595000c 	ldr	r0, [r5, #12]
   12bb4:	e12fff33 	blx	r3
   12bb8:	e2504000 	subs	r4, r0, #0
   12bbc:	0a000002 	beq	12bcc <__common_proc+0x8c>
   12bc0:	e3540002 	cmp	r4, #2
   12bc4:	0afffff8 	beq	12bac <__common_proc+0x6c>
   12bc8:	ea000002 	b	12bd8 <__common_proc+0x98>
   12bcc:	e1a05006 	mov	r5, r6
   12bd0:	e5966000 	ldr	r6, [r6]
   12bd4:	eafffff0 	b	12b9c <__common_proc+0x5c>
   12bd8:	e2443002 	sub	r3, r4, #2
   12bdc:	e3530001 	cmp	r3, #1
   12be0:	9affffe9 	bls	12b8c <__common_proc+0x4c>
   12be4:	e59fb1f4 	ldr	fp, [pc, #500]	; 12de0 <__common_proc+0x2a0>
   12be8:	e28d8010 	add	r8, sp, #16
   12bec:	e08fb00b 	add	fp, pc, fp
   12bf0:	e59b3000 	ldr	r3, [fp]
   12bf4:	e5939010 	ldr	r9, [r3, #16]
   12bf8:	e3a03000 	mov	r3, #0
   12bfc:	e1a02003 	mov	r2, r3
   12c00:	e7832008 	str	r2, [r3, r8]
   12c04:	e2833004 	add	r3, r3, #4
   12c08:	e3530080 	cmp	r3, #128	; 0x80
   12c0c:	1afffffb 	bne	12c00 <__common_proc+0xc0>
   12c10:	e5990000 	ldr	r0, [r9]
   12c14:	e3e05000 	mvn	r5, #0
   12c18:	e5906000 	ldr	r6, [r0]
   12c1c:	e1500009 	cmp	r0, r9
   12c20:	0a000014 	beq	12c78 <__common_proc+0x138>
   12c24:	e5903008 	ldr	r3, [r0, #8]
   12c28:	e3530000 	cmp	r3, #0
   12c2c:	ba000002 	blt	12c3c <__common_proc+0xfc>
   12c30:	e590200c 	ldr	r2, [r0, #12]
   12c34:	e3520000 	cmp	r2, #0
   12c38:	1a000001 	bne	12c44 <__common_proc+0x104>
   12c3c:	ebffff61 	bl	129c8 <halo_loop_del>
   12c40:	ea000009 	b	12c6c <__common_proc+0x12c>
   12c44:	e1a022a3 	lsr	r2, r3, #5
   12c48:	e28d0090 	add	r0, sp, #144	; 0x90
   12c4c:	e0802102 	add	r2, r0, r2, lsl #2
   12c50:	e1550003 	cmp	r5, r3
   12c54:	e5121080 	ldr	r1, [r2, #-128]	; 0x80
   12c58:	b1a05003 	movlt	r5, r3
   12c5c:	e3a0c001 	mov	ip, #1
   12c60:	e203301f 	and	r3, r3, #31
   12c64:	e181331c 	orr	r3, r1, ip, lsl r3
   12c68:	e5023080 	str	r3, [r2, #-128]	; 0x80
   12c6c:	e1a00006 	mov	r0, r6
   12c70:	e5966000 	ldr	r6, [r6]
   12c74:	eaffffe8 	b	12c1c <__common_proc+0xdc>
   12c78:	e59f6164 	ldr	r6, [pc, #356]	; 12de4 <__common_proc+0x2a4>
   12c7c:	e2850001 	add	r0, r5, #1
   12c80:	e08f6006 	add	r6, pc, r6
   12c84:	e1a01008 	mov	r1, r8
   12c88:	e5963000 	ldr	r3, [r6]
   12c8c:	e5932020 	ldr	r2, [r3, #32]
   12c90:	e5933024 	ldr	r3, [r3, #36]	; 0x24
   12c94:	e58d2008 	str	r2, [sp, #8]
   12c98:	e58d300c 	str	r3, [sp, #12]
   12c9c:	e28d3008 	add	r3, sp, #8
   12ca0:	e3a02000 	mov	r2, #0
   12ca4:	e58d3000 	str	r3, [sp]
   12ca8:	e1a03002 	mov	r3, r2
   12cac:	ebfff95e 	bl	1122c <_init+0x144>
   12cb0:	e2505000 	subs	r5, r0, #0
   12cb4:	da000030 	ble	12d7c <__common_proc+0x23c>
   12cb8:	e5963000 	ldr	r3, [r6]
   12cbc:	e5932010 	ldr	r2, [r3, #16]
   12cc0:	e5925000 	ldr	r5, [r2]
   12cc4:	e5953000 	ldr	r3, [r5]
   12cc8:	e1550002 	cmp	r5, r2
   12ccc:	0a000019 	beq	12d38 <__common_proc+0x1f8>
   12cd0:	e5951008 	ldr	r1, [r5, #8]
   12cd4:	e28dc090 	add	ip, sp, #144	; 0x90
   12cd8:	e1a002a1 	lsr	r0, r1, #5
   12cdc:	e201101f 	and	r1, r1, #31
   12ce0:	e08c0100 	add	r0, ip, r0, lsl #2
   12ce4:	e5100080 	ldr	r0, [r0, #-128]	; 0x80
   12ce8:	e1a01150 	asr	r1, r0, r1
   12cec:	e3110001 	tst	r1, #1
   12cf0:	01a05003 	moveq	r5, r3
   12cf4:	05933000 	ldreq	r3, [r3]
   12cf8:	0afffff2 	beq	12cc8 <__common_proc+0x188>
   12cfc:	e595300c 	ldr	r3, [r5, #12]
   12d00:	e1a00005 	mov	r0, r5
   12d04:	e12fff33 	blx	r3
   12d08:	e3500000 	cmp	r0, #0
   12d0c:	0a000010 	beq	12d54 <__common_proc+0x214>
   12d10:	e59f00d0 	ldr	r0, [pc, #208]	; 12de8 <__common_proc+0x2a8>
   12d14:	e59f10d0 	ldr	r1, [pc, #208]	; 12dec <__common_proc+0x2ac>
   12d18:	e30021a3 	movw	r2, #419	; 0x1a3
   12d1c:	e08f1001 	add	r1, pc, r1
   12d20:	e5953008 	ldr	r3, [r5, #8]
   12d24:	e08f0000 	add	r0, pc, r0
   12d28:	ebfff9a8 	bl	113d0 <_init+0x2e8>
   12d2c:	e5950008 	ldr	r0, [r5, #8]
   12d30:	ebffff44 	bl	12a48 <halo_common_del>
   12d34:	eaffffad 	b	12bf0 <__common_proc+0xb0>
   12d38:	e59f00b0 	ldr	r0, [pc, #176]	; 12df0 <__common_proc+0x2b0>
   12d3c:	e59f10b0 	ldr	r1, [pc, #176]	; 12df4 <__common_proc+0x2b4>
   12d40:	e300219f 	movw	r2, #415	; 0x19f
   12d44:	e08f1001 	add	r1, pc, r1
   12d48:	e08f0000 	add	r0, pc, r0
   12d4c:	ebfff99f 	bl	113d0 <_init+0x2e8>
   12d50:	eaffffa6 	b	12bf0 <__common_proc+0xb0>
   12d54:	e5953028 	ldr	r3, [r5, #40]	; 0x28
   12d58:	e59f0098 	ldr	r0, [pc, #152]	; 12df8 <__common_proc+0x2b8>
   12d5c:	e59f1098 	ldr	r1, [pc, #152]	; 12dfc <__common_proc+0x2bc>
   12d60:	e58d3000 	str	r3, [sp]
   12d64:	e08f1001 	add	r1, pc, r1
   12d68:	e30021a6 	movw	r2, #422	; 0x1a6
   12d6c:	e5953008 	ldr	r3, [r5, #8]
   12d70:	e08f0000 	add	r0, pc, r0
   12d74:	ebfff995 	bl	113d0 <_init+0x2e8>
   12d78:	eaffff9c 	b	12bf0 <__common_proc+0xb0>
   12d7c:	ebfff8eb 	bl	11130 <_init+0x48>
   12d80:	e5903000 	ldr	r3, [r0]
   12d84:	e3530004 	cmp	r3, #4
   12d88:	0affff98 	beq	12bf0 <__common_proc+0xb0>
   12d8c:	e3550000 	cmp	r5, #0
   12d90:	1a000004 	bne	12da8 <__common_proc+0x268>
   12d94:	e5963000 	ldr	r3, [r6]
   12d98:	e593301c 	ldr	r3, [r3, #28]
   12d9c:	e12fff33 	blx	r3
   12da0:	e2504000 	subs	r4, r0, #0
   12da4:	0affff91 	beq	12bf0 <__common_proc+0xb0>
   12da8:	e3540003 	cmp	r4, #3
   12dac:	0affff76 	beq	12b8c <__common_proc+0x4c>
   12db0:	e59f0048 	ldr	r0, [pc, #72]	; 12e00 <__common_proc+0x2c0>
   12db4:	e59f1048 	ldr	r1, [pc, #72]	; 12e04 <__common_proc+0x2c4>
   12db8:	e30021ba 	movw	r2, #442	; 0x1ba
   12dbc:	e08f1001 	add	r1, pc, r1
   12dc0:	e1a03004 	mov	r3, r4
   12dc4:	e08f0000 	add	r0, pc, r0
   12dc8:	ebfff980 	bl	113d0 <_init+0x2e8>
   12dcc:	e28dd094 	add	sp, sp, #148	; 0x94
   12dd0:	e8bd8ff0 	pop	{r4, r5, r6, r7, r8, r9, sl, fp, pc}
   12dd4:	00016c10 	andeq	r6, r1, r0, lsl ip
   12dd8:	00005867 	andeq	r5, r0, r7, ror #16
   12ddc:	0000555a 	andeq	r5, r0, sl, asr r5
   12de0:	00016b70 	andeq	r6, r1, r0, ror fp
   12de4:	00016adc 	ldrdeq	r6, [r1], -ip
   12de8:	0000572d 	andeq	r5, r0, sp, lsr #14
   12dec:	000053b6 			; <UNDEFINED> instruction: 0x000053b6
   12df0:	000056d0 	ldrdeq	r5, [r0], -r0
   12df4:	0000538e 	andeq	r5, r0, lr, lsl #7
   12df8:	00005709 	andeq	r5, r0, r9, lsl #14
   12dfc:	0000536e 	andeq	r5, r0, lr, ror #6
   12e00:	000056e4 	andeq	r5, r0, r4, ror #13
   12e04:	00005316 	andeq	r5, r0, r6, lsl r3

00012e08 <halo_common_send>:
   12e08:	e24dd010 	sub	sp, sp, #16
   12e0c:	e92d40f8 	push	{r3, r4, r5, r6, r7, lr}
   12e10:	e28d5018 	add	r5, sp, #24
   12e14:	e885000f 	stm	r5, {r0, r1, r2, r3}
   12e18:	e59f30a4 	ldr	r3, [pc, #164]	; 12ec4 <halo_common_send+0xbc>
   12e1c:	e08f3003 	add	r3, pc, r3
   12e20:	e5932000 	ldr	r2, [r3]
   12e24:	e3520000 	cmp	r2, #0
   12e28:	0a000005 	beq	12e44 <halo_common_send+0x3c>
   12e2c:	e5922014 	ldr	r2, [r2, #20]
   12e30:	e3520000 	cmp	r2, #0
   12e34:	11a07003 	movne	r7, r3
   12e38:	15924000 	ldrne	r4, [r2]
   12e3c:	15946000 	ldrne	r6, [r4]
   12e40:	1a00000c 	bne	12e78 <halo_common_send+0x70>
   12e44:	e59f007c 	ldr	r0, [pc, #124]	; 12ec8 <halo_common_send+0xc0>
   12e48:	e59f107c 	ldr	r1, [pc, #124]	; 12ecc <halo_common_send+0xc4>
   12e4c:	e08f0000 	add	r0, pc, r0
   12e50:	e08f1001 	add	r1, pc, r1
   12e54:	e3a020e9 	mov	r2, #233	; 0xe9
   12e58:	ebfff95c 	bl	113d0 <_init+0x2e8>
   12e5c:	e3e00000 	mvn	r0, #0
   12e60:	ea000014 	b	12eb8 <halo_common_send+0xb0>
   12e64:	e5940008 	ldr	r0, [r4, #8]
   12e68:	e3500000 	cmp	r0, #0
   12e6c:	aa000006 	bge	12e8c <halo_common_send+0x84>
   12e70:	e1a04006 	mov	r4, r6
   12e74:	e5966000 	ldr	r6, [r6]
   12e78:	e5973000 	ldr	r3, [r7]
   12e7c:	e5933014 	ldr	r3, [r3, #20]
   12e80:	e1540003 	cmp	r4, r3
   12e84:	1afffff6 	bne	12e64 <halo_common_send+0x5c>
   12e88:	ea000009 	b	12eb4 <halo_common_send+0xac>
   12e8c:	e594300c 	ldr	r3, [r4, #12]
   12e90:	e3530000 	cmp	r3, #0
   12e94:	0afffff5 	beq	12e70 <halo_common_send+0x68>
   12e98:	e1a01005 	mov	r1, r5
   12e9c:	e12fff33 	blx	r3
   12ea0:	e3500001 	cmp	r0, #1
   12ea4:	1afffff1 	bne	12e70 <halo_common_send+0x68>
   12ea8:	e5940008 	ldr	r0, [r4, #8]
   12eac:	ebfffee5 	bl	12a48 <halo_common_del>
   12eb0:	eaffffee 	b	12e70 <halo_common_send+0x68>
   12eb4:	e3a00000 	mov	r0, #0
   12eb8:	e8bd40f8 	pop	{r3, r4, r5, r6, r7, lr}
   12ebc:	e28dd010 	add	sp, sp, #16
   12ec0:	e12fff1e 	bx	lr
   12ec4:	00016940 	andeq	r6, r1, r0, asr #18
   12ec8:	00005684 	andeq	r5, r0, r4, lsl #13
   12ecc:	00005282 	andeq	r5, r0, r2, lsl #5

00012ed0 <pipe_callback>:
   12ed0:	e92d4037 	push	{r0, r1, r2, r4, r5, lr}
   12ed4:	e2804028 	add	r4, r0, #40	; 0x28
   12ed8:	e1a05000 	mov	r5, r0
   12edc:	e1a01004 	mov	r1, r4
   12ee0:	e3a02014 	mov	r2, #20
   12ee4:	e5900008 	ldr	r0, [r0, #8]
   12ee8:	ebfff8cc 	bl	11220 <_init+0x138>
   12eec:	e59f0030 	ldr	r0, [pc, #48]	; 12f24 <pipe_callback+0x54>
   12ef0:	e59f1030 	ldr	r1, [pc, #48]	; 12f28 <pipe_callback+0x58>
   12ef4:	e5953028 	ldr	r3, [r5, #40]	; 0x28
   12ef8:	e08f1001 	add	r1, pc, r1
   12efc:	e3a020fd 	mov	r2, #253	; 0xfd
   12f00:	e08f0000 	add	r0, pc, r0
   12f04:	ebfff931 	bl	113d0 <_init+0x2e8>
   12f08:	e5953038 	ldr	r3, [r5, #56]	; 0x38
   12f0c:	e58d3000 	str	r3, [sp]
   12f10:	e894000f 	ldm	r4, {r0, r1, r2, r3}
   12f14:	ebffffbb 	bl	12e08 <halo_common_send>
   12f18:	e3a00000 	mov	r0, #0
   12f1c:	e28dd00c 	add	sp, sp, #12
   12f20:	e8bd8030 	pop	{r4, r5, pc}
   12f24:	00005615 	andeq	r5, r0, r5, lsl r6
   12f28:	000051da 	ldrdeq	r5, [r0], -sl

00012f2c <halo_common_init>:
   12f2c:	e92d43f8 	push	{r3, r4, r5, r6, r7, r8, r9, lr}
   12f30:	e1a09000 	mov	r9, r0
   12f34:	e3a00028 	mov	r0, #40	; 0x28
   12f38:	e1a08001 	mov	r8, r1
   12f3c:	e1a07002 	mov	r7, r2
   12f40:	e1a04003 	mov	r4, r3
   12f44:	ebfff89a 	bl	111b4 <_init+0xcc>
   12f48:	e59f612c 	ldr	r6, [pc, #300]	; 1307c <halo_common_init+0x150>
   12f4c:	e59f512c 	ldr	r5, [pc, #300]	; 13080 <halo_common_init+0x154>
   12f50:	e08f6006 	add	r6, pc, r6
   12f54:	e3500000 	cmp	r0, #0
   12f58:	e08f5005 	add	r5, pc, r5
   12f5c:	e1a0c000 	mov	ip, r0
   12f60:	e5860000 	str	r0, [r6]
   12f64:	1a000006 	bne	12f84 <halo_common_init+0x58>
   12f68:	e59f0114 	ldr	r0, [pc, #276]	; 13084 <halo_common_init+0x158>
   12f6c:	e59f1114 	ldr	r1, [pc, #276]	; 13088 <halo_common_init+0x15c>
   12f70:	e300210d 	movw	r2, #269	; 0x10d
   12f74:	e08f1001 	add	r1, pc, r1
   12f78:	e08f0000 	add	r0, pc, r0
   12f7c:	ebfff913 	bl	113d0 <_init+0x2e8>
   12f80:	ea000020 	b	13008 <halo_common_init+0xdc>
   12f84:	e59fe100 	ldr	lr, [pc, #256]	; 1308c <halo_common_init+0x160>
   12f88:	e5804024 	str	r4, [r0, #36]	; 0x24
   12f8c:	e08fe00e 	add	lr, pc, lr
   12f90:	e28e3008 	add	r3, lr, #8
   12f94:	e580e00c 	str	lr, [r0, #12]
   12f98:	e28ee010 	add	lr, lr, #16
   12f9c:	e5803010 	str	r3, [r0, #16]
   12fa0:	e580e014 	str	lr, [r0, #20]
   12fa4:	e5809018 	str	r9, [r0, #24]
   12fa8:	e580801c 	str	r8, [r0, #28]
   12fac:	e5807020 	str	r7, [r0, #32]
   12fb0:	e3a04000 	mov	r4, #0
   12fb4:	e2800004 	add	r0, r0, #4
   12fb8:	e58c4004 	str	r4, [ip, #4]
   12fbc:	e5804004 	str	r4, [r0, #4]
   12fc0:	ebfff911 	bl	1140c <_init+0x324>
   12fc4:	e1500004 	cmp	r0, r4
   12fc8:	ba00000e 	blt	13008 <halo_common_init+0xdc>
   12fcc:	e5963000 	ldr	r3, [r6]
   12fd0:	e59f20b8 	ldr	r2, [pc, #184]	; 13090 <halo_common_init+0x164>
   12fd4:	e5930004 	ldr	r0, [r3, #4]
   12fd8:	e7951002 	ldr	r1, [r5, r2]
   12fdc:	e1a03004 	mov	r3, r4
   12fe0:	e3a02014 	mov	r2, #20
   12fe4:	ebfffe28 	bl	1288c <halo_loop_add>
   12fe8:	e59f00a4 	ldr	r0, [pc, #164]	; 13094 <halo_common_init+0x168>
   12fec:	e59f10a4 	ldr	r1, [pc, #164]	; 13098 <halo_common_init+0x16c>
   12ff0:	e3a02f47 	mov	r2, #284	; 0x11c
   12ff4:	e08f1001 	add	r1, pc, r1
   12ff8:	e08f0000 	add	r0, pc, r0
   12ffc:	ebfff8f3 	bl	113d0 <_init+0x2e8>
   13000:	e1a00004 	mov	r0, r4
   13004:	e8bd83f8 	pop	{r3, r4, r5, r6, r7, r8, r9, pc}
   13008:	e59f308c 	ldr	r3, [pc, #140]	; 1309c <halo_common_init+0x170>
   1300c:	e79f4003 	ldr	r4, [pc, r3]
   13010:	e3540000 	cmp	r4, #0
   13014:	0a000016 	beq	13074 <halo_common_init+0x148>
   13018:	e594000c 	ldr	r0, [r4, #12]
   1301c:	ebfffd50 	bl	12564 <list_del>
   13020:	e5940010 	ldr	r0, [r4, #16]
   13024:	ebfffd4e 	bl	12564 <list_del>
   13028:	e5940014 	ldr	r0, [r4, #20]
   1302c:	ebfffd4c 	bl	12564 <list_del>
   13030:	e5940004 	ldr	r0, [r4, #4]
   13034:	e3500000 	cmp	r0, #0
   13038:	0a000000 	beq	13040 <halo_common_init+0x114>
   1303c:	ebfff895 	bl	11298 <_init+0x1b0>
   13040:	e59f3058 	ldr	r3, [pc, #88]	; 130a0 <halo_common_init+0x174>
   13044:	e08f3003 	add	r3, pc, r3
   13048:	e5933000 	ldr	r3, [r3]
   1304c:	e5930008 	ldr	r0, [r3, #8]
   13050:	e3500000 	cmp	r0, #0
   13054:	0a000000 	beq	1305c <halo_common_init+0x130>
   13058:	ebfff88e 	bl	11298 <_init+0x1b0>
   1305c:	e59f4040 	ldr	r4, [pc, #64]	; 130a4 <halo_common_init+0x178>
   13060:	e08f4004 	add	r4, pc, r4
   13064:	e5940000 	ldr	r0, [r4]
   13068:	ebfff8cc 	bl	113a0 <_init+0x2b8>
   1306c:	e3a03000 	mov	r3, #0
   13070:	e5843000 	str	r3, [r4]
   13074:	e3e00000 	mvn	r0, #0
   13078:	e8bd83f8 	pop	{r3, r4, r5, r6, r7, r8, r9, pc}
   1307c:	0001680c 	andeq	r6, r1, ip, lsl #16
   13080:	000164dc 	ldrdeq	r6, [r1], -ip
   13084:	00005163 	andeq	r5, r0, r3, ror #2
   13088:	0000515e 	andeq	r5, r0, lr, asr r1
   1308c:	00016608 	andeq	r6, r1, r8, lsl #12
   13090:	00000120 	andeq	r0, r0, r0, lsr #2
   13094:	0000554a 	andeq	r5, r0, sl, asr #10
   13098:	000050de 	ldrdeq	r5, [r0], -lr
   1309c:	00016750 	andeq	r6, r1, r0, asr r7
   130a0:	00016718 	andeq	r6, r1, r8, lsl r7
   130a4:	000166fc 	strdeq	r6, [r1], -ip

000130a8 <halo_common_deinit>:
   130a8:	e92d4070 	push	{r4, r5, r6, lr}
   130ac:	e59f41e0 	ldr	r4, [pc, #480]	; 13294 <halo_common_deinit+0x1ec>
   130b0:	e08f4004 	add	r4, pc, r4
   130b4:	e5943000 	ldr	r3, [r4]
   130b8:	e3530000 	cmp	r3, #0
   130bc:	0a000072 	beq	1328c <halo_common_deinit+0x1e4>
   130c0:	e593300c 	ldr	r3, [r3, #12]
   130c4:	e3530000 	cmp	r3, #0
   130c8:	1a00000d 	bne	13104 <halo_common_deinit+0x5c>
   130cc:	e59f41c4 	ldr	r4, [pc, #452]	; 13298 <halo_common_deinit+0x1f0>
   130d0:	e59f51c4 	ldr	r5, [pc, #452]	; 1329c <halo_common_deinit+0x1f4>
   130d4:	e59f01c4 	ldr	r0, [pc, #452]	; 132a0 <halo_common_deinit+0x1f8>
   130d8:	e08f4004 	add	r4, pc, r4
   130dc:	e08f5005 	add	r5, pc, r5
   130e0:	e08f0000 	add	r0, pc, r0
   130e4:	e1a01004 	mov	r1, r4
   130e8:	e3002139 	movw	r2, #313	; 0x139
   130ec:	ebfff8b7 	bl	113d0 <_init+0x2e8>
   130f0:	e5953000 	ldr	r3, [r5]
   130f4:	e5933010 	ldr	r3, [r3, #16]
   130f8:	e3530000 	cmp	r3, #0
   130fc:	1a000022 	bne	1318c <halo_common_deinit+0xe4>
   13100:	ea000013 	b	13154 <halo_common_deinit+0xac>
   13104:	e59f0198 	ldr	r0, [pc, #408]	; 132a4 <halo_common_deinit+0x1fc>
   13108:	e59f1198 	ldr	r1, [pc, #408]	; 132a8 <halo_common_deinit+0x200>
   1310c:	e08f0000 	add	r0, pc, r0
   13110:	e08f1001 	add	r1, pc, r1
   13114:	e3002132 	movw	r2, #306	; 0x132
   13118:	ebfff8ac 	bl	113d0 <_init+0x2e8>
   1311c:	e5946000 	ldr	r6, [r4]
   13120:	e596300c 	ldr	r3, [r6, #12]
   13124:	e5934000 	ldr	r4, [r3]
   13128:	e5945000 	ldr	r5, [r4]
   1312c:	e596300c 	ldr	r3, [r6, #12]
   13130:	e1540003 	cmp	r4, r3
   13134:	0affffe4 	beq	130cc <halo_common_deinit+0x24>
   13138:	e1a00004 	mov	r0, r4
   1313c:	ebfffd08 	bl	12564 <list_del>
   13140:	e1a00004 	mov	r0, r4
   13144:	ebfff895 	bl	113a0 <_init+0x2b8>
   13148:	e1a04005 	mov	r4, r5
   1314c:	e5955000 	ldr	r5, [r5]
   13150:	eafffff5 	b	1312c <halo_common_deinit+0x84>
   13154:	e59f4150 	ldr	r4, [pc, #336]	; 132ac <halo_common_deinit+0x204>
   13158:	e59f5150 	ldr	r5, [pc, #336]	; 132b0 <halo_common_deinit+0x208>
   1315c:	e59f0150 	ldr	r0, [pc, #336]	; 132b4 <halo_common_deinit+0x20c>
   13160:	e08f4004 	add	r4, pc, r4
   13164:	e08f5005 	add	r5, pc, r5
   13168:	e08f0000 	add	r0, pc, r0
   1316c:	e1a01004 	mov	r1, r4
   13170:	e3002141 	movw	r2, #321	; 0x141
   13174:	ebfff895 	bl	113d0 <_init+0x2e8>
   13178:	e5953000 	ldr	r3, [r5]
   1317c:	e5933014 	ldr	r3, [r3, #20]
   13180:	e3530000 	cmp	r3, #0
   13184:	1a00002f 	bne	13248 <halo_common_deinit+0x1a0>
   13188:	ea000010 	b	131d0 <halo_common_deinit+0x128>
   1318c:	e59f0124 	ldr	r0, [pc, #292]	; 132b8 <halo_common_deinit+0x210>
   13190:	e1a01004 	mov	r1, r4
   13194:	e08f0000 	add	r0, pc, r0
   13198:	e3a02f4f 	mov	r2, #316	; 0x13c
   1319c:	ebfff88b 	bl	113d0 <_init+0x2e8>
   131a0:	e5953000 	ldr	r3, [r5]
   131a4:	e5933010 	ldr	r3, [r3, #16]
   131a8:	e5930000 	ldr	r0, [r3]
   131ac:	e5904000 	ldr	r4, [r0]
   131b0:	e5953000 	ldr	r3, [r5]
   131b4:	e5933010 	ldr	r3, [r3, #16]
   131b8:	e1500003 	cmp	r0, r3
   131bc:	0affffe4 	beq	13154 <halo_common_deinit+0xac>
   131c0:	ebfffe00 	bl	129c8 <halo_loop_del>
   131c4:	e1a00004 	mov	r0, r4
   131c8:	e5944000 	ldr	r4, [r4]
   131cc:	eafffff7 	b	131b0 <halo_common_deinit+0x108>
   131d0:	e59f50e4 	ldr	r5, [pc, #228]	; 132bc <halo_common_deinit+0x214>
   131d4:	e59f40e4 	ldr	r4, [pc, #228]	; 132c0 <halo_common_deinit+0x218>
   131d8:	e59f00e4 	ldr	r0, [pc, #228]	; 132c4 <halo_common_deinit+0x21c>
   131dc:	e08f4004 	add	r4, pc, r4
   131e0:	e08f5005 	add	r5, pc, r5
   131e4:	e1a01005 	mov	r1, r5
   131e8:	e300214a 	movw	r2, #330	; 0x14a
   131ec:	e08f0000 	add	r0, pc, r0
   131f0:	ebfff876 	bl	113d0 <_init+0x2e8>
   131f4:	e5943000 	ldr	r3, [r4]
   131f8:	e5930004 	ldr	r0, [r3, #4]
   131fc:	ebfff825 	bl	11298 <_init+0x1b0>
   13200:	e5943000 	ldr	r3, [r4]
   13204:	e5930008 	ldr	r0, [r3, #8]
   13208:	ebfff822 	bl	11298 <_init+0x1b0>
   1320c:	e59f00b4 	ldr	r0, [pc, #180]	; 132c8 <halo_common_deinit+0x220>
   13210:	e1a01005 	mov	r1, r5
   13214:	e300214d 	movw	r2, #333	; 0x14d
   13218:	e08f0000 	add	r0, pc, r0
   1321c:	ebfff86b 	bl	113d0 <_init+0x2e8>
   13220:	e5940000 	ldr	r0, [r4]
   13224:	ebfff85d 	bl	113a0 <_init+0x2b8>
   13228:	e59f009c 	ldr	r0, [pc, #156]	; 132cc <halo_common_deinit+0x224>
   1322c:	e1a01005 	mov	r1, r5
   13230:	e08f0000 	add	r0, pc, r0
   13234:	e300214f 	movw	r2, #335	; 0x14f
   13238:	ebfff864 	bl	113d0 <_init+0x2e8>
   1323c:	e3a03000 	mov	r3, #0
   13240:	e5843000 	str	r3, [r4]
   13244:	ea000010 	b	1328c <halo_common_deinit+0x1e4>
   13248:	e59f0080 	ldr	r0, [pc, #128]	; 132d0 <halo_common_deinit+0x228>
   1324c:	e1a01004 	mov	r1, r4
   13250:	e08f0000 	add	r0, pc, r0
   13254:	e3002145 	movw	r2, #325	; 0x145
   13258:	ebfff85c 	bl	113d0 <_init+0x2e8>
   1325c:	e5953000 	ldr	r3, [r5]
   13260:	e5933014 	ldr	r3, [r3, #20]
   13264:	e5930000 	ldr	r0, [r3]
   13268:	e5904000 	ldr	r4, [r0]
   1326c:	e5953000 	ldr	r3, [r5]
   13270:	e5933014 	ldr	r3, [r3, #20]
   13274:	e1500003 	cmp	r0, r3
   13278:	0affffd4 	beq	131d0 <halo_common_deinit+0x128>
   1327c:	ebfffd52 	bl	127cc <halo_send_del>
   13280:	e1a00004 	mov	r0, r4
   13284:	e5944000 	ldr	r4, [r4]
   13288:	eafffff7 	b	1326c <halo_common_deinit+0x1c4>
   1328c:	e3a00000 	mov	r0, #0
   13290:	e8bd8070 	pop	{r4, r5, r6, pc}
   13294:	000166ac 	andeq	r6, r1, ip, lsr #13
   13298:	00004ffa 	strdeq	r4, [r0], -sl
   1329c:	00016680 	andeq	r6, r1, r0, lsl #13
   132a0:	00005490 	muleq	r0, r0, r4
   132a4:	00005495 	muleq	r0, r5, r4
   132a8:	00004fc2 	andeq	r4, r0, r2, asr #31
   132ac:	00004f72 	andeq	r4, r0, r2, ror pc
   132b0:	000165f8 	strdeq	r6, [r1], -r8
   132b4:	00005467 	andeq	r5, r0, r7, ror #8
   132b8:	0000546c 	andeq	r5, r0, ip, ror #8
   132bc:	00004ef2 	strdeq	r4, [r0], -r2
   132c0:	00016580 	andeq	r6, r1, r0, lsl #11
   132c4:	00005442 	andeq	r5, r0, r2, asr #8
   132c8:	00005447 	andeq	r5, r0, r7, asr #8
   132cc:	0000545f 	andeq	r5, r0, pc, asr r4
   132d0:	0000546f 	andeq	r5, r0, pc, ror #8

000132d4 <halo_common_start>:
   132d4:	e59f3040 	ldr	r3, [pc, #64]	; 1331c <halo_common_start+0x48>
   132d8:	e79f0003 	ldr	r0, [pc, r3]
   132dc:	e3500000 	cmp	r0, #0
   132e0:	0a000004 	beq	132f8 <halo_common_start+0x24>
   132e4:	e59f2034 	ldr	r2, [pc, #52]	; 13320 <halo_common_start+0x4c>
   132e8:	e3a01000 	mov	r1, #0
   132ec:	e08f2002 	add	r2, pc, r2
   132f0:	e1a03001 	mov	r3, r1
   132f4:	eafff7e1 	b	11280 <_init+0x198>
   132f8:	e59f0024 	ldr	r0, [pc, #36]	; 13324 <halo_common_start+0x50>
   132fc:	e92d4010 	push	{r4, lr}
   13300:	e59f1020 	ldr	r1, [pc, #32]	; 13328 <halo_common_start+0x54>
   13304:	e30021c1 	movw	r2, #449	; 0x1c1
   13308:	e08f1001 	add	r1, pc, r1
   1330c:	e08f0000 	add	r0, pc, r0
   13310:	ebfff82e 	bl	113d0 <_init+0x2e8>
   13314:	e3e00000 	mvn	r0, #0
   13318:	e8bd8010 	pop	{r4, pc}
   1331c:	00016484 	andeq	r6, r1, r4, lsl #9
   13320:	fffff84c 			; <UNDEFINED> instruction: 0xfffff84c
   13324:	000053e1 	andeq	r5, r0, r1, ror #7
   13328:	00004dca 	andeq	r4, r0, sl, asr #27

0001332c <halo_common_stop>:
   1332c:	e92d4008 	push	{r3, lr}
   13330:	e59f3014 	ldr	r3, [pc, #20]	; 1334c <halo_common_stop+0x20>
   13334:	e08f3003 	add	r3, pc, r3
   13338:	e5933000 	ldr	r3, [r3]
   1333c:	e5930000 	ldr	r0, [r3]
   13340:	ebfff801 	bl	1134c <_init+0x264>
   13344:	e8bd4008 	pop	{r3, lr}
   13348:	eaffff56 	b	130a8 <halo_common_deinit>
   1334c:	00016428 	andeq	r6, r1, r8, lsr #8

00013350 <halo_update>:
   13350:	e24dd010 	sub	sp, sp, #16
   13354:	e92d4008 	push	{r3, lr}
   13358:	e28dc008 	add	ip, sp, #8
   1335c:	e88c000f 	stm	ip, {r0, r1, r2, r3}
   13360:	e59f3034 	ldr	r3, [pc, #52]	; 1339c <halo_update+0x4c>
   13364:	e08f3003 	add	r3, pc, r3
   13368:	e5933000 	ldr	r3, [r3]
   1336c:	e3530000 	cmp	r3, #0
   13370:	0a000005 	beq	1338c <halo_update+0x3c>
   13374:	e5930008 	ldr	r0, [r3, #8]
   13378:	e1a0100c 	mov	r1, ip
   1337c:	e3a02014 	mov	r2, #20
   13380:	ebfff7c1 	bl	1128c <_init+0x1a4>
   13384:	e3a00000 	mov	r0, #0
   13388:	ea000000 	b	13390 <halo_update+0x40>
   1338c:	e3e00000 	mvn	r0, #0
   13390:	e8bd4008 	pop	{r3, lr}
   13394:	e28dd010 	add	sp, sp, #16
   13398:	e12fff1e 	bx	lr
   1339c:	000163f8 	strdeq	r6, [r1], -r8

000133a0 <halo_init_udp>:
   133a0:	e92d41ff 	push	{r0, r1, r2, r3, r4, r5, r6, r7, r8, lr}
   133a4:	e3a00002 	mov	r0, #2
   133a8:	e1a01000 	mov	r1, r0
   133ac:	e3a02000 	mov	r2, #0
   133b0:	ebfff7e2 	bl	11340 <_init+0x258>
   133b4:	e59f4168 	ldr	r4, [pc, #360]	; 13524 <halo_init_udp+0x184>
   133b8:	e08f4004 	add	r4, pc, r4
   133bc:	e3500000 	cmp	r0, #0
   133c0:	e5840000 	str	r0, [r4]
   133c4:	aa000006 	bge	133e4 <halo_init_udp+0x44>
   133c8:	e59f0158 	ldr	r0, [pc, #344]	; 13528 <halo_init_udp+0x188>
   133cc:	e59f1158 	ldr	r1, [pc, #344]	; 1352c <halo_init_udp+0x18c>
   133d0:	e3a0201f 	mov	r2, #31
   133d4:	e08f1001 	add	r1, pc, r1
   133d8:	e08f0000 	add	r0, pc, r0
   133dc:	ebfff7fb 	bl	113d0 <_init+0x2e8>
   133e0:	ea00002b 	b	13494 <halo_init_udp+0xf4>
   133e4:	e59f5144 	ldr	r5, [pc, #324]	; 13530 <halo_init_udp+0x190>
   133e8:	e59f0144 	ldr	r0, [pc, #324]	; 13534 <halo_init_udp+0x194>
   133ec:	e08f5005 	add	r5, pc, r5
   133f0:	e1a01005 	mov	r1, r5
   133f4:	e3a02022 	mov	r2, #34	; 0x22
   133f8:	e08f0000 	add	r0, pc, r0
   133fc:	ebfff7f3 	bl	113d0 <_init+0x2e8>
   13400:	e1a06004 	mov	r6, r4
   13404:	e28d3010 	add	r3, sp, #16
   13408:	e3a08002 	mov	r8, #2
   1340c:	e3a02004 	mov	r2, #4
   13410:	e5238004 	str	r8, [r3, #-4]!
   13414:	e58d2000 	str	r2, [sp]
   13418:	e4960004 	ldr	r0, [r6], #4
   1341c:	e3a07010 	mov	r7, #16
   13420:	e3a01001 	mov	r1, #1
   13424:	e1a02008 	mov	r2, r8
   13428:	ebfff78b 	bl	1125c <_init+0x174>
   1342c:	e1a00006 	mov	r0, r6
   13430:	e3a01000 	mov	r1, #0
   13434:	e1a02007 	mov	r2, r7
   13438:	ebfff7a8 	bl	112e0 <_init+0x1f8>
   1343c:	e59f30f4 	ldr	r3, [pc, #244]	; 13538 <halo_init_udp+0x198>
   13440:	e1c480b4 	strh	r8, [r4, #4]
   13444:	e1c430b6 	strh	r3, [r4, #6]
   13448:	e3a01000 	mov	r1, #0
   1344c:	e1a03006 	mov	r3, r6
   13450:	e58d7000 	str	r7, [sp]
   13454:	e3a02020 	mov	r2, #32
   13458:	e5940000 	ldr	r0, [r4]
   1345c:	ebfff77e 	bl	1125c <_init+0x174>
   13460:	e1a01006 	mov	r1, r6
   13464:	e5940000 	ldr	r0, [r4]
   13468:	e1a02007 	mov	r2, r7
   1346c:	ebfff726 	bl	1110c <_init+0x24>
   13470:	e2506000 	subs	r6, r0, #0
   13474:	0a000008 	beq	1349c <halo_init_udp+0xfc>
   13478:	e59f00bc 	ldr	r0, [pc, #188]	; 1353c <halo_init_udp+0x19c>
   1347c:	e1a01005 	mov	r1, r5
   13480:	e08f0000 	add	r0, pc, r0
   13484:	e3a0202e 	mov	r2, #46	; 0x2e
   13488:	ebfff7d0 	bl	113d0 <_init+0x2e8>
   1348c:	e5940000 	ldr	r0, [r4]
   13490:	ebfff780 	bl	11298 <_init+0x1b0>
   13494:	e3e00000 	mvn	r0, #0
   13498:	ea00001f 	b	1351c <halo_init_udp+0x17c>
   1349c:	e59f009c 	ldr	r0, [pc, #156]	; 13540 <halo_init_udp+0x1a0>
   134a0:	e1a01005 	mov	r1, r5
   134a4:	e3a02032 	mov	r2, #50	; 0x32
   134a8:	e08f0000 	add	r0, pc, r0
   134ac:	ebfff7c7 	bl	113d0 <_init+0x2e8>
   134b0:	e59f008c 	ldr	r0, [pc, #140]	; 13544 <halo_init_udp+0x1a4>
   134b4:	e08f0000 	add	r0, pc, r0
   134b8:	ebfff791 	bl	11304 <_init+0x21c>
   134bc:	e5840014 	str	r0, [r4, #20]
   134c0:	e59f0080 	ldr	r0, [pc, #128]	; 13548 <halo_init_udp+0x1a8>
   134c4:	e08f0000 	add	r0, pc, r0
   134c8:	ebfff78d 	bl	11304 <_init+0x21c>
   134cc:	e3a03008 	mov	r3, #8
   134d0:	e1a01006 	mov	r1, r6
   134d4:	e3a02023 	mov	r2, #35	; 0x23
   134d8:	e5840018 	str	r0, [r4, #24]
   134dc:	e58d3000 	str	r3, [sp]
   134e0:	e2843014 	add	r3, r4, #20
   134e4:	e5940000 	ldr	r0, [r4]
   134e8:	ebfff75b 	bl	1125c <_init+0x174>
   134ec:	e3500000 	cmp	r0, #0
   134f0:	b59f0054 	ldrlt	r0, [pc, #84]	; 1354c <halo_init_udp+0x1ac>
   134f4:	b1a01005 	movlt	r1, r5
   134f8:	b08f0000 	addlt	r0, pc, r0
   134fc:	b3a0203b 	movlt	r2, #59	; 0x3b
   13500:	baffffe0 	blt	13488 <halo_init_udp+0xe8>
   13504:	e59f0044 	ldr	r0, [pc, #68]	; 13550 <halo_init_udp+0x1b0>
   13508:	e1a01005 	mov	r1, r5
   1350c:	e08f0000 	add	r0, pc, r0
   13510:	e3a0203f 	mov	r2, #63	; 0x3f
   13514:	ebfff7ad 	bl	113d0 <_init+0x2e8>
   13518:	e5940000 	ldr	r0, [r4]
   1351c:	e28dd010 	add	sp, sp, #16
   13520:	e8bd81f0 	pop	{r4, r5, r6, r7, r8, pc}
   13524:	000163a8 	andeq	r6, r1, r8, lsr #7
   13528:	0000534a 	andeq	r5, r0, sl, asr #6
   1352c:	0000538a 	andeq	r5, r0, sl, lsl #7
   13530:	00005372 	andeq	r5, r0, r2, ror r3
   13534:	00005371 	andeq	r5, r0, r1, ror r3
   13538:	ffff914c 			; <UNDEFINED> instruction: 0xffff914c
   1353c:	00005326 	andeq	r5, r0, r6, lsr #6
   13540:	0000533a 	andeq	r5, r0, sl, lsr r3
   13544:	0000536a 	andeq	r5, r0, sl, ror #6
   13548:	00005364 	andeq	r5, r0, r4, ror #6
   1354c:	0000533a 	andeq	r5, r0, sl, lsr r3
   13550:	00005361 	andeq	r5, r0, r1, ror #6

00013554 <halo_udp_close_cb>:
   13554:	eafff74f 	b	11298 <_init+0x1b0>

00013558 <halo_udp_recv_cb>:
   13558:	e92d4010 	push	{r4, lr}
   1355c:	e1a04000 	mov	r4, r0
   13560:	e5900008 	ldr	r0, [r0, #8]
   13564:	e24dd020 	sub	sp, sp, #32
   13568:	e3500000 	cmp	r0, #0
   1356c:	b3e00000 	mvnlt	r0, #0
   13570:	ba00001c 	blt	135e8 <halo_udp_recv_cb+0x90>
   13574:	e3a03010 	mov	r3, #16
   13578:	e5941014 	ldr	r1, [r4, #20]
   1357c:	e58d300c 	str	r3, [sp, #12]
   13580:	e08d3003 	add	r3, sp, r3
   13584:	e5942018 	ldr	r2, [r4, #24]
   13588:	e58d3000 	str	r3, [sp]
   1358c:	e28d300c 	add	r3, sp, #12
   13590:	e58d3004 	str	r3, [sp, #4]
   13594:	e3a03000 	mov	r3, #0
   13598:	ebfff75f 	bl	1131c <_init+0x234>
   1359c:	e3500000 	cmp	r0, #0
   135a0:	e1a03000 	mov	r3, r0
   135a4:	e584001c 	str	r0, [r4, #28]
   135a8:	da000008 	ble	135d0 <halo_udp_recv_cb+0x78>
   135ac:	e5942014 	ldr	r2, [r4, #20]
   135b0:	e59f0038 	ldr	r0, [pc, #56]	; 135f0 <halo_udp_recv_cb+0x98>
   135b4:	e59f1038 	ldr	r1, [pc, #56]	; 135f4 <halo_udp_recv_cb+0x9c>
   135b8:	e58d2000 	str	r2, [sp]
   135bc:	e08f1001 	add	r1, pc, r1
   135c0:	e3a02057 	mov	r2, #87	; 0x57
   135c4:	e08f0000 	add	r0, pc, r0
   135c8:	ebfff780 	bl	113d0 <_init+0x2e8>
   135cc:	ea000004 	b	135e4 <halo_udp_recv_cb+0x8c>
   135d0:	ebfff6d6 	bl	11130 <_init+0x48>
   135d4:	e5903000 	ldr	r3, [r0]
   135d8:	e3530004 	cmp	r3, #4
   135dc:	0a000000 	beq	135e4 <halo_udp_recv_cb+0x8c>
   135e0:	ea000000 	b	135e8 <halo_udp_recv_cb+0x90>
   135e4:	e3a00000 	mov	r0, #0
   135e8:	e28dd020 	add	sp, sp, #32
   135ec:	e8bd8010 	pop	{r4, pc}
   135f0:	000052e4 	andeq	r5, r0, r4, ror #5
   135f4:	000051a2 	andeq	r5, r0, r2, lsr #3

000135f8 <initcb3>:
   135f8:	e59f0040 	ldr	r0, [pc, #64]	; 13640 <initcb3+0x48>
   135fc:	e92d4010 	push	{r4, lr}
   13600:	e59f103c 	ldr	r1, [pc, #60]	; 13644 <initcb3+0x4c>
   13604:	e59f403c 	ldr	r4, [pc, #60]	; 13648 <initcb3+0x50>
   13608:	e08f1001 	add	r1, pc, r1
   1360c:	e3a02060 	mov	r2, #96	; 0x60
   13610:	e08f0000 	add	r0, pc, r0
   13614:	ebfff76d 	bl	113d0 <_init+0x2e8>
   13618:	e08f4004 	add	r4, pc, r4
   1361c:	eb000981 	bl	15c28 <init_tcp_cli>
   13620:	e59f3024 	ldr	r3, [pc, #36]	; 1364c <initcb3+0x54>
   13624:	e3a02b01 	mov	r2, #1024	; 0x400
   13628:	e7941003 	ldr	r1, [r4, r3]
   1362c:	e59f301c 	ldr	r3, [pc, #28]	; 13650 <initcb3+0x58>
   13630:	e7943003 	ldr	r3, [r4, r3]
   13634:	ebfffc94 	bl	1288c <halo_loop_add>
   13638:	e3a00000 	mov	r0, #0
   1363c:	e8bd8010 	pop	{r4, pc}
   13640:	000052c6 	andeq	r5, r0, r6, asr #5
   13644:	000052f5 	strdeq	r5, [r0], -r5	; <UNPREDICTABLE>
   13648:	00015e1c 	andeq	r5, r1, ip, lsl lr
   1364c:	0000011c 	andeq	r0, r0, ip, lsl r1
   13650:	00000138 	andeq	r0, r0, r8, lsr r1

00013654 <initcb2>:
   13654:	e59f007c 	ldr	r0, [pc, #124]	; 136d8 <initcb2+0x84>
   13658:	e92d4010 	push	{r4, lr}
   1365c:	e59f1078 	ldr	r1, [pc, #120]	; 136dc <initcb2+0x88>
   13660:	e59f4078 	ldr	r4, [pc, #120]	; 136e0 <initcb2+0x8c>
   13664:	e08f1001 	add	r1, pc, r1
   13668:	e3a02045 	mov	r2, #69	; 0x45
   1366c:	e08f0000 	add	r0, pc, r0
   13670:	e08f4004 	add	r4, pc, r4
   13674:	ebfff755 	bl	113d0 <_init+0x2e8>
   13678:	ebffff48 	bl	133a0 <halo_init_udp>
   1367c:	e59f3060 	ldr	r3, [pc, #96]	; 136e4 <initcb2+0x90>
   13680:	e3a02b01 	mov	r2, #1024	; 0x400
   13684:	e7941003 	ldr	r1, [r4, r3]
   13688:	e59f3058 	ldr	r3, [pc, #88]	; 136e8 <initcb2+0x94>
   1368c:	e7943003 	ldr	r3, [r4, r3]
   13690:	ebfffc7d 	bl	1288c <halo_loop_add>
   13694:	e3040dbc 	movw	r0, #19900	; 0x4dbc
   13698:	ebfff816 	bl	116f8 <init_tcp_server>
   1369c:	e59f3048 	ldr	r3, [pc, #72]	; 136ec <initcb2+0x98>
   136a0:	e3a02b01 	mov	r2, #1024	; 0x400
   136a4:	e7941003 	ldr	r1, [r4, r3]
   136a8:	e59f3040 	ldr	r3, [pc, #64]	; 136f0 <initcb2+0x9c>
   136ac:	e7943003 	ldr	r3, [r4, r3]
   136b0:	ebfffc75 	bl	1288c <halo_loop_add>
   136b4:	eb00085f 	bl	15838 <halo_init_uart>
   136b8:	e59f3034 	ldr	r3, [pc, #52]	; 136f4 <initcb2+0xa0>
   136bc:	e3a02001 	mov	r2, #1
   136c0:	e7941003 	ldr	r1, [r4, r3]
   136c4:	e59f302c 	ldr	r3, [pc, #44]	; 136f8 <initcb2+0xa4>
   136c8:	e7943003 	ldr	r3, [r4, r3]
   136cc:	ebfffc6e 	bl	1288c <halo_loop_add>
   136d0:	e8bd4010 	pop	{r4, lr}
   136d4:	ea000d9f 	b	16d58 <regist_first>
   136d8:	00005298 	muleq	r0, r8, r2
   136dc:	00005299 	muleq	r0, r9, r2
   136e0:	00015dc4 	andeq	r5, r1, r4, asr #27
   136e4:	00000124 	andeq	r0, r0, r4, lsr #2
   136e8:	0000014c 	andeq	r0, r0, ip, asr #2
   136ec:	00000150 	andeq	r0, r0, r0, asr r1
   136f0:	00000128 	andeq	r0, r0, r8, lsr #2
   136f4:	00000144 	andeq	r0, r0, r4, asr #2
   136f8:	00000130 	andeq	r0, r0, r0, lsr r1

000136fc <__check_wifi_connection>:
   136fc:	e92d4007 	push	{r0, r1, r2, lr}
   13700:	e28d0004 	add	r0, sp, #4
   13704:	ebfff6f8 	bl	112ec <_init+0x204>
   13708:	e59d3004 	ldr	r3, [sp, #4]
   1370c:	e3530005 	cmp	r3, #5
   13710:	03a00000 	moveq	r0, #0
   13714:	0a000008 	beq	1373c <__check_wifi_connection+0x40>
   13718:	e59f0024 	ldr	r0, [pc, #36]	; 13744 <__check_wifi_connection+0x48>
   1371c:	e59f1024 	ldr	r1, [pc, #36]	; 13748 <__check_wifi_connection+0x4c>
   13720:	e3a02027 	mov	r2, #39	; 0x27
   13724:	e08f1001 	add	r1, pc, r1
   13728:	e08f0000 	add	r0, pc, r0
   1372c:	ebfff727 	bl	113d0 <_init+0x2e8>
   13730:	e3a00001 	mov	r0, #1
   13734:	ebfff692 	bl	11184 <_init+0x9c>
   13738:	e3a00003 	mov	r0, #3
   1373c:	e28dd00c 	add	sp, sp, #12
   13740:	e49df004 	pop	{pc}		; (ldr pc, [sp], #4)
   13744:	00005226 	andeq	r5, r0, r6, lsr #4
   13748:	000051d9 	ldrdeq	r5, [r0], -r9

0001374c <timeout_cb>:
   1374c:	e59f001c 	ldr	r0, [pc, #28]	; 13770 <timeout_cb+0x24>
   13750:	e92d4008 	push	{r3, lr}
   13754:	e59f1018 	ldr	r1, [pc, #24]	; 13774 <timeout_cb+0x28>
   13758:	e08f0000 	add	r0, pc, r0
   1375c:	e08f1001 	add	r1, pc, r1
   13760:	e3a02030 	mov	r2, #48	; 0x30
   13764:	ebfff719 	bl	113d0 <_init+0x2e8>
   13768:	e8bd4008 	pop	{r3, lr}
   1376c:	eaffffe2 	b	136fc <__check_wifi_connection>
   13770:	00005229 	andeq	r5, r0, r9, lsr #4
   13774:	000051a1 	andeq	r5, r0, r1, lsr #3

00013778 <initcb>:
   13778:	e59f001c 	ldr	r0, [pc, #28]	; 1379c <initcb+0x24>
   1377c:	e92d4008 	push	{r3, lr}
   13780:	e59f1018 	ldr	r1, [pc, #24]	; 137a0 <initcb+0x28>
   13784:	e08f0000 	add	r0, pc, r0
   13788:	e08f1001 	add	r1, pc, r1
   1378c:	e3a02037 	mov	r2, #55	; 0x37
   13790:	ebfff70e 	bl	113d0 <_init+0x2e8>
   13794:	e8bd4008 	pop	{r3, lr}
   13798:	eaffffd7 	b	136fc <__check_wifi_connection>
   1379c:	00005224 	andeq	r5, r0, r4, lsr #4
   137a0:	00005175 	andeq	r5, r0, r5, ror r1

000137a4 <test_proc>:
   137a4:	e92d4010 	push	{r4, lr}
   137a8:	e24dd020 	sub	sp, sp, #32
   137ac:	e28d400c 	add	r4, sp, #12
   137b0:	e1a00004 	mov	r0, r4
   137b4:	e3a01000 	mov	r1, #0
   137b8:	e3a02014 	mov	r2, #20
   137bc:	ebfff6c7 	bl	112e0 <_init+0x1f8>
   137c0:	e59d301c 	ldr	r3, [sp, #28]
   137c4:	e58d3000 	str	r3, [sp]
   137c8:	e894000f 	ldm	r4, {r0, r1, r2, r3}
   137cc:	ebfffedf 	bl	13350 <halo_update>
   137d0:	e3a00003 	mov	r0, #3
   137d4:	ebfff66a 	bl	11184 <_init+0x9c>
   137d8:	e59d300c 	ldr	r3, [sp, #12]
   137dc:	e2833001 	add	r3, r3, #1
   137e0:	e58d300c 	str	r3, [sp, #12]
   137e4:	eafffff5 	b	137c0 <test_proc+0x1c>

000137e8 <utf8_cut_string>:
   137e8:	e92d4038 	push	{r3, r4, r5, lr}
   137ec:	e1a05001 	mov	r5, r1
   137f0:	e1a04000 	mov	r4, r0
   137f4:	ebfff680 	bl	111fc <_init+0x114>
   137f8:	e1500005 	cmp	r0, r5
   137fc:	21a02004 	movcs	r2, r4
   13800:	23a01000 	movcs	r1, #0
   13804:	3a000018 	bcc	1386c <utf8_cut_string+0x84>
   13808:	e5d23000 	ldrb	r3, [r2]
   1380c:	e3530000 	cmp	r3, #0
   13810:	0a000015 	beq	1386c <utf8_cut_string+0x84>
   13814:	e3130080 	tst	r3, #128	; 0x80
   13818:	13a0c000 	movne	ip, #0
   1381c:	0a00000c 	beq	13854 <utf8_cut_string+0x6c>
   13820:	e3130080 	tst	r3, #128	; 0x80
   13824:	11a03083 	lslne	r3, r3, #1
   13828:	128cc001 	addne	ip, ip, #1
   1382c:	16ef3073 	uxtbne	r3, r3
   13830:	1afffffa 	bne	13820 <utf8_cut_string+0x38>
   13834:	e082300c 	add	r3, r2, ip
   13838:	e0642003 	rsb	r2, r4, r3
   1383c:	e1520005 	cmp	r2, r5
   13840:	ba000007 	blt	13864 <utf8_cut_string+0x7c>
   13844:	e06c3003 	rsb	r3, ip, r3
   13848:	e3a02000 	mov	r2, #0
   1384c:	e5c32000 	strb	r2, [r3]
   13850:	ea000005 	b	1386c <utf8_cut_string+0x84>
   13854:	e2823001 	add	r3, r2, #1
   13858:	e0640003 	rsb	r0, r4, r3
   1385c:	e1500005 	cmp	r0, r5
   13860:	a5c21001 	strbge	r1, [r2, #1]
   13864:	e1a02003 	mov	r2, r3
   13868:	eaffffe6 	b	13808 <utf8_cut_string+0x20>
   1386c:	e3a00000 	mov	r0, #0
   13870:	e8bd8038 	pop	{r3, r4, r5, pc}

00013874 <utf8_strlen>:
   13874:	e92d41f0 	push	{r4, r5, r6, r7, r8, lr}
   13878:	e59f706c 	ldr	r7, [pc, #108]	; 138ec <utf8_strlen+0x78>
   1387c:	e59f806c 	ldr	r8, [pc, #108]	; 138f0 <utf8_strlen+0x7c>
   13880:	e1a04000 	mov	r4, r0
   13884:	e3a06000 	mov	r6, #0
   13888:	e08f7007 	add	r7, pc, r7
   1388c:	e08f8008 	add	r8, pc, r8
   13890:	e5d42000 	ldrb	r2, [r4]
   13894:	e3520000 	cmp	r2, #0
   13898:	0a000011 	beq	138e4 <utf8_strlen+0x70>
   1389c:	e3120080 	tst	r2, #128	; 0x80
   138a0:	13a05000 	movne	r5, #0
   138a4:	0a00000b 	beq	138d8 <utf8_strlen+0x64>
   138a8:	e3120080 	tst	r2, #128	; 0x80
   138ac:	11a02082 	lslne	r2, r2, #1
   138b0:	12855001 	addne	r5, r5, #1
   138b4:	16ef2072 	uxtbne	r2, r2
   138b8:	1afffffa 	bne	138a8 <utf8_strlen+0x34>
   138bc:	e1a00007 	mov	r0, r7
   138c0:	e1a01008 	mov	r1, r8
   138c4:	e3a02041 	mov	r2, #65	; 0x41
   138c8:	e1a03005 	mov	r3, r5
   138cc:	ebfff6bf 	bl	113d0 <_init+0x2e8>
   138d0:	e0844005 	add	r4, r4, r5
   138d4:	ea000000 	b	138dc <utf8_strlen+0x68>
   138d8:	e2844001 	add	r4, r4, #1
   138dc:	e2866001 	add	r6, r6, #1
   138e0:	eaffffea 	b	13890 <utf8_strlen+0x1c>
   138e4:	e1a00006 	mov	r0, r6
   138e8:	e8bd81f0 	pop	{r4, r5, r6, r7, r8, pc}
   138ec:	0000517a 	andeq	r5, r0, sl, ror r1
   138f0:	0000519f 	muleq	r0, pc, r1	; <UNPREDICTABLE>

000138f4 <add_x_www_couple>:
   138f4:	e92d41f0 	push	{r4, r5, r6, r7, r8, lr}
   138f8:	e1a05003 	mov	r5, r3
   138fc:	e5d13000 	ldrb	r3, [r1]
   13900:	e1a08001 	mov	r8, r1
   13904:	e3530000 	cmp	r3, #0
   13908:	0a000005 	beq	13924 <add_x_www_couple+0x30>
   1390c:	e5d23000 	ldrb	r3, [r2]
   13910:	e1a07002 	mov	r7, r2
   13914:	e3530000 	cmp	r3, #0
   13918:	0a000001 	beq	13924 <add_x_www_couple+0x30>
   1391c:	e3550000 	cmp	r5, #0
   13920:	ca000006 	bgt	13940 <add_x_www_couple+0x4c>
   13924:	e59f0214 	ldr	r0, [pc, #532]	; 13b40 <add_x_www_couple+0x24c>
   13928:	e59f1214 	ldr	r1, [pc, #532]	; 13b44 <add_x_www_couple+0x250>
   1392c:	e3a02050 	mov	r2, #80	; 0x50
   13930:	e08f1001 	add	r1, pc, r1
   13934:	e08f0000 	add	r0, pc, r0
   13938:	ebfff6a4 	bl	113d0 <_init+0x2e8>
   1393c:	ea00007d 	b	13b38 <add_x_www_couple+0x244>
   13940:	e1a04000 	mov	r4, r0
   13944:	ebfff62c 	bl	111fc <_init+0x114>
   13948:	e3a0e025 	mov	lr, #37	; 0x25
   1394c:	e0846000 	add	r6, r4, r0
   13950:	e1560004 	cmp	r6, r4
   13954:	13a02026 	movne	r2, #38	; 0x26
   13958:	12863001 	addne	r3, r6, #1
   1395c:	17c42000 	strbne	r2, [r4, r0]
   13960:	01a03006 	moveq	r3, r6
   13964:	e1a02008 	mov	r2, r8
   13968:	e3a0802b 	mov	r8, #43	; 0x2b
   1396c:	e4d2c001 	ldrb	ip, [r2], #1
   13970:	e2831001 	add	r1, r3, #1
   13974:	e35c0000 	cmp	ip, #0
   13978:	0a00002a 	beq	13a28 <add_x_www_couple+0x134>
   1397c:	e3cc0020 	bic	r0, ip, #32
   13980:	e2400041 	sub	r0, r0, #65	; 0x41
   13984:	e3500019 	cmp	r0, #25
   13988:	9a000007 	bls	139ac <add_x_www_couple+0xb8>
   1398c:	e24c0030 	sub	r0, ip, #48	; 0x30
   13990:	e3500009 	cmp	r0, #9
   13994:	9a000004 	bls	139ac <add_x_www_couple+0xb8>
   13998:	e24c002d 	sub	r0, ip, #45	; 0x2d
   1399c:	e3500001 	cmp	r0, #1
   139a0:	9a000001 	bls	139ac <add_x_www_couple+0xb8>
   139a4:	e35c005f 	cmp	ip, #95	; 0x5f
   139a8:	1a000001 	bne	139b4 <add_x_www_couple+0xc0>
   139ac:	e5c3c000 	strb	ip, [r3]
   139b0:	ea000017 	b	13a14 <add_x_www_couple+0x120>
   139b4:	e35c0020 	cmp	ip, #32
   139b8:	05c38000 	strbeq	r8, [r3]
   139bc:	0a000014 	beq	13a14 <add_x_www_couple+0x120>
   139c0:	e0641001 	rsb	r1, r4, r1
   139c4:	e1510005 	cmp	r1, r5
   139c8:	e5c3e000 	strb	lr, [r3]
   139cc:	aa00004e 	bge	13b0c <add_x_www_couple+0x218>
   139d0:	e5521001 	ldrb	r1, [r2, #-1]
   139d4:	e2830002 	add	r0, r3, #2
   139d8:	e1a01221 	lsr	r1, r1, #4
   139dc:	e3510009 	cmp	r1, #9
   139e0:	82811037 	addhi	r1, r1, #55	; 0x37
   139e4:	92811030 	addls	r1, r1, #48	; 0x30
   139e8:	e5c31001 	strb	r1, [r3, #1]
   139ec:	e0641000 	rsb	r1, r4, r0
   139f0:	e1510005 	cmp	r1, r5
   139f4:	aa000044 	bge	13b0c <add_x_www_couple+0x218>
   139f8:	e5520001 	ldrb	r0, [r2, #-1]
   139fc:	e2831003 	add	r1, r3, #3
   13a00:	e200000f 	and	r0, r0, #15
   13a04:	e3500009 	cmp	r0, #9
   13a08:	82800037 	addhi	r0, r0, #55	; 0x37
   13a0c:	92800030 	addls	r0, r0, #48	; 0x30
   13a10:	e5c30002 	strb	r0, [r3, #2]
   13a14:	e0643001 	rsb	r3, r4, r1
   13a18:	e1530005 	cmp	r3, r5
   13a1c:	aa00003a 	bge	13b0c <add_x_www_couple+0x218>
   13a20:	e1a03001 	mov	r3, r1
   13a24:	eaffffd0 	b	1396c <add_x_www_couple+0x78>
   13a28:	e3a0203d 	mov	r2, #61	; 0x3d
   13a2c:	e5c32000 	strb	r2, [r3]
   13a30:	e0643001 	rsb	r3, r4, r1
   13a34:	e1530005 	cmp	r3, r5
   13a38:	aa000033 	bge	13b0c <add_x_www_couple+0x218>
   13a3c:	e1a02007 	mov	r2, r7
   13a40:	e3a00025 	mov	r0, #37	; 0x25
   13a44:	e3a0e02b 	mov	lr, #43	; 0x2b
   13a48:	e4d23001 	ldrb	r3, [r2], #1
   13a4c:	e3530000 	cmp	r3, #0
   13a50:	0a00002b 	beq	13b04 <add_x_www_couple+0x210>
   13a54:	e3c3c020 	bic	ip, r3, #32
   13a58:	e24cc041 	sub	ip, ip, #65	; 0x41
   13a5c:	e35c0019 	cmp	ip, #25
   13a60:	e281c001 	add	ip, r1, #1
   13a64:	9a000007 	bls	13a88 <add_x_www_couple+0x194>
   13a68:	e2437030 	sub	r7, r3, #48	; 0x30
   13a6c:	e3570009 	cmp	r7, #9
   13a70:	9a000004 	bls	13a88 <add_x_www_couple+0x194>
   13a74:	e243702d 	sub	r7, r3, #45	; 0x2d
   13a78:	e3570001 	cmp	r7, #1
   13a7c:	9a000001 	bls	13a88 <add_x_www_couple+0x194>
   13a80:	e353005f 	cmp	r3, #95	; 0x5f
   13a84:	1a000001 	bne	13a90 <add_x_www_couple+0x19c>
   13a88:	e5c13000 	strb	r3, [r1]
   13a8c:	ea000017 	b	13af0 <add_x_www_couple+0x1fc>
   13a90:	e3530020 	cmp	r3, #32
   13a94:	05c1e000 	strbeq	lr, [r1]
   13a98:	0a000014 	beq	13af0 <add_x_www_couple+0x1fc>
   13a9c:	e064c00c 	rsb	ip, r4, ip
   13aa0:	e15c0005 	cmp	ip, r5
   13aa4:	e5c10000 	strb	r0, [r1]
   13aa8:	aa000017 	bge	13b0c <add_x_www_couple+0x218>
   13aac:	e5523001 	ldrb	r3, [r2, #-1]
   13ab0:	e281c002 	add	ip, r1, #2
   13ab4:	e1a03223 	lsr	r3, r3, #4
   13ab8:	e3530009 	cmp	r3, #9
   13abc:	82833037 	addhi	r3, r3, #55	; 0x37
   13ac0:	92833030 	addls	r3, r3, #48	; 0x30
   13ac4:	e5c13001 	strb	r3, [r1, #1]
   13ac8:	e064300c 	rsb	r3, r4, ip
   13acc:	e1530005 	cmp	r3, r5
   13ad0:	aa00000d 	bge	13b0c <add_x_www_couple+0x218>
   13ad4:	e5523001 	ldrb	r3, [r2, #-1]
   13ad8:	e281c003 	add	ip, r1, #3
   13adc:	e203300f 	and	r3, r3, #15
   13ae0:	e3530009 	cmp	r3, #9
   13ae4:	82833037 	addhi	r3, r3, #55	; 0x37
   13ae8:	92833030 	addls	r3, r3, #48	; 0x30
   13aec:	e5c13002 	strb	r3, [r1, #2]
   13af0:	e064300c 	rsb	r3, r4, ip
   13af4:	e1530005 	cmp	r3, r5
   13af8:	aa000003 	bge	13b0c <add_x_www_couple+0x218>
   13afc:	e1a0100c 	mov	r1, ip
   13b00:	eaffffd0 	b	13a48 <add_x_www_couple+0x154>
   13b04:	e1a00003 	mov	r0, r3
   13b08:	e8bd81f0 	pop	{r4, r5, r6, r7, r8, pc}
   13b0c:	e59f0034 	ldr	r0, [pc, #52]	; 13b48 <add_x_www_couple+0x254>
   13b10:	e59f1034 	ldr	r1, [pc, #52]	; 13b4c <add_x_www_couple+0x258>
   13b14:	e3a02098 	mov	r2, #152	; 0x98
   13b18:	e08f1001 	add	r1, pc, r1
   13b1c:	e08f0000 	add	r0, pc, r0
   13b20:	ebfff62a 	bl	113d0 <_init+0x2e8>
   13b24:	e0662004 	rsb	r2, r6, r4
   13b28:	e1a00006 	mov	r0, r6
   13b2c:	e3a01000 	mov	r1, #0
   13b30:	e0852002 	add	r2, r5, r2
   13b34:	ebfff5e9 	bl	112e0 <_init+0x1f8>
   13b38:	e3e00000 	mvn	r0, #0
   13b3c:	e8bd81f0 	pop	{r4, r5, r6, r7, r8, pc}
   13b40:	00005103 	andeq	r5, r0, r3, lsl #2
   13b44:	000050fb 	strdeq	r5, [r0], -fp
   13b48:	00004f4b 	andeq	r4, r0, fp, asr #30
   13b4c:	00004f13 	andeq	r4, r0, r3, lsl pc

00013b50 <sizeof_x_www_format>:
   13b50:	e2400001 	sub	r0, r0, #1
   13b54:	e3a02000 	mov	r2, #0
   13b58:	e5f03001 	ldrb	r3, [r0, #1]!
   13b5c:	e3530000 	cmp	r3, #0
   13b60:	0a000010 	beq	13ba8 <sizeof_x_www_format+0x58>
   13b64:	e3530020 	cmp	r3, #32
   13b68:	0a00000c 	beq	13ba0 <sizeof_x_www_format+0x50>
   13b6c:	e243102d 	sub	r1, r3, #45	; 0x2d
   13b70:	e3510001 	cmp	r1, #1
   13b74:	9a000009 	bls	13ba0 <sizeof_x_www_format+0x50>
   13b78:	e353005f 	cmp	r3, #95	; 0x5f
   13b7c:	0a000007 	beq	13ba0 <sizeof_x_www_format+0x50>
   13b80:	e3c31020 	bic	r1, r3, #32
   13b84:	e2411041 	sub	r1, r1, #65	; 0x41
   13b88:	e3510019 	cmp	r1, #25
   13b8c:	9a000003 	bls	13ba0 <sizeof_x_www_format+0x50>
   13b90:	e2433030 	sub	r3, r3, #48	; 0x30
   13b94:	e3530009 	cmp	r3, #9
   13b98:	82822003 	addhi	r2, r2, #3
   13b9c:	8affffed 	bhi	13b58 <sizeof_x_www_format+0x8>
   13ba0:	e2822001 	add	r2, r2, #1
   13ba4:	eaffffeb 	b	13b58 <sizeof_x_www_format+0x8>
   13ba8:	e2820001 	add	r0, r2, #1
   13bac:	e12fff1e 	bx	lr

00013bb0 <cJSON_strcasecmp>:
   13bb0:	e92d4010 	push	{r4, lr}
   13bb4:	e59f306c 	ldr	r3, [pc, #108]	; 13c28 <cJSON_strcasecmp+0x78>
   13bb8:	e2504000 	subs	r4, r0, #0
   13bbc:	e08f3003 	add	r3, pc, r3
   13bc0:	1a000002 	bne	13bd0 <cJSON_strcasecmp+0x20>
   13bc4:	e2910000 	adds	r0, r1, #0
   13bc8:	13a00001 	movne	r0, #1
   13bcc:	e8bd8010 	pop	{r4, pc}
   13bd0:	e3510000 	cmp	r1, #0
   13bd4:	0a000011 	beq	13c20 <cJSON_strcasecmp+0x70>
   13bd8:	e59f204c 	ldr	r2, [pc, #76]	; 13c2c <cJSON_strcasecmp+0x7c>
   13bdc:	e7933002 	ldr	r3, [r3, r2]
   13be0:	e593e000 	ldr	lr, [r3]
   13be4:	e3a03000 	mov	r3, #0
   13be8:	e7d40003 	ldrb	r0, [r4, r3]
   13bec:	e7d12003 	ldrb	r2, [r1, r3]
   13bf0:	e1a0c080 	lsl	ip, r0, #1
   13bf4:	e1a02082 	lsl	r2, r2, #1
   13bf8:	e19ec0fc 	ldrsh	ip, [lr, ip]
   13bfc:	e19e20f2 	ldrsh	r2, [lr, r2]
   13c00:	e15c0002 	cmp	ip, r2
   13c04:	1a000003 	bne	13c18 <cJSON_strcasecmp+0x68>
   13c08:	e3500000 	cmp	r0, #0
   13c0c:	e2833001 	add	r3, r3, #1
   13c10:	1afffff4 	bne	13be8 <cJSON_strcasecmp+0x38>
   13c14:	e8bd8010 	pop	{r4, pc}
   13c18:	e062000c 	rsb	r0, r2, ip
   13c1c:	e8bd8010 	pop	{r4, pc}
   13c20:	e3a00001 	mov	r0, #1
   13c24:	e8bd8010 	pop	{r4, pc}
   13c28:	00015878 	andeq	r5, r1, r8, ror r8
   13c2c:	00000140 	andeq	r0, r0, r0, asr #2

00013c30 <parse_hex4>:
   13c30:	e5d03000 	ldrb	r3, [r0]
   13c34:	e2432030 	sub	r2, r3, #48	; 0x30
   13c38:	e6ef1072 	uxtb	r1, r2
   13c3c:	e3510009 	cmp	r1, #9
   13c40:	91a03002 	movls	r3, r2
   13c44:	9a000007 	bls	13c68 <parse_hex4+0x38>
   13c48:	e2432041 	sub	r2, r3, #65	; 0x41
   13c4c:	e3520005 	cmp	r2, #5
   13c50:	92433037 	subls	r3, r3, #55	; 0x37
   13c54:	9a000003 	bls	13c68 <parse_hex4+0x38>
   13c58:	e2432061 	sub	r2, r3, #97	; 0x61
   13c5c:	e3520005 	cmp	r2, #5
   13c60:	8a000030 	bhi	13d28 <parse_hex4+0xf8>
   13c64:	e2433057 	sub	r3, r3, #87	; 0x57
   13c68:	e5d02001 	ldrb	r2, [r0, #1]
   13c6c:	e1a03203 	lsl	r3, r3, #4
   13c70:	e2421030 	sub	r1, r2, #48	; 0x30
   13c74:	e6efc071 	uxtb	ip, r1
   13c78:	e35c0009 	cmp	ip, #9
   13c7c:	90812003 	addls	r2, r1, r3
   13c80:	9a000008 	bls	13ca8 <parse_hex4+0x78>
   13c84:	e2421041 	sub	r1, r2, #65	; 0x41
   13c88:	e3510005 	cmp	r1, #5
   13c8c:	92422037 	subls	r2, r2, #55	; 0x37
   13c90:	9a000003 	bls	13ca4 <parse_hex4+0x74>
   13c94:	e2421061 	sub	r1, r2, #97	; 0x61
   13c98:	e3510005 	cmp	r1, #5
   13c9c:	8a000021 	bhi	13d28 <parse_hex4+0xf8>
   13ca0:	e2422057 	sub	r2, r2, #87	; 0x57
   13ca4:	e0822003 	add	r2, r2, r3
   13ca8:	e5d03002 	ldrb	r3, [r0, #2]
   13cac:	e1a02202 	lsl	r2, r2, #4
   13cb0:	e2431030 	sub	r1, r3, #48	; 0x30
   13cb4:	e6efc071 	uxtb	ip, r1
   13cb8:	e35c0009 	cmp	ip, #9
   13cbc:	90812002 	addls	r2, r1, r2
   13cc0:	9a000008 	bls	13ce8 <parse_hex4+0xb8>
   13cc4:	e2431041 	sub	r1, r3, #65	; 0x41
   13cc8:	e3510005 	cmp	r1, #5
   13ccc:	92433037 	subls	r3, r3, #55	; 0x37
   13cd0:	9a000003 	bls	13ce4 <parse_hex4+0xb4>
   13cd4:	e2431061 	sub	r1, r3, #97	; 0x61
   13cd8:	e3510005 	cmp	r1, #5
   13cdc:	8a000011 	bhi	13d28 <parse_hex4+0xf8>
   13ce0:	e2433057 	sub	r3, r3, #87	; 0x57
   13ce4:	e0832002 	add	r2, r3, r2
   13ce8:	e5d03003 	ldrb	r3, [r0, #3]
   13cec:	e1a02202 	lsl	r2, r2, #4
   13cf0:	e2430030 	sub	r0, r3, #48	; 0x30
   13cf4:	e6ef1070 	uxtb	r1, r0
   13cf8:	e3510009 	cmp	r1, #9
   13cfc:	9a000007 	bls	13d20 <parse_hex4+0xf0>
   13d00:	e2431041 	sub	r1, r3, #65	; 0x41
   13d04:	e3510005 	cmp	r1, #5
   13d08:	92430037 	subls	r0, r3, #55	; 0x37
   13d0c:	9a000003 	bls	13d20 <parse_hex4+0xf0>
   13d10:	e2431061 	sub	r1, r3, #97	; 0x61
   13d14:	e3510005 	cmp	r1, #5
   13d18:	8a000002 	bhi	13d28 <parse_hex4+0xf8>
   13d1c:	e2430057 	sub	r0, r3, #87	; 0x57
   13d20:	e0800002 	add	r0, r0, r2
   13d24:	e12fff1e 	bx	lr
   13d28:	e3a00000 	mov	r0, #0
   13d2c:	e12fff1e 	bx	lr

00013d30 <parse_string>:
   13d30:	e92d4ff7 	push	{r0, r1, r2, r4, r5, r6, r7, r8, r9, sl, fp, lr}
   13d34:	e5d13000 	ldrb	r3, [r1]
   13d38:	e2816001 	add	r6, r1, #1
   13d3c:	e3530022 	cmp	r3, #34	; 0x22
   13d40:	01a09000 	moveq	r9, r0
   13d44:	01a03006 	moveq	r3, r6
   13d48:	03a00000 	moveq	r0, #0
   13d4c:	0a000009 	beq	13d78 <parse_string+0x48>
   13d50:	e59f3260 	ldr	r3, [pc, #608]	; 13fb8 <parse_string+0x288>
   13d54:	e3a00000 	mov	r0, #0
   13d58:	e08f3003 	add	r3, pc, r3
   13d5c:	e5831000 	str	r1, [r3]
   13d60:	ea000092 	b	13fb0 <parse_string+0x280>
   13d64:	e2900001 	adds	r0, r0, #1
   13d68:	0a000006 	beq	13d88 <parse_string+0x58>
   13d6c:	e352005c 	cmp	r2, #92	; 0x5c
   13d70:	12833001 	addne	r3, r3, #1
   13d74:	02833002 	addeq	r3, r3, #2
   13d78:	e5d32000 	ldrb	r2, [r3]
   13d7c:	e3520000 	cmp	r2, #0
   13d80:	13520022 	cmpne	r2, #34	; 0x22
   13d84:	1afffff6 	bne	13d64 <parse_string+0x34>
   13d88:	e59f322c 	ldr	r3, [pc, #556]	; 13fbc <parse_string+0x28c>
   13d8c:	e2800001 	add	r0, r0, #1
   13d90:	e08f3003 	add	r3, pc, r3
   13d94:	e5933000 	ldr	r3, [r3]
   13d98:	e12fff33 	blx	r3
   13d9c:	e2507000 	subs	r7, r0, #0
   13da0:	0a000081 	beq	13fac <parse_string+0x27c>
   13da4:	e59f2214 	ldr	r2, [pc, #532]	; 13fc0 <parse_string+0x290>
   13da8:	e1a04007 	mov	r4, r7
   13dac:	e08f2002 	add	r2, pc, r2
   13db0:	e30083ff 	movw	r8, #1023	; 0x3ff
   13db4:	e30fafff 	movw	sl, #65535	; 0xffff
   13db8:	e300b7ff 	movw	fp, #2047	; 0x7ff
   13dbc:	e58d2004 	str	r2, [sp, #4]
   13dc0:	e5d63000 	ldrb	r3, [r6]
   13dc4:	e3530000 	cmp	r3, #0
   13dc8:	13530022 	cmpne	r3, #34	; 0x22
   13dcc:	13a02001 	movne	r2, #1
   13dd0:	03a02000 	moveq	r2, #0
   13dd4:	0a00006b 	beq	13f88 <parse_string+0x258>
   13dd8:	e353005c 	cmp	r3, #92	; 0x5c
   13ddc:	e2861001 	add	r1, r6, #1
   13de0:	15c43000 	strbne	r3, [r4]
   13de4:	11a06001 	movne	r6, r1
   13de8:	12844001 	addne	r4, r4, #1
   13dec:	1afffff3 	bne	13dc0 <parse_string+0x90>
   13df0:	e5d63001 	ldrb	r3, [r6, #1]
   13df4:	e353006e 	cmp	r3, #110	; 0x6e
   13df8:	0a000012 	beq	13e48 <parse_string+0x118>
   13dfc:	8a000006 	bhi	13e1c <parse_string+0xec>
   13e00:	e3530062 	cmp	r3, #98	; 0x62
   13e04:	e2842001 	add	r2, r4, #1
   13e08:	0a00000a 	beq	13e38 <parse_string+0x108>
   13e0c:	e3530066 	cmp	r3, #102	; 0x66
   13e10:	03a0300c 	moveq	r3, #12
   13e14:	0a000008 	beq	13e3c <parse_string+0x10c>
   13e18:	ea000056 	b	13f78 <parse_string+0x248>
   13e1c:	e3530074 	cmp	r3, #116	; 0x74
   13e20:	0a00000a 	beq	13e50 <parse_string+0x120>
   13e24:	e3530075 	cmp	r3, #117	; 0x75
   13e28:	0a00000b 	beq	13e5c <parse_string+0x12c>
   13e2c:	e3530072 	cmp	r3, #114	; 0x72
   13e30:	03a0300d 	moveq	r3, #13
   13e34:	ea00004f 	b	13f78 <parse_string+0x248>
   13e38:	e3a03008 	mov	r3, #8
   13e3c:	e5c43000 	strb	r3, [r4]
   13e40:	e1a04002 	mov	r4, r2
   13e44:	ea00004d 	b	13f80 <parse_string+0x250>
   13e48:	e3a0300a 	mov	r3, #10
   13e4c:	ea000049 	b	13f78 <parse_string+0x248>
   13e50:	e3a0c009 	mov	ip, #9
   13e54:	e5c4c000 	strb	ip, [r4]
   13e58:	ea000047 	b	13f7c <parse_string+0x24c>
   13e5c:	e2860002 	add	r0, r6, #2
   13e60:	ebffff72 	bl	13c30 <parse_hex4>
   13e64:	e2861005 	add	r1, r6, #5
   13e68:	e2403b37 	sub	r3, r0, #56320	; 0xdc00
   13e6c:	e3500000 	cmp	r0, #0
   13e70:	11530008 	cmpne	r3, r8
   13e74:	e1a05000 	mov	r5, r0
   13e78:	9a000040 	bls	13f80 <parse_string+0x250>
   13e7c:	e2403b36 	sub	r3, r0, #55296	; 0xd800
   13e80:	e1530008 	cmp	r3, r8
   13e84:	8a000011 	bhi	13ed0 <parse_string+0x1a0>
   13e88:	e5d63006 	ldrb	r3, [r6, #6]
   13e8c:	e353005c 	cmp	r3, #92	; 0x5c
   13e90:	1a00003a 	bne	13f80 <parse_string+0x250>
   13e94:	e5d63007 	ldrb	r3, [r6, #7]
   13e98:	e3530075 	cmp	r3, #117	; 0x75
   13e9c:	1a000037 	bne	13f80 <parse_string+0x250>
   13ea0:	e2860008 	add	r0, r6, #8
   13ea4:	ebffff61 	bl	13c30 <parse_hex4>
   13ea8:	e30023ff 	movw	r2, #1023	; 0x3ff
   13eac:	e286100b 	add	r1, r6, #11
   13eb0:	e2403b37 	sub	r3, r0, #56320	; 0xdc00
   13eb4:	e1530002 	cmp	r3, r2
   13eb8:	8a000030 	bhi	13f80 <parse_string+0x250>
   13ebc:	e7e95055 	ubfx	r5, r5, #0, #10
   13ec0:	e7e90050 	ubfx	r0, r0, #0, #10
   13ec4:	e1805505 	orr	r5, r0, r5, lsl #10
   13ec8:	e2855801 	add	r5, r5, #65536	; 0x10000
   13ecc:	ea000005 	b	13ee8 <parse_string+0x1b8>
   13ed0:	e350007f 	cmp	r0, #127	; 0x7f
   13ed4:	93a02001 	movls	r2, #1
   13ed8:	9a000005 	bls	13ef4 <parse_string+0x1c4>
   13edc:	e150000b 	cmp	r0, fp
   13ee0:	93a02002 	movls	r2, #2
   13ee4:	9a000002 	bls	13ef4 <parse_string+0x1c4>
   13ee8:	e155000a 	cmp	r5, sl
   13eec:	93a02003 	movls	r2, #3
   13ef0:	83a02004 	movhi	r2, #4
   13ef4:	e3520003 	cmp	r2, #3
   13ef8:	e0843002 	add	r3, r4, r2
   13efc:	0a00000a 	beq	13f2c <parse_string+0x1fc>
   13f00:	e3520004 	cmp	r2, #4
   13f04:	0a000002 	beq	13f14 <parse_string+0x1e4>
   13f08:	e3520002 	cmp	r2, #2
   13f0c:	1a000012 	bne	13f5c <parse_string+0x22c>
   13f10:	ea00000b 	b	13f44 <parse_string+0x214>
   13f14:	e205003f 	and	r0, r5, #63	; 0x3f
   13f18:	e1a05325 	lsr	r5, r5, #6
   13f1c:	e1e00c80 	mvn	r0, r0, lsl #25
   13f20:	e1e00ca0 	mvn	r0, r0, lsr #25
   13f24:	e5430001 	strb	r0, [r3, #-1]
   13f28:	e2843003 	add	r3, r4, #3
   13f2c:	e205003f 	and	r0, r5, #63	; 0x3f
   13f30:	e2433001 	sub	r3, r3, #1
   13f34:	e1e00c80 	mvn	r0, r0, lsl #25
   13f38:	e1a05325 	lsr	r5, r5, #6
   13f3c:	e1e00ca0 	mvn	r0, r0, lsr #25
   13f40:	e5c30000 	strb	r0, [r3]
   13f44:	e205003f 	and	r0, r5, #63	; 0x3f
   13f48:	e2433001 	sub	r3, r3, #1
   13f4c:	e1e00c80 	mvn	r0, r0, lsl #25
   13f50:	e1a05325 	lsr	r5, r5, #6
   13f54:	e1e00ca0 	mvn	r0, r0, lsr #25
   13f58:	e5c30000 	strb	r0, [r3]
   13f5c:	e59dc004 	ldr	ip, [sp, #4]
   13f60:	e2434001 	sub	r4, r3, #1
   13f64:	e7dc0002 	ldrb	r0, [ip, r2]
   13f68:	e0844002 	add	r4, r4, r2
   13f6c:	e1855000 	orr	r5, r5, r0
   13f70:	e5435001 	strb	r5, [r3, #-1]
   13f74:	ea000001 	b	13f80 <parse_string+0x250>
   13f78:	e5c43000 	strb	r3, [r4]
   13f7c:	e2844001 	add	r4, r4, #1
   13f80:	e2816001 	add	r6, r1, #1
   13f84:	eaffff8d 	b	13dc0 <parse_string+0x90>
   13f88:	e5c42000 	strb	r2, [r4]
   13f8c:	e5d63000 	ldrb	r3, [r6]
   13f90:	e5897010 	str	r7, [r9, #16]
   13f94:	e3530022 	cmp	r3, #34	; 0x22
   13f98:	e3a03004 	mov	r3, #4
   13f9c:	02866001 	addeq	r6, r6, #1
   13fa0:	e589300c 	str	r3, [r9, #12]
   13fa4:	e1a00006 	mov	r0, r6
   13fa8:	ea000000 	b	13fb0 <parse_string+0x280>
   13fac:	e1a00007 	mov	r0, r7
   13fb0:	e28dd00c 	add	sp, sp, #12
   13fb4:	e8bd8ff0 	pop	{r4, r5, r6, r7, r8, r9, sl, fp, pc}
   13fb8:	00015a24 	andeq	r5, r1, r4, lsr #20
   13fbc:	0001581c 	andeq	r5, r1, ip, lsl r8
   13fc0:	00004cf9 	strdeq	r4, [r0], -r9

00013fc4 <skip>:
   13fc4:	e1a03000 	mov	r3, r0
   13fc8:	e2530000 	subs	r0, r3, #0
   13fcc:	012fff1e 	bxeq	lr
   13fd0:	e5d02000 	ldrb	r2, [r0]
   13fd4:	e2833001 	add	r3, r3, #1
   13fd8:	e2422001 	sub	r2, r2, #1
   13fdc:	e352001f 	cmp	r2, #31
   13fe0:	9afffff8 	bls	13fc8 <skip+0x4>
   13fe4:	e12fff1e 	bx	lr

00013fe8 <cJSON_New_Item>:
   13fe8:	e59f302c 	ldr	r3, [pc, #44]	; 1401c <cJSON_New_Item+0x34>
   13fec:	e92d4010 	push	{r4, lr}
   13ff0:	e3a00028 	mov	r0, #40	; 0x28
   13ff4:	e08f3003 	add	r3, pc, r3
   13ff8:	e5933000 	ldr	r3, [r3]
   13ffc:	e12fff33 	blx	r3
   14000:	e2504000 	subs	r4, r0, #0
   14004:	0a000002 	beq	14014 <cJSON_New_Item+0x2c>
   14008:	e3a01000 	mov	r1, #0
   1400c:	e3a02028 	mov	r2, #40	; 0x28
   14010:	ebfff4b2 	bl	112e0 <_init+0x1f8>
   14014:	e1a00004 	mov	r0, r4
   14018:	e8bd8010 	pop	{r4, pc}
   1401c:	000155b8 			; <UNDEFINED> instruction: 0x000155b8

00014020 <cJSON_strdup>:
   14020:	e92d4070 	push	{r4, r5, r6, lr}
   14024:	e1a06000 	mov	r6, r0
   14028:	ebfff473 	bl	111fc <_init+0x114>
   1402c:	e59f302c 	ldr	r3, [pc, #44]	; 14060 <cJSON_strdup+0x40>
   14030:	e08f3003 	add	r3, pc, r3
   14034:	e2804001 	add	r4, r0, #1
   14038:	e5933000 	ldr	r3, [r3]
   1403c:	e1a00004 	mov	r0, r4
   14040:	e12fff33 	blx	r3
   14044:	e2505000 	subs	r5, r0, #0
   14048:	0a000002 	beq	14058 <cJSON_strdup+0x38>
   1404c:	e1a01006 	mov	r1, r6
   14050:	e1a02004 	mov	r2, r4
   14054:	ebfff441 	bl	11160 <_init+0x78>
   14058:	e1a00005 	mov	r0, r5
   1405c:	e8bd8070 	pop	{r4, r5, r6, pc}
   14060:	0001557c 	andeq	r5, r1, ip, ror r5

00014064 <create_reference>:
   14064:	e92d4010 	push	{r4, lr}
   14068:	e1a04000 	mov	r4, r0
   1406c:	ebffffdd 	bl	13fe8 <cJSON_New_Item>
   14070:	e2503000 	subs	r3, r0, #0
   14074:	0a00000d 	beq	140b0 <create_reference+0x4c>
   14078:	e1a00004 	mov	r0, r4
   1407c:	e1a02003 	mov	r2, r3
   14080:	e2841028 	add	r1, r4, #40	; 0x28
   14084:	e490c004 	ldr	ip, [r0], #4
   14088:	e1500001 	cmp	r0, r1
   1408c:	e482c004 	str	ip, [r2], #4
   14090:	1afffffb 	bne	14084 <create_reference+0x20>
   14094:	e593100c 	ldr	r1, [r3, #12]
   14098:	e3a02000 	mov	r2, #0
   1409c:	e3811c01 	orr	r1, r1, #256	; 0x100
   140a0:	e5832020 	str	r2, [r3, #32]
   140a4:	e583100c 	str	r1, [r3, #12]
   140a8:	e5832004 	str	r2, [r3, #4]
   140ac:	e5832000 	str	r2, [r3]
   140b0:	e1a00003 	mov	r0, r3
   140b4:	e8bd8010 	pop	{r4, pc}

000140b8 <print_string_ptr>:
   140b8:	e92d43f8 	push	{r3, r4, r5, r6, r7, r8, r9, lr}
   140bc:	e2506000 	subs	r6, r0, #0
   140c0:	159f9160 	ldrne	r9, [pc, #352]	; 14228 <print_string_ptr+0x170>
   140c4:	12468001 	subne	r8, r6, #1
   140c8:	13a04000 	movne	r4, #0
   140cc:	108f9009 	addne	r9, pc, r9
   140d0:	1a00000e 	bne	14110 <print_string_ptr+0x58>
   140d4:	e59f0150 	ldr	r0, [pc, #336]	; 1422c <print_string_ptr+0x174>
   140d8:	e8bd43f8 	pop	{r3, r4, r5, r6, r7, r8, r9, lr}
   140dc:	e08f0000 	add	r0, pc, r0
   140e0:	eaffffce 	b	14020 <cJSON_strdup>
   140e4:	e2945001 	adds	r5, r4, #1
   140e8:	0a00000c 	beq	14120 <print_string_ptr+0x68>
   140ec:	e1a00009 	mov	r0, r9
   140f0:	e1a01007 	mov	r1, r7
   140f4:	ebfff4ac 	bl	113ac <_init+0x2c4>
   140f8:	e3500000 	cmp	r0, #0
   140fc:	12845002 	addne	r5, r4, #2
   14100:	1a000001 	bne	1410c <print_string_ptr+0x54>
   14104:	e357001f 	cmp	r7, #31
   14108:	92845006 	addls	r5, r4, #6
   1410c:	e1a04005 	mov	r4, r5
   14110:	e5f87001 	ldrb	r7, [r8, #1]!
   14114:	e3570000 	cmp	r7, #0
   14118:	1afffff1 	bne	140e4 <print_string_ptr+0x2c>
   1411c:	ea000000 	b	14124 <print_string_ptr+0x6c>
   14120:	e1a04005 	mov	r4, r5
   14124:	e59f3104 	ldr	r3, [pc, #260]	; 14230 <print_string_ptr+0x178>
   14128:	e2840003 	add	r0, r4, #3
   1412c:	e08f3003 	add	r3, pc, r3
   14130:	e5933000 	ldr	r3, [r3]
   14134:	e12fff33 	blx	r3
   14138:	e2505000 	subs	r5, r0, #0
   1413c:	0a000037 	beq	14220 <print_string_ptr+0x168>
   14140:	e59f90ec 	ldr	r9, [pc, #236]	; 14234 <print_string_ptr+0x17c>
   14144:	e3a03022 	mov	r3, #34	; 0x22
   14148:	e2854001 	add	r4, r5, #1
   1414c:	e3a0705c 	mov	r7, #92	; 0x5c
   14150:	e3a08066 	mov	r8, #102	; 0x66
   14154:	e08f9009 	add	r9, pc, r9
   14158:	e5c53000 	strb	r3, [r5]
   1415c:	e4d63001 	ldrb	r3, [r6], #1
   14160:	e3530000 	cmp	r3, #0
   14164:	0a00002a 	beq	14214 <print_string_ptr+0x15c>
   14168:	e3530022 	cmp	r3, #34	; 0x22
   1416c:	1353001f 	cmpne	r3, #31
   14170:	9a000003 	bls	14184 <print_string_ptr+0xcc>
   14174:	e353005c 	cmp	r3, #92	; 0x5c
   14178:	15c43000 	strbne	r3, [r4]
   1417c:	12844001 	addne	r4, r4, #1
   14180:	1afffff5 	bne	1415c <print_string_ptr+0xa4>
   14184:	e5c47000 	strb	r7, [r4]
   14188:	e5562001 	ldrb	r2, [r6, #-1]
   1418c:	e352000c 	cmp	r2, #12
   14190:	0a000012 	beq	141e0 <print_string_ptr+0x128>
   14194:	8a000007 	bhi	141b8 <print_string_ptr+0x100>
   14198:	e3520009 	cmp	r2, #9
   1419c:	0a000013 	beq	141f0 <print_string_ptr+0x138>
   141a0:	e352000a 	cmp	r2, #10
   141a4:	0a00000f 	beq	141e8 <print_string_ptr+0x130>
   141a8:	e3520008 	cmp	r2, #8
   141ac:	1a000013 	bne	14200 <print_string_ptr+0x148>
   141b0:	e3a03062 	mov	r3, #98	; 0x62
   141b4:	ea00000e 	b	141f4 <print_string_ptr+0x13c>
   141b8:	e3520022 	cmp	r2, #34	; 0x22
   141bc:	0a000005 	beq	141d8 <print_string_ptr+0x120>
   141c0:	e352005c 	cmp	r2, #92	; 0x5c
   141c4:	0a000003 	beq	141d8 <print_string_ptr+0x120>
   141c8:	e352000d 	cmp	r2, #13
   141cc:	1a00000b 	bne	14200 <print_string_ptr+0x148>
   141d0:	e3a03072 	mov	r3, #114	; 0x72
   141d4:	ea000006 	b	141f4 <print_string_ptr+0x13c>
   141d8:	e5c42001 	strb	r2, [r4, #1]
   141dc:	ea000005 	b	141f8 <print_string_ptr+0x140>
   141e0:	e5c48001 	strb	r8, [r4, #1]
   141e4:	ea000003 	b	141f8 <print_string_ptr+0x140>
   141e8:	e3a0306e 	mov	r3, #110	; 0x6e
   141ec:	ea000000 	b	141f4 <print_string_ptr+0x13c>
   141f0:	e3a03074 	mov	r3, #116	; 0x74
   141f4:	e5c43001 	strb	r3, [r4, #1]
   141f8:	e2844002 	add	r4, r4, #2
   141fc:	eaffffd6 	b	1415c <print_string_ptr+0xa4>
   14200:	e2840001 	add	r0, r4, #1
   14204:	e1a01009 	mov	r1, r9
   14208:	ebfff446 	bl	11328 <_init+0x240>
   1420c:	e2844006 	add	r4, r4, #6
   14210:	eaffffd1 	b	1415c <print_string_ptr+0xa4>
   14214:	e3a02022 	mov	r2, #34	; 0x22
   14218:	e5c43001 	strb	r3, [r4, #1]
   1421c:	e5c42000 	strb	r2, [r4]
   14220:	e1a00005 	mov	r0, r5
   14224:	e8bd83f8 	pop	{r3, r4, r5, r6, r7, r8, r9, pc}
   14228:	000049e0 	andeq	r4, r0, r0, ror #19
   1422c:	000049d7 	ldrdeq	r4, [r0], -r7
   14230:	00015480 	andeq	r5, r1, r0, lsl #9
   14234:	00004960 	andeq	r4, r0, r0, ror #18

00014238 <parse_value>:
   14238:	e92d40f8 	push	{r3, r4, r5, r6, r7, lr}
   1423c:	e2514000 	subs	r4, r1, #0
   14240:	ed2d8b02 	vpush	{d8}
   14244:	0a000117 	beq	146a8 <parse_value+0x470>
   14248:	e59f1470 	ldr	r1, [pc, #1136]	; 146c0 <parse_value+0x488>
   1424c:	e1a05000 	mov	r5, r0
   14250:	e08f1001 	add	r1, pc, r1
   14254:	e1a00004 	mov	r0, r4
   14258:	e3a02004 	mov	r2, #4
   1425c:	ebfff3d7 	bl	111c0 <_init+0xd8>
   14260:	e3500000 	cmp	r0, #0
   14264:	03a03002 	moveq	r3, #2
   14268:	0585300c 	streq	r3, [r5, #12]
   1426c:	0a000012 	beq	142bc <parse_value+0x84>
   14270:	e59f144c 	ldr	r1, [pc, #1100]	; 146c4 <parse_value+0x48c>
   14274:	e1a00004 	mov	r0, r4
   14278:	e08f1001 	add	r1, pc, r1
   1427c:	e3a02005 	mov	r2, #5
   14280:	ebfff3ce 	bl	111c0 <_init+0xd8>
   14284:	e3500000 	cmp	r0, #0
   14288:	0585000c 	streq	r0, [r5, #12]
   1428c:	02840005 	addeq	r0, r4, #5
   14290:	0a000105 	beq	146ac <parse_value+0x474>
   14294:	e59f142c 	ldr	r1, [pc, #1068]	; 146c8 <parse_value+0x490>
   14298:	e1a00004 	mov	r0, r4
   1429c:	e08f1001 	add	r1, pc, r1
   142a0:	e3a02004 	mov	r2, #4
   142a4:	ebfff3c5 	bl	111c0 <_init+0xd8>
   142a8:	e3500000 	cmp	r0, #0
   142ac:	1a000004 	bne	142c4 <parse_value+0x8c>
   142b0:	e3a03001 	mov	r3, #1
   142b4:	e585300c 	str	r3, [r5, #12]
   142b8:	e5853014 	str	r3, [r5, #20]
   142bc:	e2840004 	add	r0, r4, #4
   142c0:	ea0000f9 	b	146ac <parse_value+0x474>
   142c4:	e5d43000 	ldrb	r3, [r4]
   142c8:	e3530022 	cmp	r3, #34	; 0x22
   142cc:	1a000004 	bne	142e4 <parse_value+0xac>
   142d0:	e1a00005 	mov	r0, r5
   142d4:	ecbd8b02 	vpop	{d8}
   142d8:	e1a01004 	mov	r1, r4
   142dc:	e8bd40f8 	pop	{r3, r4, r5, r6, r7, lr}
   142e0:	eafffe92 	b	13d30 <parse_string>
   142e4:	e243102d 	sub	r1, r3, #45	; 0x2d
   142e8:	e16f1f11 	clz	r1, r1
   142ec:	e2432030 	sub	r2, r3, #48	; 0x30
   142f0:	e1a012a1 	lsr	r1, r1, #5
   142f4:	e3520009 	cmp	r2, #9
   142f8:	81a02001 	movhi	r2, r1
   142fc:	93812001 	orrls	r2, r1, #1
   14300:	e3520000 	cmp	r2, #0
   14304:	0a00005d 	beq	14480 <parse_value+0x248>
   14308:	e3510000 	cmp	r1, #0
   1430c:	12844001 	addne	r4, r4, #1
   14310:	1eff2b00 	vmovne.f64	d18, #240	; 0xf0
   14314:	e5d43000 	ldrb	r3, [r4]
   14318:	0ef72b00 	vmoveq.f64	d18, #112	; 0x70
   1431c:	e3530030 	cmp	r3, #48	; 0x30
   14320:	02844001 	addeq	r4, r4, #1
   14324:	e5d43000 	ldrb	r3, [r4]
   14328:	e2433031 	sub	r3, r3, #49	; 0x31
   1432c:	e3530008 	cmp	r3, #8
   14330:	8a00000f 	bhi	14374 <parse_value+0x13c>
   14334:	eddf0bdf 	vldr	d16, [pc, #892]	; 146b8 <parse_value+0x480>
   14338:	eef23b04 	vmov.f64	d19, #36	; 0x24
   1433c:	e2443001 	sub	r3, r4, #1
   14340:	e2834002 	add	r4, r3, #2
   14344:	e5f32001 	ldrb	r2, [r3, #1]!
   14348:	e2422030 	sub	r2, r2, #48	; 0x30
   1434c:	ee072a90 	vmov	s15, r2
   14350:	e5d32001 	ldrb	r2, [r3, #1]
   14354:	e2422030 	sub	r2, r2, #48	; 0x30
   14358:	eef81be7 	vcvt.f64.s32	d17, s15
   1435c:	e3520009 	cmp	r2, #9
   14360:	eef04b61 	vmov.f64	d20, d17
   14364:	ee404ba3 	vmla.f64	d20, d16, d19
   14368:	eef00b64 	vmov.f64	d16, d20
   1436c:	9afffff3 	bls	14340 <parse_value+0x108>
   14370:	ea000000 	b	14378 <parse_value+0x140>
   14374:	eddf0bcf 	vldr	d16, [pc, #828]	; 146b8 <parse_value+0x480>
   14378:	e5d43000 	ldrb	r3, [r4]
   1437c:	e353002e 	cmp	r3, #46	; 0x2e
   14380:	1a000015 	bne	143dc <parse_value+0x1a4>
   14384:	e5d43001 	ldrb	r3, [r4, #1]
   14388:	e2433030 	sub	r3, r3, #48	; 0x30
   1438c:	e3530009 	cmp	r3, #9
   14390:	8a000011 	bhi	143dc <parse_value+0x1a4>
   14394:	eddf1bc7 	vldr	d17, [pc, #796]	; 146b8 <parse_value+0x480>
   14398:	eef25b04 	vmov.f64	d21, #36	; 0x24
   1439c:	eef73b00 	vmov.f64	d19, #112	; 0x70
   143a0:	e1a03004 	mov	r3, r4
   143a4:	e2834002 	add	r4, r3, #2
   143a8:	e5f32001 	ldrb	r2, [r3, #1]!
   143ac:	ee711be3 	vsub.f64	d17, d17, d19
   143b0:	e2422030 	sub	r2, r2, #48	; 0x30
   143b4:	ee072a90 	vmov	s15, r2
   143b8:	e5d32001 	ldrb	r2, [r3, #1]
   143bc:	e2422030 	sub	r2, r2, #48	; 0x30
   143c0:	eef84be7 	vcvt.f64.s32	d20, s15
   143c4:	e3520009 	cmp	r2, #9
   143c8:	eef06b64 	vmov.f64	d22, d20
   143cc:	ee406ba5 	vmla.f64	d22, d16, d21
   143d0:	eef00b66 	vmov.f64	d16, d22
   143d4:	9afffff2 	bls	143a4 <parse_value+0x16c>
   143d8:	ea000000 	b	143e0 <parse_value+0x1a8>
   143dc:	eddf1bb5 	vldr	d17, [pc, #724]	; 146b8 <parse_value+0x480>
   143e0:	e5d43000 	ldrb	r3, [r4]
   143e4:	e20330df 	and	r3, r3, #223	; 0xdf
   143e8:	e3530045 	cmp	r3, #69	; 0x45
   143ec:	13a02001 	movne	r2, #1
   143f0:	13a03000 	movne	r3, #0
   143f4:	1a000013 	bne	14448 <parse_value+0x210>
   143f8:	e5d43001 	ldrb	r3, [r4, #1]
   143fc:	e353002b 	cmp	r3, #43	; 0x2b
   14400:	02841002 	addeq	r1, r4, #2
   14404:	0a000002 	beq	14414 <parse_value+0x1dc>
   14408:	e353002d 	cmp	r3, #45	; 0x2d
   1440c:	0a000002 	beq	1441c <parse_value+0x1e4>
   14410:	e2841001 	add	r1, r4, #1
   14414:	e3a02001 	mov	r2, #1
   14418:	ea000001 	b	14424 <parse_value+0x1ec>
   1441c:	e2841002 	add	r1, r4, #2
   14420:	e3e02000 	mvn	r2, #0
   14424:	e3a03000 	mov	r3, #0
   14428:	e3a0e00a 	mov	lr, #10
   1442c:	e1a04001 	mov	r4, r1
   14430:	e4d10001 	ldrb	r0, [r1], #1
   14434:	e2400030 	sub	r0, r0, #48	; 0x30
   14438:	e6efc070 	uxtb	ip, r0
   1443c:	e35c0009 	cmp	ip, #9
   14440:	9023039e 	mlals	r3, lr, r3, r0
   14444:	9afffff8 	bls	1442c <parse_value+0x1f4>
   14448:	e0030392 	mul	r3, r2, r3
   1444c:	ee228ba0 	vmul.f64	d8, d18, d16
   14450:	ee073a90 	vmov	s15, r3
   14454:	eeb20b04 	vmov.f64	d0, #36	; 0x24
   14458:	eeb81be7 	vcvt.f64.s32	d1, s15
   1445c:	ee311b81 	vadd.f64	d1, d17, d1
   14460:	ebfff3bc 	bl	11358 <_init+0x270>
   14464:	e3a03003 	mov	r3, #3
   14468:	e585300c 	str	r3, [r5, #12]
   1446c:	ee280b00 	vmul.f64	d0, d8, d0
   14470:	eefd7bc0 	vcvt.s32.f64	s15, d0
   14474:	ed850b06 	vstr	d0, [r5, #24]
   14478:	edc57a05 	vstr	s15, [r5, #20]
   1447c:	ea000089 	b	146a8 <parse_value+0x470>
   14480:	e353005b 	cmp	r3, #91	; 0x5b
   14484:	1a00002c 	bne	1453c <parse_value+0x304>
   14488:	e3a03005 	mov	r3, #5
   1448c:	e2840001 	add	r0, r4, #1
   14490:	e585300c 	str	r3, [r5, #12]
   14494:	ebfffeca 	bl	13fc4 <skip>
   14498:	e5d03000 	ldrb	r3, [r0]
   1449c:	e1a04000 	mov	r4, r0
   144a0:	e353005d 	cmp	r3, #93	; 0x5d
   144a4:	0a00002e 	beq	14564 <parse_value+0x32c>
   144a8:	ebfffece 	bl	13fe8 <cJSON_New_Item>
   144ac:	e3500000 	cmp	r0, #0
   144b0:	e1a06000 	mov	r6, r0
   144b4:	e5850008 	str	r0, [r5, #8]
   144b8:	0a000073 	beq	1468c <parse_value+0x454>
   144bc:	e1a00004 	mov	r0, r4
   144c0:	ebfffebf 	bl	13fc4 <skip>
   144c4:	e1a01000 	mov	r1, r0
   144c8:	e1a00006 	mov	r0, r6
   144cc:	ebffff59 	bl	14238 <parse_value>
   144d0:	ebfffebb 	bl	13fc4 <skip>
   144d4:	e2504000 	subs	r4, r0, #0
   144d8:	0a00006b 	beq	1468c <parse_value+0x454>
   144dc:	e5d43000 	ldrb	r3, [r4]
   144e0:	e353002c 	cmp	r3, #44	; 0x2c
   144e4:	1a00000e 	bne	14524 <parse_value+0x2ec>
   144e8:	ebfffebe 	bl	13fe8 <cJSON_New_Item>
   144ec:	e2505000 	subs	r5, r0, #0
   144f0:	0a000065 	beq	1468c <parse_value+0x454>
   144f4:	e5865000 	str	r5, [r6]
   144f8:	e2840001 	add	r0, r4, #1
   144fc:	e5856004 	str	r6, [r5, #4]
   14500:	ebfffeaf 	bl	13fc4 <skip>
   14504:	e1a01000 	mov	r1, r0
   14508:	e1a00005 	mov	r0, r5
   1450c:	ebffff49 	bl	14238 <parse_value>
   14510:	ebfffeab 	bl	13fc4 <skip>
   14514:	e2504000 	subs	r4, r0, #0
   14518:	0a00005b 	beq	1468c <parse_value+0x454>
   1451c:	e1a06005 	mov	r6, r5
   14520:	eaffffed 	b	144dc <parse_value+0x2a4>
   14524:	e353005d 	cmp	r3, #93	; 0x5d
   14528:	0a00000d 	beq	14564 <parse_value+0x32c>
   1452c:	e59f3198 	ldr	r3, [pc, #408]	; 146cc <parse_value+0x494>
   14530:	e08f3003 	add	r3, pc, r3
   14534:	e5834000 	str	r4, [r3]
   14538:	ea000053 	b	1468c <parse_value+0x454>
   1453c:	e353007b 	cmp	r3, #123	; 0x7b
   14540:	1a000053 	bne	14694 <parse_value+0x45c>
   14544:	e3a03006 	mov	r3, #6
   14548:	e2840001 	add	r0, r4, #1
   1454c:	e585300c 	str	r3, [r5, #12]
   14550:	ebfffe9b 	bl	13fc4 <skip>
   14554:	e5d03000 	ldrb	r3, [r0]
   14558:	e1a04000 	mov	r4, r0
   1455c:	e353007d 	cmp	r3, #125	; 0x7d
   14560:	1a000001 	bne	1456c <parse_value+0x334>
   14564:	e2840001 	add	r0, r4, #1
   14568:	ea00004f 	b	146ac <parse_value+0x474>
   1456c:	ebfffe9d 	bl	13fe8 <cJSON_New_Item>
   14570:	e3500000 	cmp	r0, #0
   14574:	e1a06000 	mov	r6, r0
   14578:	e5850008 	str	r0, [r5, #8]
   1457c:	0a000042 	beq	1468c <parse_value+0x454>
   14580:	e1a00004 	mov	r0, r4
   14584:	ebfffe8e 	bl	13fc4 <skip>
   14588:	e1a01000 	mov	r1, r0
   1458c:	e1a00006 	mov	r0, r6
   14590:	ebfffde6 	bl	13d30 <parse_string>
   14594:	ebfffe8a 	bl	13fc4 <skip>
   14598:	e3500000 	cmp	r0, #0
   1459c:	0a00003a 	beq	1468c <parse_value+0x454>
   145a0:	e5963010 	ldr	r3, [r6, #16]
   145a4:	e3a04000 	mov	r4, #0
   145a8:	e5863020 	str	r3, [r6, #32]
   145ac:	e5864010 	str	r4, [r6, #16]
   145b0:	e5d03000 	ldrb	r3, [r0]
   145b4:	e353003a 	cmp	r3, #58	; 0x3a
   145b8:	159f3110 	ldrne	r3, [pc, #272]	; 146d0 <parse_value+0x498>
   145bc:	108f3003 	addne	r3, pc, r3
   145c0:	15830000 	strne	r0, [r3]
   145c4:	1a000037 	bne	146a8 <parse_value+0x470>
   145c8:	e2800001 	add	r0, r0, #1
   145cc:	ebfffe7c 	bl	13fc4 <skip>
   145d0:	e1a01000 	mov	r1, r0
   145d4:	e1a00006 	mov	r0, r6
   145d8:	ebffff16 	bl	14238 <parse_value>
   145dc:	ebfffe78 	bl	13fc4 <skip>
   145e0:	e2507000 	subs	r7, r0, #0
   145e4:	0a000028 	beq	1468c <parse_value+0x454>
   145e8:	e5d73000 	ldrb	r3, [r7]
   145ec:	e353002c 	cmp	r3, #44	; 0x2c
   145f0:	1a00001f 	bne	14674 <parse_value+0x43c>
   145f4:	ebfffe7b 	bl	13fe8 <cJSON_New_Item>
   145f8:	e2505000 	subs	r5, r0, #0
   145fc:	0a000022 	beq	1468c <parse_value+0x454>
   14600:	e5865000 	str	r5, [r6]
   14604:	e2870001 	add	r0, r7, #1
   14608:	e5856004 	str	r6, [r5, #4]
   1460c:	ebfffe6c 	bl	13fc4 <skip>
   14610:	e1a01000 	mov	r1, r0
   14614:	e1a00005 	mov	r0, r5
   14618:	ebfffdc4 	bl	13d30 <parse_string>
   1461c:	ebfffe68 	bl	13fc4 <skip>
   14620:	e3500000 	cmp	r0, #0
   14624:	0a000018 	beq	1468c <parse_value+0x454>
   14628:	e5953010 	ldr	r3, [r5, #16]
   1462c:	e5854010 	str	r4, [r5, #16]
   14630:	e5853020 	str	r3, [r5, #32]
   14634:	e5d03000 	ldrb	r3, [r0]
   14638:	e353003a 	cmp	r3, #58	; 0x3a
   1463c:	159f3090 	ldrne	r3, [pc, #144]	; 146d4 <parse_value+0x49c>
   14640:	108f3003 	addne	r3, pc, r3
   14644:	15830000 	strne	r0, [r3]
   14648:	1a00000f 	bne	1468c <parse_value+0x454>
   1464c:	e2800001 	add	r0, r0, #1
   14650:	ebfffe5b 	bl	13fc4 <skip>
   14654:	e1a01000 	mov	r1, r0
   14658:	e1a00005 	mov	r0, r5
   1465c:	ebfffef5 	bl	14238 <parse_value>
   14660:	ebfffe57 	bl	13fc4 <skip>
   14664:	e2507000 	subs	r7, r0, #0
   14668:	0a000007 	beq	1468c <parse_value+0x454>
   1466c:	e1a06005 	mov	r6, r5
   14670:	eaffffdc 	b	145e8 <parse_value+0x3b0>
   14674:	e353007d 	cmp	r3, #125	; 0x7d
   14678:	02870001 	addeq	r0, r7, #1
   1467c:	0a00000a 	beq	146ac <parse_value+0x474>
   14680:	e59f3050 	ldr	r3, [pc, #80]	; 146d8 <parse_value+0x4a0>
   14684:	e08f3003 	add	r3, pc, r3
   14688:	e5837000 	str	r7, [r3]
   1468c:	e3a00000 	mov	r0, #0
   14690:	ea000005 	b	146ac <parse_value+0x474>
   14694:	e59f3040 	ldr	r3, [pc, #64]	; 146dc <parse_value+0x4a4>
   14698:	e1a00002 	mov	r0, r2
   1469c:	e08f3003 	add	r3, pc, r3
   146a0:	e5834000 	str	r4, [r3]
   146a4:	ea000000 	b	146ac <parse_value+0x474>
   146a8:	e1a00004 	mov	r0, r4
   146ac:	ecbd8b02 	vpop	{d8}
   146b0:	e8bd80f8 	pop	{r3, r4, r5, r6, r7, pc}
   146b4:	e320f000 	nop	{0}
	...
   146c0:	0000486a 	andeq	r4, r0, sl, ror #16
   146c4:	00004847 	andeq	r4, r0, r7, asr #16
   146c8:	00004829 	andeq	r4, r0, r9, lsr #16
   146cc:	0001524c 	andeq	r5, r1, ip, asr #4
   146d0:	000151c0 	andeq	r5, r1, r0, asr #3
   146d4:	0001513c 	andeq	r5, r1, ip, lsr r1
   146d8:	000150f8 	strdeq	r5, [r1], -r8
   146dc:	000150e0 	andeq	r5, r1, r0, ror #1

000146e0 <print_value>:
   146e0:	e92d4ff0 	push	{r4, r5, r6, r7, r8, r9, sl, fp, lr}
   146e4:	e2504000 	subs	r4, r0, #0
   146e8:	ed2d8b04 	vpush	{d8-d9}
   146ec:	e24dd01c 	sub	sp, sp, #28
   146f0:	e58d2004 	str	r2, [sp, #4]
   146f4:	0a0001d6 	beq	14e54 <print_value+0x774>
   146f8:	e5d4300c 	ldrb	r3, [r4, #12]
   146fc:	e1a0b001 	mov	fp, r1
   14700:	e3530006 	cmp	r3, #6
   14704:	908ff103 	addls	pc, pc, r3, lsl #2
   14708:	ea0001e0 	b	14e90 <print_value+0x7b0>
   1470c:	ea000008 	b	14734 <print_value+0x54>
   14710:	ea00000d 	b	1474c <print_value+0x6c>
   14714:	ea000003 	b	14728 <print_value+0x48>
   14718:	ea00000e 	b	14758 <print_value+0x78>
   1471c:	ea000052 	b	1486c <print_value+0x18c>
   14720:	ea000056 	b	14880 <print_value+0x1a0>
   14724:	ea0000c7 	b	14a48 <print_value+0x368>
   14728:	e59f0400 	ldr	r0, [pc, #1024]	; 14b30 <print_value+0x450>
   1472c:	e08f0000 	add	r0, pc, r0
   14730:	ea000001 	b	1473c <print_value+0x5c>
   14734:	e59f03f8 	ldr	r0, [pc, #1016]	; 14b34 <print_value+0x454>
   14738:	e08f0000 	add	r0, pc, r0
   1473c:	e28dd01c 	add	sp, sp, #28
   14740:	ecbd8b04 	vpop	{d8-d9}
   14744:	e8bd4ff0 	pop	{r4, r5, r6, r7, r8, r9, sl, fp, lr}
   14748:	eafffe34 	b	14020 <cJSON_strdup>
   1474c:	e59f03e4 	ldr	r0, [pc, #996]	; 14b38 <print_value+0x458>
   14750:	e08f0000 	add	r0, pc, r0
   14754:	eafffff8 	b	1473c <print_value+0x5c>
   14758:	edd47a05 	vldr	s15, [r4, #20]
   1475c:	ed948b06 	vldr	d8, [r4, #24]
   14760:	eef81be7 	vcvt.f64.s32	d17, s15
   14764:	eddf0be5 	vldr	d16, [pc, #916]	; 14b00 <print_value+0x420>
   14768:	ee711bc8 	vsub.f64	d17, d17, d8
   1476c:	eeb09b60 	vmov.f64	d9, d16
   14770:	eef01be1 	vabs.f64	d17, d17
   14774:	eef41be0 	vcmpe.f64	d17, d16
   14778:	eef1fa10 	vmrs	APSR_nzcv, fpscr
   1477c:	8a000013 	bhi	147d0 <print_value+0xf0>
   14780:	eddf0be0 	vldr	d16, [pc, #896]	; 14b08 <print_value+0x428>
   14784:	eeb48be0 	vcmpe.f64	d8, d16
   14788:	eef1fa10 	vmrs	APSR_nzcv, fpscr
   1478c:	8a00000f 	bhi	147d0 <print_value+0xf0>
   14790:	eddf0bde 	vldr	d16, [pc, #888]	; 14b10 <print_value+0x430>
   14794:	eeb48be0 	vcmpe.f64	d8, d16
   14798:	eef1fa10 	vmrs	APSR_nzcv, fpscr
   1479c:	ba00000b 	blt	147d0 <print_value+0xf0>
   147a0:	e59f3394 	ldr	r3, [pc, #916]	; 14b3c <print_value+0x45c>
   147a4:	e3a00015 	mov	r0, #21
   147a8:	e08f3003 	add	r3, pc, r3
   147ac:	e5933000 	ldr	r3, [r3]
   147b0:	e12fff33 	blx	r3
   147b4:	e2507000 	subs	r7, r0, #0
   147b8:	0a0001a3 	beq	14e4c <print_value+0x76c>
   147bc:	e59f137c 	ldr	r1, [pc, #892]	; 14b40 <print_value+0x460>
   147c0:	e5942014 	ldr	r2, [r4, #20]
   147c4:	e08f1001 	add	r1, pc, r1
   147c8:	ebfff2d6 	bl	11328 <_init+0x240>
   147cc:	ea00019e 	b	14e4c <print_value+0x76c>
   147d0:	e59f336c 	ldr	r3, [pc, #876]	; 14b44 <print_value+0x464>
   147d4:	e3a00040 	mov	r0, #64	; 0x40
   147d8:	e08f3003 	add	r3, pc, r3
   147dc:	e5933000 	ldr	r3, [r3]
   147e0:	e12fff33 	blx	r3
   147e4:	e2507000 	subs	r7, r0, #0
   147e8:	0a000197 	beq	14e4c <print_value+0x76c>
   147ec:	eeb00b48 	vmov.f64	d0, d8
   147f0:	ebfff254 	bl	11148 <_init+0x60>
   147f4:	eef00bc8 	vabs.f64	d16, d8
   147f8:	ee300b48 	vsub.f64	d0, d0, d8
   147fc:	eeb00bc0 	vabs.f64	d0, d0
   14800:	eeb40bc9 	vcmpe.f64	d0, d9
   14804:	eef1fa10 	vmrs	APSR_nzcv, fpscr
   14808:	8a000006 	bhi	14828 <print_value+0x148>
   1480c:	eddf1bc1 	vldr	d17, [pc, #772]	; 14b18 <print_value+0x438>
   14810:	eef40be1 	vcmpe.f64	d16, d17
   14814:	eef1fa10 	vmrs	APSR_nzcv, fpscr
   14818:	459f1328 	ldrmi	r1, [pc, #808]	; 14b48 <print_value+0x468>
   1481c:	41a00007 	movmi	r0, r7
   14820:	408f1001 	addmi	r1, pc, r1
   14824:	4a00000d 	bmi	14860 <print_value+0x180>
   14828:	eddf1bbc 	vldr	d17, [pc, #752]	; 14b20 <print_value+0x440>
   1482c:	e1a00007 	mov	r0, r7
   14830:	eef40be1 	vcmpe.f64	d16, d17
   14834:	eef1fa10 	vmrs	APSR_nzcv, fpscr
   14838:	4a000003 	bmi	1484c <print_value+0x16c>
   1483c:	eddf1bb9 	vldr	d17, [pc, #740]	; 14b28 <print_value+0x448>
   14840:	eef40be1 	vcmpe.f64	d16, d17
   14844:	eef1fa10 	vmrs	APSR_nzcv, fpscr
   14848:	da000002 	ble	14858 <print_value+0x178>
   1484c:	e59f12f8 	ldr	r1, [pc, #760]	; 14b4c <print_value+0x46c>
   14850:	e08f1001 	add	r1, pc, r1
   14854:	ea000001 	b	14860 <print_value+0x180>
   14858:	e59f12f0 	ldr	r1, [pc, #752]	; 14b50 <print_value+0x470>
   1485c:	e08f1001 	add	r1, pc, r1
   14860:	ec532b18 	vmov	r2, r3, d8
   14864:	ebfff2af 	bl	11328 <_init+0x240>
   14868:	ea000177 	b	14e4c <print_value+0x76c>
   1486c:	e5940010 	ldr	r0, [r4, #16]
   14870:	e28dd01c 	add	sp, sp, #28
   14874:	ecbd8b04 	vpop	{d8-d9}
   14878:	e8bd4ff0 	pop	{r4, r5, r6, r7, r8, r9, sl, fp, lr}
   1487c:	eafffe0d 	b	140b8 <print_string_ptr>
   14880:	e5947008 	ldr	r7, [r4, #8]
   14884:	e3a05000 	mov	r5, #0
   14888:	e3570000 	cmp	r7, #0
   1488c:	12855001 	addne	r5, r5, #1
   14890:	15977000 	ldrne	r7, [r7]
   14894:	1afffffb 	bne	14888 <print_value+0x1a8>
   14898:	e3550000 	cmp	r5, #0
   1489c:	1a00000b 	bne	148d0 <print_value+0x1f0>
   148a0:	e59f32ac 	ldr	r3, [pc, #684]	; 14b54 <print_value+0x474>
   148a4:	e3a00003 	mov	r0, #3
   148a8:	e08f3003 	add	r3, pc, r3
   148ac:	e5933000 	ldr	r3, [r3]
   148b0:	e12fff33 	blx	r3
   148b4:	e2507000 	subs	r7, r0, #0
   148b8:	01a00005 	moveq	r0, r5
   148bc:	0a000198 	beq	14f24 <print_value+0x844>
   148c0:	e59f1290 	ldr	r1, [pc, #656]	; 14b58 <print_value+0x478>
   148c4:	e08f1001 	add	r1, pc, r1
   148c8:	ebfff2d2 	bl	11418 <_init+0x330>
   148cc:	ea00015e 	b	14e4c <print_value+0x76c>
   148d0:	e59f3284 	ldr	r3, [pc, #644]	; 14b5c <print_value+0x47c>
   148d4:	e1a08105 	lsl	r8, r5, #2
   148d8:	e08f3003 	add	r3, pc, r3
   148dc:	e1a00008 	mov	r0, r8
   148e0:	e5933000 	ldr	r3, [r3]
   148e4:	e12fff33 	blx	r3
   148e8:	e2506000 	subs	r6, r0, #0
   148ec:	0a000156 	beq	14e4c <print_value+0x76c>
   148f0:	e1a02008 	mov	r2, r8
   148f4:	e1a01007 	mov	r1, r7
   148f8:	e2468004 	sub	r8, r6, #4
   148fc:	ebfff277 	bl	112e0 <_init+0x1f8>
   14900:	e1a0a008 	mov	sl, r8
   14904:	e5944008 	ldr	r4, [r4, #8]
   14908:	e3a09005 	mov	r9, #5
   1490c:	e28bb001 	add	fp, fp, #1
   14910:	e2273001 	eor	r3, r7, #1
   14914:	e3540000 	cmp	r4, #0
   14918:	03a03000 	moveq	r3, #0
   1491c:	12033001 	andne	r3, r3, #1
   14920:	e3530000 	cmp	r3, #0
   14924:	0a000011 	beq	14970 <print_value+0x290>
   14928:	e1a00004 	mov	r0, r4
   1492c:	e1a0100b 	mov	r1, fp
   14930:	e59d2004 	ldr	r2, [sp, #4]
   14934:	ebffff69 	bl	146e0 <print_value>
   14938:	e3500000 	cmp	r0, #0
   1493c:	e5aa0004 	str	r0, [sl, #4]!
   14940:	03a07001 	moveq	r7, #1
   14944:	0a000007 	beq	14968 <print_value+0x288>
   14948:	ebfff22b 	bl	111fc <_init+0x114>
   1494c:	e59d1004 	ldr	r1, [sp, #4]
   14950:	e3a07000 	mov	r7, #0
   14954:	e3510000 	cmp	r1, #0
   14958:	13a03003 	movne	r3, #3
   1495c:	03a03002 	moveq	r3, #2
   14960:	e0839009 	add	r9, r3, r9
   14964:	e0899000 	add	r9, r9, r0
   14968:	e5944000 	ldr	r4, [r4]
   1496c:	eaffffe7 	b	14910 <print_value+0x230>
   14970:	e3570000 	cmp	r7, #0
   14974:	1a000147 	bne	14e98 <print_value+0x7b8>
   14978:	e59f31e0 	ldr	r3, [pc, #480]	; 14b60 <print_value+0x480>
   1497c:	e1a00009 	mov	r0, r9
   14980:	e08f3003 	add	r3, pc, r3
   14984:	e5933000 	ldr	r3, [r3]
   14988:	e12fff33 	blx	r3
   1498c:	e2509000 	subs	r9, r0, #0
   14990:	0a000140 	beq	14e98 <print_value+0x7b8>
   14994:	e59fb1c8 	ldr	fp, [pc, #456]	; 14b64 <print_value+0x484>
   14998:	e1a04009 	mov	r4, r9
   1499c:	e3a0305b 	mov	r3, #91	; 0x5b
   149a0:	e2452001 	sub	r2, r5, #1
   149a4:	e3a0a02c 	mov	sl, #44	; 0x2c
   149a8:	e08fb00b 	add	fp, pc, fp
   149ac:	e4c43001 	strb	r3, [r4], #1
   149b0:	e58d2008 	str	r2, [sp, #8]
   149b4:	e5c97001 	strb	r7, [r9, #1]
   149b8:	e1570005 	cmp	r7, r5
   149bc:	aa000016 	bge	14a1c <print_value+0x33c>
   149c0:	e1a00004 	mov	r0, r4
   149c4:	e5981004 	ldr	r1, [r8, #4]
   149c8:	ebfff292 	bl	11418 <_init+0x330>
   149cc:	e5980004 	ldr	r0, [r8, #4]
   149d0:	ebfff209 	bl	111fc <_init+0x114>
   149d4:	e59d3008 	ldr	r3, [sp, #8]
   149d8:	e1570003 	cmp	r7, r3
   149dc:	e0844000 	add	r4, r4, r0
   149e0:	0a000008 	beq	14a08 <print_value+0x328>
   149e4:	e59d1004 	ldr	r1, [sp, #4]
   149e8:	e5c4a000 	strb	sl, [r4]
   149ec:	e3510000 	cmp	r1, #0
   149f0:	13a03020 	movne	r3, #32
   149f4:	02844001 	addeq	r4, r4, #1
   149f8:	15c43001 	strbne	r3, [r4, #1]
   149fc:	12844002 	addne	r4, r4, #2
   14a00:	e3a03000 	mov	r3, #0
   14a04:	e5c43000 	strb	r3, [r4]
   14a08:	e5b80004 	ldr	r0, [r8, #4]!
   14a0c:	e59b3004 	ldr	r3, [fp, #4]
   14a10:	e12fff33 	blx	r3
   14a14:	e2877001 	add	r7, r7, #1
   14a18:	eaffffe6 	b	149b8 <print_value+0x2d8>
   14a1c:	e59f3144 	ldr	r3, [pc, #324]	; 14b68 <print_value+0x488>
   14a20:	e1a00006 	mov	r0, r6
   14a24:	e08f3003 	add	r3, pc, r3
   14a28:	e5933004 	ldr	r3, [r3, #4]
   14a2c:	e12fff33 	blx	r3
   14a30:	e3a0305d 	mov	r3, #93	; 0x5d
   14a34:	e1a00009 	mov	r0, r9
   14a38:	e5c43000 	strb	r3, [r4]
   14a3c:	e3a03000 	mov	r3, #0
   14a40:	e5c43001 	strb	r3, [r4, #1]
   14a44:	ea000136 	b	14f24 <print_value+0x844>
   14a48:	e3a02000 	mov	r2, #0
   14a4c:	e5947008 	ldr	r7, [r4, #8]
   14a50:	e58d2008 	str	r2, [sp, #8]
   14a54:	e3570000 	cmp	r7, #0
   14a58:	159d3008 	ldrne	r3, [sp, #8]
   14a5c:	15977000 	ldrne	r7, [r7]
   14a60:	12833001 	addne	r3, r3, #1
   14a64:	158d3008 	strne	r3, [sp, #8]
   14a68:	1afffff9 	bne	14a54 <print_value+0x374>
   14a6c:	e59d1008 	ldr	r1, [sp, #8]
   14a70:	e3510000 	cmp	r1, #0
   14a74:	1a000046 	bne	14b94 <print_value+0x4b4>
   14a78:	e59f30ec 	ldr	r3, [pc, #236]	; 14b6c <print_value+0x48c>
   14a7c:	e59d2004 	ldr	r2, [sp, #4]
   14a80:	e08f3003 	add	r3, pc, r3
   14a84:	e3520000 	cmp	r2, #0
   14a88:	128b0004 	addne	r0, fp, #4
   14a8c:	03a00003 	moveq	r0, #3
   14a90:	e5933000 	ldr	r3, [r3]
   14a94:	e12fff33 	blx	r3
   14a98:	e2507000 	subs	r7, r0, #0
   14a9c:	0a0000fb 	beq	14e90 <print_value+0x7b0>
   14aa0:	e3a0307b 	mov	r3, #123	; 0x7b
   14aa4:	e5c73000 	strb	r3, [r7]
   14aa8:	e59d3004 	ldr	r3, [sp, #4]
   14aac:	e3530000 	cmp	r3, #0
   14ab0:	0287b001 	addeq	fp, r7, #1
   14ab4:	0a00000c 	beq	14aec <print_value+0x40c>
   14ab8:	e3a0200a 	mov	r2, #10
   14abc:	e2873002 	add	r3, r7, #2
   14ac0:	e5c72001 	strb	r2, [r7, #1]
   14ac4:	e24bb001 	sub	fp, fp, #1
   14ac8:	e1a02003 	mov	r2, r3
   14acc:	e3a00009 	mov	r0, #9
   14ad0:	e0631002 	rsb	r1, r3, r2
   14ad4:	e151000b 	cmp	r1, fp
   14ad8:	b4c20001 	strblt	r0, [r2], #1
   14adc:	bafffffb 	blt	14ad0 <print_value+0x3f0>
   14ae0:	e35b0000 	cmp	fp, #0
   14ae4:	a083b00b 	addge	fp, r3, fp
   14ae8:	b283b000 	addlt	fp, r3, #0
   14aec:	e3a0307d 	mov	r3, #125	; 0x7d
   14af0:	e5cb3000 	strb	r3, [fp]
   14af4:	e3a03000 	mov	r3, #0
   14af8:	e5cb3001 	strb	r3, [fp, #1]
   14afc:	ea0000d2 	b	14e4c <print_value+0x76c>
   14b00:	00000000 	andeq	r0, r0, r0
   14b04:	3cb00000 	ldccc	0, cr0, [r0]
   14b08:	ffc00000 			; <UNDEFINED> instruction: 0xffc00000
   14b0c:	41dfffff 	ldrshmi	pc, [pc, #255]	; 14c13 <print_value+0x533>	; <UNPREDICTABLE>
   14b10:	00000000 	andeq	r0, r0, r0
   14b14:	c1e00000 	mvngt	r0, r0
   14b18:	e4c2f344 	strb	pc, [r2], #836	; 0x344	; <UNPREDICTABLE>
   14b1c:	4c63e9e4 	stclmi	9, cr14, [r3], #-912	; 0xfffffc70
   14b20:	a0b5ed8d 	adcsge	lr, r5, sp, lsl #27
   14b24:	3eb0c6f7 	mrccc	6, 5, ip, cr0, cr7, {7}
   14b28:	00000000 	andeq	r0, r0, r0
   14b2c:	41cdcd65 	bicmi	ip, sp, r5, ror #26
   14b30:	0000438e 	andeq	r4, r0, lr, lsl #7
   14b34:	00004387 	andeq	r4, r0, r7, lsl #7
   14b38:	00004375 	andeq	r4, r0, r5, ror r3
   14b3c:	00014e04 	andeq	r4, r1, r4, lsl #28
   14b40:	00004306 	andeq	r4, r0, r6, lsl #6
   14b44:	00014dd4 	ldrdeq	r4, [r1], -r4	; <UNPREDICTABLE>
   14b48:	000042ad 	andeq	r4, r0, sp, lsr #5
   14b4c:	00004282 	andeq	r4, r0, r2, lsl #5
   14b50:	00004279 	andeq	r4, r0, r9, ror r2
   14b54:	00014d04 	andeq	r4, r1, r4, lsl #26
   14b58:	00004214 	andeq	r4, r0, r4, lsl r2
   14b5c:	00014cd4 	ldrdeq	r4, [r1], -r4	; <UNPREDICTABLE>
   14b60:	00014c2c 	andeq	r4, r1, ip, lsr #24
   14b64:	00014c04 	andeq	r4, r1, r4, lsl #24
   14b68:	00014b88 	andeq	r4, r1, r8, lsl #23
   14b6c:	00014b2c 	andeq	r4, r1, ip, lsr #22
   14b70:	00014a10 	andeq	r4, r1, r0, lsl sl
   14b74:	000148f4 	strdeq	r4, [r1], -r4	; <UNPREDICTABLE>
   14b78:	000148a8 	andeq	r4, r1, r8, lsr #17
   14b7c:	000147b8 			; <UNDEFINED> instruction: 0x000147b8
   14b80:	00014728 	andeq	r4, r1, r8, lsr #14
   14b84:	0001470c 	andeq	r4, r1, ip, lsl #14
   14b88:	000146f8 	strdeq	r4, [r1], -r8
   14b8c:	000146f4 	strdeq	r4, [r1], -r4	; <UNPREDICTABLE>
   14b90:	000146a0 	andeq	r4, r1, r0, lsr #13
   14b94:	e51f602c 	ldr	r6, [pc, #-44]	; 14b70 <print_value+0x490>
   14b98:	e59d1008 	ldr	r1, [sp, #8]
   14b9c:	e08f6006 	add	r6, pc, r6
   14ba0:	e1a05101 	lsl	r5, r1, #2
   14ba4:	e5963000 	ldr	r3, [r6]
   14ba8:	e1a00005 	mov	r0, r5
   14bac:	e12fff33 	blx	r3
   14bb0:	e3500000 	cmp	r0, #0
   14bb4:	e58d000c 	str	r0, [sp, #12]
   14bb8:	0a0000b4 	beq	14e90 <print_value+0x7b0>
   14bbc:	e5963000 	ldr	r3, [r6]
   14bc0:	e1a00005 	mov	r0, r5
   14bc4:	e12fff33 	blx	r3
   14bc8:	e3500000 	cmp	r0, #0
   14bcc:	e58d0010 	str	r0, [sp, #16]
   14bd0:	1a000003 	bne	14be4 <print_value+0x504>
   14bd4:	e5963004 	ldr	r3, [r6, #4]
   14bd8:	e59d000c 	ldr	r0, [sp, #12]
   14bdc:	e12fff33 	blx	r3
   14be0:	ea000099 	b	14e4c <print_value+0x76c>
   14be4:	e1a02005 	mov	r2, r5
   14be8:	e1a01007 	mov	r1, r7
   14bec:	e59d000c 	ldr	r0, [sp, #12]
   14bf0:	ebfff1ba 	bl	112e0 <_init+0x1f8>
   14bf4:	e1a02005 	mov	r2, r5
   14bf8:	e1a01007 	mov	r1, r7
   14bfc:	e59d0010 	ldr	r0, [sp, #16]
   14c00:	ebfff1b6 	bl	112e0 <_init+0x1f8>
   14c04:	e59d3004 	ldr	r3, [sp, #4]
   14c08:	e59d1004 	ldr	r1, [sp, #4]
   14c0c:	e3530000 	cmp	r3, #0
   14c10:	128b6008 	addne	r6, fp, #8
   14c14:	03a06007 	moveq	r6, #7
   14c18:	e3510000 	cmp	r1, #0
   14c1c:	128b9003 	addne	r9, fp, #3
   14c20:	03a09000 	moveq	r9, #0
   14c24:	e3a05000 	mov	r5, #0
   14c28:	e28b2001 	add	r2, fp, #1
   14c2c:	e5944008 	ldr	r4, [r4, #8]
   14c30:	e1a08005 	mov	r8, r5
   14c34:	e2899002 	add	r9, r9, #2
   14c38:	e58d2014 	str	r2, [sp, #20]
   14c3c:	e3540000 	cmp	r4, #0
   14c40:	0a000018 	beq	14ca8 <print_value+0x5c8>
   14c44:	e5940020 	ldr	r0, [r4, #32]
   14c48:	ebfffd1a 	bl	140b8 <print_string_ptr>
   14c4c:	e59d2010 	ldr	r2, [sp, #16]
   14c50:	e59d1014 	ldr	r1, [sp, #20]
   14c54:	e7820005 	str	r0, [r2, r5]
   14c58:	e1a07000 	mov	r7, r0
   14c5c:	e59d2004 	ldr	r2, [sp, #4]
   14c60:	e1a00004 	mov	r0, r4
   14c64:	ebfffe9d 	bl	146e0 <print_value>
   14c68:	e59d100c 	ldr	r1, [sp, #12]
   14c6c:	e3500000 	cmp	r0, #0
   14c70:	13570000 	cmpne	r7, #0
   14c74:	e7810005 	str	r0, [r1, r5]
   14c78:	03a08001 	moveq	r8, #1
   14c7c:	0a000006 	beq	14c9c <print_value+0x5bc>
   14c80:	ebfff15d 	bl	111fc <_init+0x114>
   14c84:	e0896006 	add	r6, r9, r6
   14c88:	e1a0a000 	mov	sl, r0
   14c8c:	e1a00007 	mov	r0, r7
   14c90:	ebfff159 	bl	111fc <_init+0x114>
   14c94:	e086600a 	add	r6, r6, sl
   14c98:	e0866000 	add	r6, r6, r0
   14c9c:	e5944000 	ldr	r4, [r4]
   14ca0:	e2855004 	add	r5, r5, #4
   14ca4:	eaffffe4 	b	14c3c <print_value+0x55c>
   14ca8:	e3580000 	cmp	r8, #0
   14cac:	1a00007d 	bne	14ea8 <print_value+0x7c8>
   14cb0:	e51f3144 	ldr	r3, [pc, #-324]	; 14b74 <print_value+0x494>
   14cb4:	e1a00006 	mov	r0, r6
   14cb8:	e08f3003 	add	r3, pc, r3
   14cbc:	e5933000 	ldr	r3, [r3]
   14cc0:	e12fff33 	blx	r3
   14cc4:	e2507000 	subs	r7, r0, #0
   14cc8:	0a000076 	beq	14ea8 <print_value+0x7c8>
   14ccc:	e59d2004 	ldr	r2, [sp, #4]
   14cd0:	e3a0307b 	mov	r3, #123	; 0x7b
   14cd4:	e3520000 	cmp	r2, #0
   14cd8:	e5c73000 	strb	r3, [r7]
   14cdc:	02876001 	addeq	r6, r7, #1
   14ce0:	13a0300a 	movne	r3, #10
   14ce4:	12876002 	addne	r6, r7, #2
   14ce8:	15c73001 	strbne	r3, [r7, #1]
   14cec:	e59d3010 	ldr	r3, [sp, #16]
   14cf0:	e59d100c 	ldr	r1, [sp, #12]
   14cf4:	e51f5184 	ldr	r5, [pc, #-388]	; 14b78 <print_value+0x498>
   14cf8:	e3a0a000 	mov	sl, #0
   14cfc:	e2439004 	sub	r9, r3, #4
   14d00:	e2418004 	sub	r8, r1, #4
   14d04:	e08f5005 	add	r5, pc, r5
   14d08:	e5c6a000 	strb	sl, [r6]
   14d0c:	e59d1008 	ldr	r1, [sp, #8]
   14d10:	e15a0001 	cmp	sl, r1
   14d14:	aa000034 	bge	14dec <print_value+0x70c>
   14d18:	e59d2004 	ldr	r2, [sp, #4]
   14d1c:	e3520000 	cmp	r2, #0
   14d20:	11a03006 	movne	r3, r6
   14d24:	0a000007 	beq	14d48 <print_value+0x668>
   14d28:	e59d1014 	ldr	r1, [sp, #20]
   14d2c:	e0662003 	rsb	r2, r6, r3
   14d30:	e1520001 	cmp	r2, r1
   14d34:	b3a01009 	movlt	r1, #9
   14d38:	b4c31001 	strblt	r1, [r3], #1
   14d3c:	bafffff9 	blt	14d28 <print_value+0x648>
   14d40:	e3510000 	cmp	r1, #0
   14d44:	a0866001 	addge	r6, r6, r1
   14d48:	e5991004 	ldr	r1, [r9, #4]
   14d4c:	e1a00006 	mov	r0, r6
   14d50:	ebfff1b0 	bl	11418 <_init+0x330>
   14d54:	e5990004 	ldr	r0, [r9, #4]
   14d58:	ebfff127 	bl	111fc <_init+0x114>
   14d5c:	e3a0203a 	mov	r2, #58	; 0x3a
   14d60:	e7c62000 	strb	r2, [r6, r0]
   14d64:	e59d2004 	ldr	r2, [sp, #4]
   14d68:	e0863000 	add	r3, r6, r0
   14d6c:	e3520000 	cmp	r2, #0
   14d70:	13a01009 	movne	r1, #9
   14d74:	12834002 	addne	r4, r3, #2
   14d78:	02834001 	addeq	r4, r3, #1
   14d7c:	15c31001 	strbne	r1, [r3, #1]
   14d80:	e1a00004 	mov	r0, r4
   14d84:	e5981004 	ldr	r1, [r8, #4]
   14d88:	ebfff1a2 	bl	11418 <_init+0x330>
   14d8c:	e5980004 	ldr	r0, [r8, #4]
   14d90:	ebfff119 	bl	111fc <_init+0x114>
   14d94:	e59d2008 	ldr	r2, [sp, #8]
   14d98:	e2423001 	sub	r3, r2, #1
   14d9c:	e15a0003 	cmp	sl, r3
   14da0:	13a0302c 	movne	r3, #44	; 0x2c
   14da4:	e0846000 	add	r6, r4, r0
   14da8:	17c43000 	strbne	r3, [r4, r0]
   14dac:	e59d3004 	ldr	r3, [sp, #4]
   14db0:	12866001 	addne	r6, r6, #1
   14db4:	e3530000 	cmp	r3, #0
   14db8:	13a0300a 	movne	r3, #10
   14dbc:	e28aa001 	add	sl, sl, #1
   14dc0:	15c63000 	strbne	r3, [r6]
   14dc4:	12866001 	addne	r6, r6, #1
   14dc8:	e3a03000 	mov	r3, #0
   14dcc:	e5c63000 	strb	r3, [r6]
   14dd0:	e5953004 	ldr	r3, [r5, #4]
   14dd4:	e5b90004 	ldr	r0, [r9, #4]!
   14dd8:	e12fff33 	blx	r3
   14ddc:	e5953004 	ldr	r3, [r5, #4]
   14de0:	e5b80004 	ldr	r0, [r8, #4]!
   14de4:	e12fff33 	blx	r3
   14de8:	eaffffc7 	b	14d0c <print_value+0x62c>
   14dec:	e51f5278 	ldr	r5, [pc, #-632]	; 14b7c <print_value+0x49c>
   14df0:	e59d0010 	ldr	r0, [sp, #16]
   14df4:	e08f5005 	add	r5, pc, r5
   14df8:	e1a04006 	mov	r4, r6
   14dfc:	e5953004 	ldr	r3, [r5, #4]
   14e00:	e12fff33 	blx	r3
   14e04:	e5953004 	ldr	r3, [r5, #4]
   14e08:	e59d000c 	ldr	r0, [sp, #12]
   14e0c:	e12fff33 	blx	r3
   14e10:	e59d2004 	ldr	r2, [sp, #4]
   14e14:	e3520000 	cmp	r2, #0
   14e18:	13a02009 	movne	r2, #9
   14e1c:	0a000006 	beq	14e3c <print_value+0x75c>
   14e20:	e0643006 	rsb	r3, r4, r6
   14e24:	e153000b 	cmp	r3, fp
   14e28:	b4c62001 	strblt	r2, [r6], #1
   14e2c:	bafffffb 	blt	14e20 <print_value+0x740>
   14e30:	e35b0000 	cmp	fp, #0
   14e34:	a084600b 	addge	r6, r4, fp
   14e38:	b2846000 	addlt	r6, r4, #0
   14e3c:	e3a0307d 	mov	r3, #125	; 0x7d
   14e40:	e5c63000 	strb	r3, [r6]
   14e44:	e3a03000 	mov	r3, #0
   14e48:	e5c63001 	strb	r3, [r6, #1]
   14e4c:	e1a00007 	mov	r0, r7
   14e50:	ea000033 	b	14f24 <print_value+0x844>
   14e54:	e1a00004 	mov	r0, r4
   14e58:	ea000031 	b	14f24 <print_value+0x844>
   14e5c:	e7960104 	ldr	r0, [r6, r4, lsl #2]
   14e60:	e3500000 	cmp	r0, #0
   14e64:	0a000001 	beq	14e70 <print_value+0x790>
   14e68:	e5973004 	ldr	r3, [r7, #4]
   14e6c:	e12fff33 	blx	r3
   14e70:	e2844001 	add	r4, r4, #1
   14e74:	e1540005 	cmp	r4, r5
   14e78:	bafffff7 	blt	14e5c <print_value+0x77c>
   14e7c:	e51f3304 	ldr	r3, [pc, #-772]	; 14b80 <print_value+0x4a0>
   14e80:	e1a00006 	mov	r0, r6
   14e84:	e08f3003 	add	r3, pc, r3
   14e88:	e5933004 	ldr	r3, [r3, #4]
   14e8c:	e12fff33 	blx	r3
   14e90:	e3a00000 	mov	r0, #0
   14e94:	ea000022 	b	14f24 <print_value+0x844>
   14e98:	e51f731c 	ldr	r7, [pc, #-796]	; 14b84 <print_value+0x4a4>
   14e9c:	e3a04000 	mov	r4, #0
   14ea0:	e08f7007 	add	r7, pc, r7
   14ea4:	eafffff2 	b	14e74 <print_value+0x794>
   14ea8:	e51f6328 	ldr	r6, [pc, #-808]	; 14b88 <print_value+0x4a8>
   14eac:	e51f5328 	ldr	r5, [pc, #-808]	; 14b8c <print_value+0x4ac>
   14eb0:	e3a04000 	mov	r4, #0
   14eb4:	e08f6006 	add	r6, pc, r6
   14eb8:	e08f5005 	add	r5, pc, r5
   14ebc:	e59d2008 	ldr	r2, [sp, #8]
   14ec0:	e1540002 	cmp	r4, r2
   14ec4:	aa00000e 	bge	14f04 <print_value+0x824>
   14ec8:	e59d3010 	ldr	r3, [sp, #16]
   14ecc:	e1a07104 	lsl	r7, r4, #2
   14ed0:	e7930104 	ldr	r0, [r3, r4, lsl #2]
   14ed4:	e3500000 	cmp	r0, #0
   14ed8:	0a000001 	beq	14ee4 <print_value+0x804>
   14edc:	e5963004 	ldr	r3, [r6, #4]
   14ee0:	e12fff33 	blx	r3
   14ee4:	e59d100c 	ldr	r1, [sp, #12]
   14ee8:	e7910007 	ldr	r0, [r1, r7]
   14eec:	e3500000 	cmp	r0, #0
   14ef0:	0a000001 	beq	14efc <print_value+0x81c>
   14ef4:	e5953004 	ldr	r3, [r5, #4]
   14ef8:	e12fff33 	blx	r3
   14efc:	e2844001 	add	r4, r4, #1
   14f00:	eaffffed 	b	14ebc <print_value+0x7dc>
   14f04:	e51f437c 	ldr	r4, [pc, #-892]	; 14b90 <print_value+0x4b0>
   14f08:	e59d0010 	ldr	r0, [sp, #16]
   14f0c:	e08f4004 	add	r4, pc, r4
   14f10:	e5943004 	ldr	r3, [r4, #4]
   14f14:	e12fff33 	blx	r3
   14f18:	e5943004 	ldr	r3, [r4, #4]
   14f1c:	e59d000c 	ldr	r0, [sp, #12]
   14f20:	eaffffd9 	b	14e8c <print_value+0x7ac>
   14f24:	e28dd01c 	add	sp, sp, #28
   14f28:	ecbd8b04 	vpop	{d8-d9}
   14f2c:	e8bd8ff0 	pop	{r4, r5, r6, r7, r8, r9, sl, fp, pc}

00014f30 <cJSON_GetErrorPtr>:
   14f30:	e59f3004 	ldr	r3, [pc, #4]	; 14f3c <cJSON_GetErrorPtr+0xc>
   14f34:	e79f0003 	ldr	r0, [pc, r3]
   14f38:	e12fff1e 	bx	lr
   14f3c:	00014848 	andeq	r4, r1, r8, asr #16

00014f40 <cJSON_InitHooks>:
   14f40:	e59f3068 	ldr	r3, [pc, #104]	; 14fb0 <cJSON_InitHooks+0x70>
   14f44:	e3500000 	cmp	r0, #0
   14f48:	e08f3003 	add	r3, pc, r3
   14f4c:	1a000007 	bne	14f70 <cJSON_InitHooks+0x30>
   14f50:	e59f205c 	ldr	r2, [pc, #92]	; 14fb4 <cJSON_InitHooks+0x74>
   14f54:	e59f105c 	ldr	r1, [pc, #92]	; 14fb8 <cJSON_InitHooks+0x78>
   14f58:	e08f2002 	add	r2, pc, r2
   14f5c:	e7931001 	ldr	r1, [r3, r1]
   14f60:	e5821000 	str	r1, [r2]
   14f64:	e59f1050 	ldr	r1, [pc, #80]	; 14fbc <cJSON_InitHooks+0x7c>
   14f68:	e7933001 	ldr	r3, [r3, r1]
   14f6c:	ea00000d 	b	14fa8 <cJSON_InitHooks+0x68>
   14f70:	e5902000 	ldr	r2, [r0]
   14f74:	e3520000 	cmp	r2, #0
   14f78:	059f2038 	ldreq	r2, [pc, #56]	; 14fb8 <cJSON_InitHooks+0x78>
   14f7c:	07932002 	ldreq	r2, [r3, r2]
   14f80:	e59f1038 	ldr	r1, [pc, #56]	; 14fc0 <cJSON_InitHooks+0x80>
   14f84:	e08f1001 	add	r1, pc, r1
   14f88:	e5812000 	str	r2, [r1]
   14f8c:	e5902004 	ldr	r2, [r0, #4]
   14f90:	e3520000 	cmp	r2, #0
   14f94:	11a03002 	movne	r3, r2
   14f98:	059f201c 	ldreq	r2, [pc, #28]	; 14fbc <cJSON_InitHooks+0x7c>
   14f9c:	07933002 	ldreq	r3, [r3, r2]
   14fa0:	e59f201c 	ldr	r2, [pc, #28]	; 14fc4 <cJSON_InitHooks+0x84>
   14fa4:	e08f2002 	add	r2, pc, r2
   14fa8:	e5823004 	str	r3, [r2, #4]
   14fac:	e12fff1e 	bx	lr
   14fb0:	000144ec 	andeq	r4, r1, ip, ror #9
   14fb4:	00014654 	andeq	r4, r1, r4, asr r6
   14fb8:	0000012c 	andeq	r0, r0, ip, lsr #2
   14fbc:	00000154 	andeq	r0, r0, r4, asr r1
   14fc0:	00014628 	andeq	r4, r1, r8, lsr #12
   14fc4:	00014608 	andeq	r4, r1, r8, lsl #12

00014fc8 <cJSON_Delete>:
   14fc8:	e92d41f0 	push	{r4, r5, r6, r7, r8, lr}
   14fcc:	e59f5088 	ldr	r5, [pc, #136]	; 1505c <cJSON_Delete+0x94>
   14fd0:	e59f6088 	ldr	r6, [pc, #136]	; 15060 <cJSON_Delete+0x98>
   14fd4:	e59f7088 	ldr	r7, [pc, #136]	; 15064 <cJSON_Delete+0x9c>
   14fd8:	e1a04000 	mov	r4, r0
   14fdc:	e08f5005 	add	r5, pc, r5
   14fe0:	e08f6006 	add	r6, pc, r6
   14fe4:	e08f7007 	add	r7, pc, r7
   14fe8:	e3540000 	cmp	r4, #0
   14fec:	0a000019 	beq	15058 <cJSON_Delete+0x90>
   14ff0:	e594300c 	ldr	r3, [r4, #12]
   14ff4:	e5948000 	ldr	r8, [r4]
   14ff8:	e3130c01 	tst	r3, #256	; 0x100
   14ffc:	1a000003 	bne	15010 <cJSON_Delete+0x48>
   15000:	e5940008 	ldr	r0, [r4, #8]
   15004:	e3500000 	cmp	r0, #0
   15008:	0a000000 	beq	15010 <cJSON_Delete+0x48>
   1500c:	ebffffed 	bl	14fc8 <cJSON_Delete>
   15010:	e594300c 	ldr	r3, [r4, #12]
   15014:	e3130c01 	tst	r3, #256	; 0x100
   15018:	1a000004 	bne	15030 <cJSON_Delete+0x68>
   1501c:	e5940010 	ldr	r0, [r4, #16]
   15020:	e3500000 	cmp	r0, #0
   15024:	0a000001 	beq	15030 <cJSON_Delete+0x68>
   15028:	e5953004 	ldr	r3, [r5, #4]
   1502c:	e12fff33 	blx	r3
   15030:	e5940020 	ldr	r0, [r4, #32]
   15034:	e3500000 	cmp	r0, #0
   15038:	0a000001 	beq	15044 <cJSON_Delete+0x7c>
   1503c:	e5963004 	ldr	r3, [r6, #4]
   15040:	e12fff33 	blx	r3
   15044:	e1a00004 	mov	r0, r4
   15048:	e5973004 	ldr	r3, [r7, #4]
   1504c:	e12fff33 	blx	r3
   15050:	e1a04008 	mov	r4, r8
   15054:	eaffffe3 	b	14fe8 <cJSON_Delete+0x20>
   15058:	e8bd81f0 	pop	{r4, r5, r6, r7, r8, pc}
   1505c:	000145d0 	ldrdeq	r4, [r1], -r0
   15060:	000145cc 	andeq	r4, r1, ip, asr #11
   15064:	000145c8 	andeq	r4, r1, r8, asr #11

00015068 <cJSON_ParseWithOpts>:
   15068:	e92d43f8 	push	{r3, r4, r5, r6, r7, r8, r9, lr}
   1506c:	e1a05000 	mov	r5, r0
   15070:	e1a06001 	mov	r6, r1
   15074:	e1a09002 	mov	r9, r2
   15078:	ebfffbda 	bl	13fe8 <cJSON_New_Item>
   1507c:	e59f807c 	ldr	r8, [pc, #124]	; 15100 <cJSON_ParseWithOpts+0x98>
   15080:	e3a07000 	mov	r7, #0
   15084:	e08f8008 	add	r8, pc, r8
   15088:	e2504000 	subs	r4, r0, #0
   1508c:	e5887000 	str	r7, [r8]
   15090:	0a000018 	beq	150f8 <cJSON_ParseWithOpts+0x90>
   15094:	e1a00005 	mov	r0, r5
   15098:	ebfffbc9 	bl	13fc4 <skip>
   1509c:	e1a01000 	mov	r1, r0
   150a0:	e1a00004 	mov	r0, r4
   150a4:	ebfffc63 	bl	14238 <parse_value>
   150a8:	e2505000 	subs	r5, r0, #0
   150ac:	1a000003 	bne	150c0 <cJSON_ParseWithOpts+0x58>
   150b0:	e1a00004 	mov	r0, r4
   150b4:	ebffffc3 	bl	14fc8 <cJSON_Delete>
   150b8:	e1a00005 	mov	r0, r5
   150bc:	e8bd83f8 	pop	{r3, r4, r5, r6, r7, r8, r9, pc}
   150c0:	e3590000 	cmp	r9, #0
   150c4:	0a000009 	beq	150f0 <cJSON_ParseWithOpts+0x88>
   150c8:	ebfffbbd 	bl	13fc4 <skip>
   150cc:	e5d03000 	ldrb	r3, [r0]
   150d0:	e1a05000 	mov	r5, r0
   150d4:	e3530000 	cmp	r3, #0
   150d8:	0a000004 	beq	150f0 <cJSON_ParseWithOpts+0x88>
   150dc:	e1a00004 	mov	r0, r4
   150e0:	ebffffb8 	bl	14fc8 <cJSON_Delete>
   150e4:	e5885000 	str	r5, [r8]
   150e8:	e1a00007 	mov	r0, r7
   150ec:	e8bd83f8 	pop	{r3, r4, r5, r6, r7, r8, r9, pc}
   150f0:	e3560000 	cmp	r6, #0
   150f4:	15865000 	strne	r5, [r6]
   150f8:	e1a00004 	mov	r0, r4
   150fc:	e8bd83f8 	pop	{r3, r4, r5, r6, r7, r8, r9, pc}
   15100:	000146f8 	strdeq	r4, [r1], -r8

00015104 <cJSON_Parse>:
   15104:	e3a01000 	mov	r1, #0
   15108:	e1a02001 	mov	r2, r1
   1510c:	eaffffd5 	b	15068 <cJSON_ParseWithOpts>

00015110 <cJSON_Print>:
   15110:	e3a01000 	mov	r1, #0
   15114:	e3a02001 	mov	r2, #1
   15118:	eafffd70 	b	146e0 <print_value>

0001511c <cJSON_PrintUnformatted>:
   1511c:	e3a01000 	mov	r1, #0
   15120:	e1a02001 	mov	r2, r1
   15124:	eafffd6d 	b	146e0 <print_value>

00015128 <cJSON_GetArraySize>:
   15128:	e5903008 	ldr	r3, [r0, #8]
   1512c:	e3a00000 	mov	r0, #0
   15130:	e3530000 	cmp	r3, #0
   15134:	12800001 	addne	r0, r0, #1
   15138:	15933000 	ldrne	r3, [r3]
   1513c:	1afffffb 	bne	15130 <cJSON_GetArraySize+0x8>
   15140:	e12fff1e 	bx	lr

00015144 <cJSON_GetArrayItem>:
   15144:	e5900008 	ldr	r0, [r0, #8]
   15148:	e3500000 	cmp	r0, #0
   1514c:	13510000 	cmpne	r1, #0
   15150:	c2411001 	subgt	r1, r1, #1
   15154:	c5900000 	ldrgt	r0, [r0]
   15158:	cafffffa 	bgt	15148 <cJSON_GetArrayItem+0x4>
   1515c:	e12fff1e 	bx	lr

00015160 <cJSON_GetObjectItem>:
   15160:	e92d4038 	push	{r3, r4, r5, lr}
   15164:	e1a05001 	mov	r5, r1
   15168:	e5904008 	ldr	r4, [r0, #8]
   1516c:	e3540000 	cmp	r4, #0
   15170:	0a000005 	beq	1518c <cJSON_GetObjectItem+0x2c>
   15174:	e5940020 	ldr	r0, [r4, #32]
   15178:	e1a01005 	mov	r1, r5
   1517c:	ebfffa8b 	bl	13bb0 <cJSON_strcasecmp>
   15180:	e3500000 	cmp	r0, #0
   15184:	15944000 	ldrne	r4, [r4]
   15188:	1afffff7 	bne	1516c <cJSON_GetObjectItem+0xc>
   1518c:	e1a00004 	mov	r0, r4
   15190:	e8bd8038 	pop	{r3, r4, r5, pc}

00015194 <cJSON_AddItemToArray>:
   15194:	e3510000 	cmp	r1, #0
   15198:	e5903008 	ldr	r3, [r0, #8]
   1519c:	012fff1e 	bxeq	lr
   151a0:	e3530000 	cmp	r3, #0
   151a4:	05801008 	streq	r1, [r0, #8]
   151a8:	012fff1e 	bxeq	lr
   151ac:	e5932000 	ldr	r2, [r3]
   151b0:	e3520000 	cmp	r2, #0
   151b4:	11a03002 	movne	r3, r2
   151b8:	1afffffb 	bne	151ac <cJSON_AddItemToArray+0x18>
   151bc:	e5831000 	str	r1, [r3]
   151c0:	e5813004 	str	r3, [r1, #4]
   151c4:	e12fff1e 	bx	lr

000151c8 <cJSON_AddItemToObject>:
   151c8:	e92d4070 	push	{r4, r5, r6, lr}
   151cc:	e2524000 	subs	r4, r2, #0
   151d0:	08bd8070 	popeq	{r4, r5, r6, pc}
   151d4:	e1a05000 	mov	r5, r0
   151d8:	e5940020 	ldr	r0, [r4, #32]
   151dc:	e1a06001 	mov	r6, r1
   151e0:	e3500000 	cmp	r0, #0
   151e4:	0a000003 	beq	151f8 <cJSON_AddItemToObject+0x30>
   151e8:	e59f2024 	ldr	r2, [pc, #36]	; 15214 <cJSON_AddItemToObject+0x4c>
   151ec:	e08f2002 	add	r2, pc, r2
   151f0:	e5922004 	ldr	r2, [r2, #4]
   151f4:	e12fff32 	blx	r2
   151f8:	e1a00006 	mov	r0, r6
   151fc:	ebfffb87 	bl	14020 <cJSON_strdup>
   15200:	e1a01004 	mov	r1, r4
   15204:	e5840020 	str	r0, [r4, #32]
   15208:	e1a00005 	mov	r0, r5
   1520c:	e8bd4070 	pop	{r4, r5, r6, lr}
   15210:	eaffffdf 	b	15194 <cJSON_AddItemToArray>
   15214:	000143c0 	andeq	r4, r1, r0, asr #7

00015218 <cJSON_AddItemReferenceToArray>:
   15218:	e92d4010 	push	{r4, lr}
   1521c:	e1a04000 	mov	r4, r0
   15220:	e1a00001 	mov	r0, r1
   15224:	ebfffb8e 	bl	14064 <create_reference>
   15228:	e1a01000 	mov	r1, r0
   1522c:	e1a00004 	mov	r0, r4
   15230:	e8bd4010 	pop	{r4, lr}
   15234:	eaffffd6 	b	15194 <cJSON_AddItemToArray>

00015238 <cJSON_AddItemReferenceToObject>:
   15238:	e92d4038 	push	{r3, r4, r5, lr}
   1523c:	e1a05000 	mov	r5, r0
   15240:	e1a00002 	mov	r0, r2
   15244:	e1a04001 	mov	r4, r1
   15248:	ebfffb85 	bl	14064 <create_reference>
   1524c:	e1a01004 	mov	r1, r4
   15250:	e1a02000 	mov	r2, r0
   15254:	e1a00005 	mov	r0, r5
   15258:	e8bd4038 	pop	{r3, r4, r5, lr}
   1525c:	eaffffd9 	b	151c8 <cJSON_AddItemToObject>

00015260 <cJSON_DetachItemFromArray>:
   15260:	e5903008 	ldr	r3, [r0, #8]
   15264:	e3530000 	cmp	r3, #0
   15268:	13510000 	cmpne	r1, #0
   1526c:	c5933000 	ldrgt	r3, [r3]
   15270:	c2411001 	subgt	r1, r1, #1
   15274:	cafffffa 	bgt	15264 <cJSON_DetachItemFromArray+0x4>
   15278:	e3530000 	cmp	r3, #0
   1527c:	0a00000e 	beq	152bc <cJSON_DetachItemFromArray+0x5c>
   15280:	e5932004 	ldr	r2, [r3, #4]
   15284:	e3520000 	cmp	r2, #0
   15288:	15931000 	ldrne	r1, [r3]
   1528c:	15821000 	strne	r1, [r2]
   15290:	e5932000 	ldr	r2, [r3]
   15294:	e3520000 	cmp	r2, #0
   15298:	15931004 	ldrne	r1, [r3, #4]
   1529c:	15821004 	strne	r1, [r2, #4]
   152a0:	e5902008 	ldr	r2, [r0, #8]
   152a4:	e1530002 	cmp	r3, r2
   152a8:	05932000 	ldreq	r2, [r3]
   152ac:	05802008 	streq	r2, [r0, #8]
   152b0:	e3a02000 	mov	r2, #0
   152b4:	e5832000 	str	r2, [r3]
   152b8:	e5832004 	str	r2, [r3, #4]
   152bc:	e1a00003 	mov	r0, r3
   152c0:	e12fff1e 	bx	lr

000152c4 <cJSON_DeleteItemFromArray>:
   152c4:	e92d4008 	push	{r3, lr}
   152c8:	ebffffe4 	bl	15260 <cJSON_DetachItemFromArray>
   152cc:	e8bd4008 	pop	{r3, lr}
   152d0:	eaffff3c 	b	14fc8 <cJSON_Delete>

000152d4 <cJSON_DetachItemFromObject>:
   152d4:	e92d40f8 	push	{r3, r4, r5, r6, r7, lr}
   152d8:	e1a06000 	mov	r6, r0
   152dc:	e1a07001 	mov	r7, r1
   152e0:	e5904008 	ldr	r4, [r0, #8]
   152e4:	e3a05000 	mov	r5, #0
   152e8:	e3540000 	cmp	r4, #0
   152ec:	0a00000a 	beq	1531c <cJSON_DetachItemFromObject+0x48>
   152f0:	e5940020 	ldr	r0, [r4, #32]
   152f4:	e1a01007 	mov	r1, r7
   152f8:	ebfffa2c 	bl	13bb0 <cJSON_strcasecmp>
   152fc:	e3500000 	cmp	r0, #0
   15300:	12855001 	addne	r5, r5, #1
   15304:	15944000 	ldrne	r4, [r4]
   15308:	1afffff6 	bne	152e8 <cJSON_DetachItemFromObject+0x14>
   1530c:	e1a00006 	mov	r0, r6
   15310:	e1a01005 	mov	r1, r5
   15314:	e8bd40f8 	pop	{r3, r4, r5, r6, r7, lr}
   15318:	eaffffd0 	b	15260 <cJSON_DetachItemFromArray>
   1531c:	e1a00004 	mov	r0, r4
   15320:	e8bd80f8 	pop	{r3, r4, r5, r6, r7, pc}

00015324 <cJSON_DeleteItemFromObject>:
   15324:	e92d4008 	push	{r3, lr}
   15328:	ebffffe9 	bl	152d4 <cJSON_DetachItemFromObject>
   1532c:	e8bd4008 	pop	{r3, lr}
   15330:	eaffff24 	b	14fc8 <cJSON_Delete>

00015334 <cJSON_ReplaceItemInArray>:
   15334:	e5903008 	ldr	r3, [r0, #8]
   15338:	e3530000 	cmp	r3, #0
   1533c:	13510000 	cmpne	r1, #0
   15340:	c5933000 	ldrgt	r3, [r3]
   15344:	c2411001 	subgt	r1, r1, #1
   15348:	cafffffa 	bgt	15338 <cJSON_ReplaceItemInArray+0x4>
   1534c:	e3530000 	cmp	r3, #0
   15350:	012fff1e 	bxeq	lr
   15354:	e5931000 	ldr	r1, [r3]
   15358:	e5821000 	str	r1, [r2]
   1535c:	e3510000 	cmp	r1, #0
   15360:	e593c004 	ldr	ip, [r3, #4]
   15364:	e582c004 	str	ip, [r2, #4]
   15368:	15812004 	strne	r2, [r1, #4]
   1536c:	e5901008 	ldr	r1, [r0, #8]
   15370:	e1530001 	cmp	r3, r1
   15374:	15921004 	ldrne	r1, [r2, #4]
   15378:	05802008 	streq	r2, [r0, #8]
   1537c:	15812000 	strne	r2, [r1]
   15380:	e3a02000 	mov	r2, #0
   15384:	e1a00003 	mov	r0, r3
   15388:	e5832004 	str	r2, [r3, #4]
   1538c:	e5832000 	str	r2, [r3]
   15390:	eaffff0c 	b	14fc8 <cJSON_Delete>

00015394 <cJSON_ReplaceItemInObject>:
   15394:	e92d41f0 	push	{r4, r5, r6, r7, r8, lr}
   15398:	e1a07000 	mov	r7, r0
   1539c:	e1a08001 	mov	r8, r1
   153a0:	e1a06002 	mov	r6, r2
   153a4:	e5904008 	ldr	r4, [r0, #8]
   153a8:	e3a05000 	mov	r5, #0
   153ac:	e3540000 	cmp	r4, #0
   153b0:	08bd81f0 	popeq	{r4, r5, r6, r7, r8, pc}
   153b4:	e5940020 	ldr	r0, [r4, #32]
   153b8:	e1a01008 	mov	r1, r8
   153bc:	ebfff9fb 	bl	13bb0 <cJSON_strcasecmp>
   153c0:	e3500000 	cmp	r0, #0
   153c4:	12855001 	addne	r5, r5, #1
   153c8:	15944000 	ldrne	r4, [r4]
   153cc:	1afffff6 	bne	153ac <cJSON_ReplaceItemInObject+0x18>
   153d0:	e1a00008 	mov	r0, r8
   153d4:	ebfffb11 	bl	14020 <cJSON_strdup>
   153d8:	e1a01005 	mov	r1, r5
   153dc:	e1a02006 	mov	r2, r6
   153e0:	e5860020 	str	r0, [r6, #32]
   153e4:	e1a00007 	mov	r0, r7
   153e8:	e8bd41f0 	pop	{r4, r5, r6, r7, r8, lr}
   153ec:	eaffffd0 	b	15334 <cJSON_ReplaceItemInArray>

000153f0 <cJSON_CreateNull>:
   153f0:	e92d4008 	push	{r3, lr}
   153f4:	ebfffafb 	bl	13fe8 <cJSON_New_Item>
   153f8:	e3500000 	cmp	r0, #0
   153fc:	13a03002 	movne	r3, #2
   15400:	1580300c 	strne	r3, [r0, #12]
   15404:	e8bd8008 	pop	{r3, pc}

00015408 <cJSON_CreateTrue>:
   15408:	e92d4008 	push	{r3, lr}
   1540c:	ebfffaf5 	bl	13fe8 <cJSON_New_Item>
   15410:	e3500000 	cmp	r0, #0
   15414:	13a03001 	movne	r3, #1
   15418:	1580300c 	strne	r3, [r0, #12]
   1541c:	e8bd8008 	pop	{r3, pc}

00015420 <cJSON_CreateFalse>:
   15420:	e92d4008 	push	{r3, lr}
   15424:	ebfffaef 	bl	13fe8 <cJSON_New_Item>
   15428:	e3500000 	cmp	r0, #0
   1542c:	13a03000 	movne	r3, #0
   15430:	1580300c 	strne	r3, [r0, #12]
   15434:	e8bd8008 	pop	{r3, pc}

00015438 <cJSON_CreateBool>:
   15438:	e92d4010 	push	{r4, lr}
   1543c:	e1a04000 	mov	r4, r0
   15440:	ebfffae8 	bl	13fe8 <cJSON_New_Item>
   15444:	e3500000 	cmp	r0, #0
   15448:	08bd8010 	popeq	{r4, pc}
   1544c:	e2944000 	adds	r4, r4, #0
   15450:	13a04001 	movne	r4, #1
   15454:	e580400c 	str	r4, [r0, #12]
   15458:	e8bd8010 	pop	{r4, pc}

0001545c <cJSON_CreateNumber>:
   1545c:	e92d4008 	push	{r3, lr}
   15460:	ed2d8b02 	vpush	{d8}
   15464:	eeb08b40 	vmov.f64	d8, d0
   15468:	ebfffade 	bl	13fe8 <cJSON_New_Item>
   1546c:	e3500000 	cmp	r0, #0
   15470:	13a03003 	movne	r3, #3
   15474:	1d808b06 	vstrne	d8, [r0, #24]
   15478:	1ebd8bc8 	vcvtne.s32.f64	s16, d8
   1547c:	1580300c 	strne	r3, [r0, #12]
   15480:	1d808a05 	vstrne	s16, [r0, #20]
   15484:	ecbd8b02 	vpop	{d8}
   15488:	e8bd8008 	pop	{r3, pc}

0001548c <cJSON_CreateString>:
   1548c:	e92d4038 	push	{r3, r4, r5, lr}
   15490:	e1a05000 	mov	r5, r0
   15494:	ebfffad3 	bl	13fe8 <cJSON_New_Item>
   15498:	e2504000 	subs	r4, r0, #0
   1549c:	0a000004 	beq	154b4 <cJSON_CreateString+0x28>
   154a0:	e3a03004 	mov	r3, #4
   154a4:	e1a00005 	mov	r0, r5
   154a8:	e584300c 	str	r3, [r4, #12]
   154ac:	ebfffadb 	bl	14020 <cJSON_strdup>
   154b0:	e5840010 	str	r0, [r4, #16]
   154b4:	e1a00004 	mov	r0, r4
   154b8:	e8bd8038 	pop	{r3, r4, r5, pc}

000154bc <cJSON_CreateArray>:
   154bc:	e92d4008 	push	{r3, lr}
   154c0:	ebfffac8 	bl	13fe8 <cJSON_New_Item>
   154c4:	e3500000 	cmp	r0, #0
   154c8:	13a03005 	movne	r3, #5
   154cc:	1580300c 	strne	r3, [r0, #12]
   154d0:	e8bd8008 	pop	{r3, pc}

000154d4 <cJSON_CreateObject>:
   154d4:	e92d4008 	push	{r3, lr}
   154d8:	ebfffac2 	bl	13fe8 <cJSON_New_Item>
   154dc:	e3500000 	cmp	r0, #0
   154e0:	13a03006 	movne	r3, #6
   154e4:	1580300c 	strne	r3, [r0, #12]
   154e8:	e8bd8008 	pop	{r3, pc}

000154ec <cJSON_CreateIntArray>:
   154ec:	e92d41f0 	push	{r4, r5, r6, r7, r8, lr}
   154f0:	e1a08000 	mov	r8, r0
   154f4:	e1a07001 	mov	r7, r1
   154f8:	ebffffef 	bl	154bc <cJSON_CreateArray>
   154fc:	e3a05000 	mov	r5, #0
   15500:	e1a04005 	mov	r4, r5
   15504:	e1a06000 	mov	r6, r0
   15508:	e3560000 	cmp	r6, #0
   1550c:	11540007 	cmpne	r4, r7
   15510:	aa00000a 	bge	15540 <cJSON_CreateIntArray+0x54>
   15514:	e7983104 	ldr	r3, [r8, r4, lsl #2]
   15518:	ee073a90 	vmov	s15, r3
   1551c:	eeb80be7 	vcvt.f64.s32	d0, s15
   15520:	ebffffcd 	bl	1545c <cJSON_CreateNumber>
   15524:	e3540000 	cmp	r4, #0
   15528:	e2844001 	add	r4, r4, #1
   1552c:	15850000 	strne	r0, [r5]
   15530:	05860008 	streq	r0, [r6, #8]
   15534:	15805004 	strne	r5, [r0, #4]
   15538:	e1a05000 	mov	r5, r0
   1553c:	eafffff1 	b	15508 <cJSON_CreateIntArray+0x1c>
   15540:	e1a00006 	mov	r0, r6
   15544:	e8bd81f0 	pop	{r4, r5, r6, r7, r8, pc}

00015548 <cJSON_CreateFloatArray>:
   15548:	e92d41f0 	push	{r4, r5, r6, r7, r8, lr}
   1554c:	e1a07000 	mov	r7, r0
   15550:	e1a08001 	mov	r8, r1
   15554:	ebffffd8 	bl	154bc <cJSON_CreateArray>
   15558:	e3a05000 	mov	r5, #0
   1555c:	e1a04005 	mov	r4, r5
   15560:	e1a06000 	mov	r6, r0
   15564:	e3560000 	cmp	r6, #0
   15568:	11540008 	cmpne	r4, r8
   1556c:	aa000009 	bge	15598 <cJSON_CreateFloatArray+0x50>
   15570:	ecb70a01 	vldmia	r7!, {s0}
   15574:	eeb70ac0 	vcvt.f64.f32	d0, s0
   15578:	ebffffb7 	bl	1545c <cJSON_CreateNumber>
   1557c:	e3540000 	cmp	r4, #0
   15580:	e2844001 	add	r4, r4, #1
   15584:	15850000 	strne	r0, [r5]
   15588:	05860008 	streq	r0, [r6, #8]
   1558c:	15805004 	strne	r5, [r0, #4]
   15590:	e1a05000 	mov	r5, r0
   15594:	eafffff2 	b	15564 <cJSON_CreateFloatArray+0x1c>
   15598:	e1a00006 	mov	r0, r6
   1559c:	e8bd81f0 	pop	{r4, r5, r6, r7, r8, pc}

000155a0 <cJSON_CreateDoubleArray>:
   155a0:	e92d41f0 	push	{r4, r5, r6, r7, r8, lr}
   155a4:	e1a07000 	mov	r7, r0
   155a8:	e1a08001 	mov	r8, r1
   155ac:	ebffffc2 	bl	154bc <cJSON_CreateArray>
   155b0:	e3a05000 	mov	r5, #0
   155b4:	e1a04005 	mov	r4, r5
   155b8:	e1a06000 	mov	r6, r0
   155bc:	e3560000 	cmp	r6, #0
   155c0:	11540008 	cmpne	r4, r8
   155c4:	aa000008 	bge	155ec <cJSON_CreateDoubleArray+0x4c>
   155c8:	ecb70b02 	vldmia	r7!, {d0}
   155cc:	ebffffa2 	bl	1545c <cJSON_CreateNumber>
   155d0:	e3540000 	cmp	r4, #0
   155d4:	e2844001 	add	r4, r4, #1
   155d8:	15850000 	strne	r0, [r5]
   155dc:	05860008 	streq	r0, [r6, #8]
   155e0:	15805004 	strne	r5, [r0, #4]
   155e4:	e1a05000 	mov	r5, r0
   155e8:	eafffff3 	b	155bc <cJSON_CreateDoubleArray+0x1c>
   155ec:	e1a00006 	mov	r0, r6
   155f0:	e8bd81f0 	pop	{r4, r5, r6, r7, r8, pc}

000155f4 <cJSON_CreateStringArray>:
   155f4:	e92d41f0 	push	{r4, r5, r6, r7, r8, lr}
   155f8:	e1a08000 	mov	r8, r0
   155fc:	e1a07001 	mov	r7, r1
   15600:	ebffffad 	bl	154bc <cJSON_CreateArray>
   15604:	e3a05000 	mov	r5, #0
   15608:	e1a04005 	mov	r4, r5
   1560c:	e1a06000 	mov	r6, r0
   15610:	e3560000 	cmp	r6, #0
   15614:	11540007 	cmpne	r4, r7
   15618:	aa000008 	bge	15640 <cJSON_CreateStringArray+0x4c>
   1561c:	e7980104 	ldr	r0, [r8, r4, lsl #2]
   15620:	ebffff99 	bl	1548c <cJSON_CreateString>
   15624:	e3540000 	cmp	r4, #0
   15628:	e2844001 	add	r4, r4, #1
   1562c:	15850000 	strne	r0, [r5]
   15630:	05860008 	streq	r0, [r6, #8]
   15634:	15805004 	strne	r5, [r0, #4]
   15638:	e1a05000 	mov	r5, r0
   1563c:	eafffff3 	b	15610 <cJSON_CreateStringArray+0x1c>
   15640:	e1a00006 	mov	r0, r6
   15644:	e8bd81f0 	pop	{r4, r5, r6, r7, r8, pc}

00015648 <cJSON_Duplicate>:
   15648:	e92d40f8 	push	{r3, r4, r5, r6, r7, lr}
   1564c:	e2505000 	subs	r5, r0, #0
   15650:	1a000001 	bne	1565c <cJSON_Duplicate+0x14>
   15654:	e3a00000 	mov	r0, #0
   15658:	e8bd80f8 	pop	{r3, r4, r5, r6, r7, pc}
   1565c:	e1a07001 	mov	r7, r1
   15660:	ebfffa60 	bl	13fe8 <cJSON_New_Item>
   15664:	e2504000 	subs	r4, r0, #0
   15668:	0afffff9 	beq	15654 <cJSON_Duplicate+0xc>
   1566c:	e595300c 	ldr	r3, [r5, #12]
   15670:	e3c33c01 	bic	r3, r3, #256	; 0x100
   15674:	e584300c 	str	r3, [r4, #12]
   15678:	e5953014 	ldr	r3, [r5, #20]
   1567c:	e5843014 	str	r3, [r4, #20]
   15680:	e1c521d8 	ldrd	r2, [r5, #24]
   15684:	e1c421f8 	strd	r2, [r4, #24]
   15688:	e5950010 	ldr	r0, [r5, #16]
   1568c:	e3500000 	cmp	r0, #0
   15690:	0a000004 	beq	156a8 <cJSON_Duplicate+0x60>
   15694:	ebfffa61 	bl	14020 <cJSON_strdup>
   15698:	e3500000 	cmp	r0, #0
   1569c:	e1a06000 	mov	r6, r0
   156a0:	e5840010 	str	r0, [r4, #16]
   156a4:	0a00000c 	beq	156dc <cJSON_Duplicate+0x94>
   156a8:	e5950020 	ldr	r0, [r5, #32]
   156ac:	e3500000 	cmp	r0, #0
   156b0:	0a000004 	beq	156c8 <cJSON_Duplicate+0x80>
   156b4:	ebfffa59 	bl	14020 <cJSON_strdup>
   156b8:	e3500000 	cmp	r0, #0
   156bc:	e1a06000 	mov	r6, r0
   156c0:	e5840020 	str	r0, [r4, #32]
   156c4:	0a000004 	beq	156dc <cJSON_Duplicate+0x94>
   156c8:	e3570000 	cmp	r7, #0
   156cc:	13a07000 	movne	r7, #0
   156d0:	15956008 	ldrne	r6, [r5, #8]
   156d4:	1a00000e 	bne	15714 <cJSON_Duplicate+0xcc>
   156d8:	ea00000f 	b	1571c <cJSON_Duplicate+0xd4>
   156dc:	e1a00004 	mov	r0, r4
   156e0:	ebfffe38 	bl	14fc8 <cJSON_Delete>
   156e4:	eaffffda 	b	15654 <cJSON_Duplicate+0xc>
   156e8:	e1a00006 	mov	r0, r6
   156ec:	e3a01001 	mov	r1, #1
   156f0:	ebffffd4 	bl	15648 <cJSON_Duplicate>
   156f4:	e2505000 	subs	r5, r0, #0
   156f8:	0afffff7 	beq	156dc <cJSON_Duplicate+0x94>
   156fc:	e3570000 	cmp	r7, #0
   15700:	15875000 	strne	r5, [r7]
   15704:	05845008 	streq	r5, [r4, #8]
   15708:	15857004 	strne	r7, [r5, #4]
   1570c:	e1a07005 	mov	r7, r5
   15710:	e5966000 	ldr	r6, [r6]
   15714:	e3560000 	cmp	r6, #0
   15718:	1afffff2 	bne	156e8 <cJSON_Duplicate+0xa0>
   1571c:	e1a00004 	mov	r0, r4
   15720:	e8bd80f8 	pop	{r3, r4, r5, r6, r7, pc}

00015724 <cJSON_Minify>:
   15724:	e1a02000 	mov	r2, r0
   15728:	e5d03000 	ldrb	r3, [r0]
   1572c:	e3530000 	cmp	r3, #0
   15730:	0a00003e 	beq	15830 <cJSON_Minify+0x10c>
   15734:	e3530020 	cmp	r3, #32
   15738:	0a000005 	beq	15754 <cJSON_Minify+0x30>
   1573c:	e3530009 	cmp	r3, #9
   15740:	0a000003 	beq	15754 <cJSON_Minify+0x30>
   15744:	e353000d 	cmp	r3, #13
   15748:	0a000001 	beq	15754 <cJSON_Minify+0x30>
   1574c:	e353000a 	cmp	r3, #10
   15750:	1a000001 	bne	1575c <cJSON_Minify+0x38>
   15754:	e2800001 	add	r0, r0, #1
   15758:	eafffff2 	b	15728 <cJSON_Minify+0x4>
   1575c:	e353002f 	cmp	r3, #47	; 0x2f
   15760:	1a000018 	bne	157c8 <cJSON_Minify+0xa4>
   15764:	e5d01001 	ldrb	r1, [r0, #1]
   15768:	e351002f 	cmp	r1, #47	; 0x2f
   1576c:	1a000006 	bne	1578c <cJSON_Minify+0x68>
   15770:	e1a03000 	mov	r3, r0
   15774:	e1a00003 	mov	r0, r3
   15778:	e4d31001 	ldrb	r1, [r3], #1
   1577c:	e351000a 	cmp	r1, #10
   15780:	13510000 	cmpne	r1, #0
   15784:	1afffffa 	bne	15774 <cJSON_Minify+0x50>
   15788:	eaffffe6 	b	15728 <cJSON_Minify+0x4>
   1578c:	e351002a 	cmp	r1, #42	; 0x2a
   15790:	1a000022 	bne	15820 <cJSON_Minify+0xfc>
   15794:	e5d03000 	ldrb	r3, [r0]
   15798:	e3530000 	cmp	r3, #0
   1579c:	1a000001 	bne	157a8 <cJSON_Minify+0x84>
   157a0:	e2800002 	add	r0, r0, #2
   157a4:	eaffffdf 	b	15728 <cJSON_Minify+0x4>
   157a8:	e353002a 	cmp	r3, #42	; 0x2a
   157ac:	0a000001 	beq	157b8 <cJSON_Minify+0x94>
   157b0:	e2800001 	add	r0, r0, #1
   157b4:	eafffff6 	b	15794 <cJSON_Minify+0x70>
   157b8:	e5d03001 	ldrb	r3, [r0, #1]
   157bc:	e353002f 	cmp	r3, #47	; 0x2f
   157c0:	1afffffa 	bne	157b0 <cJSON_Minify+0x8c>
   157c4:	eafffff5 	b	157a0 <cJSON_Minify+0x7c>
   157c8:	e3530022 	cmp	r3, #34	; 0x22
   157cc:	02821001 	addeq	r1, r2, #1
   157d0:	0280c001 	addeq	ip, r0, #1
   157d4:	05c23000 	strbeq	r3, [r2]
   157d8:	1a000010 	bne	15820 <cJSON_Minify+0xfc>
   157dc:	e1a0000c 	mov	r0, ip
   157e0:	e2812001 	add	r2, r1, #1
   157e4:	e4d03001 	ldrb	r3, [r0], #1
   157e8:	e3530022 	cmp	r3, #34	; 0x22
   157ec:	13530000 	cmpne	r3, #0
   157f0:	0a000008 	beq	15818 <cJSON_Minify+0xf4>
   157f4:	e353005c 	cmp	r3, #92	; 0x5c
   157f8:	01a0c000 	moveq	ip, r0
   157fc:	05c13000 	strbeq	r3, [r1]
   15800:	01a01002 	moveq	r1, r2
   15804:	e5dc3000 	ldrb	r3, [ip]
   15808:	e2811001 	add	r1, r1, #1
   1580c:	e5413001 	strb	r3, [r1, #-1]
   15810:	e28cc001 	add	ip, ip, #1
   15814:	eafffff0 	b	157dc <cJSON_Minify+0xb8>
   15818:	e5c13000 	strb	r3, [r1]
   1581c:	eaffffc1 	b	15728 <cJSON_Minify+0x4>
   15820:	e5c23000 	strb	r3, [r2]
   15824:	e2800001 	add	r0, r0, #1
   15828:	e2822001 	add	r2, r2, #1
   1582c:	eaffffbd 	b	15728 <cJSON_Minify+0x4>
   15830:	e5c23000 	strb	r3, [r2]
   15834:	e12fff1e 	bx	lr

00015838 <halo_init_uart>:
   15838:	e92d47f0 	push	{r4, r5, r6, r7, r8, r9, sl, lr}
   1583c:	e59f52fc 	ldr	r5, [pc, #764]	; 15b40 <halo_init_uart+0x308>
   15840:	e24dd048 	sub	sp, sp, #72	; 0x48
   15844:	e08f5005 	add	r5, pc, r5
   15848:	e2855008 	add	r5, r5, #8
   1584c:	e1a00005 	mov	r0, r5
   15850:	e3001902 	movw	r1, #2306	; 0x902
   15854:	ebffee38 	bl	1113c <_init+0x54>
   15858:	e2504000 	subs	r4, r0, #0
   1585c:	aa000007 	bge	15880 <halo_init_uart+0x48>
   15860:	e59f02dc 	ldr	r0, [pc, #732]	; 15b44 <halo_init_uart+0x30c>
   15864:	e59f12dc 	ldr	r1, [pc, #732]	; 15b48 <halo_init_uart+0x310>
   15868:	e3a02022 	mov	r2, #34	; 0x22
   1586c:	e08f1001 	add	r1, pc, r1
   15870:	e1a03005 	mov	r3, r5
   15874:	e08f0000 	add	r0, pc, r0
   15878:	ebffeed4 	bl	113d0 <_init+0x2e8>
   1587c:	ea00000c 	b	158b4 <halo_init_uart+0x7c>
   15880:	e3a01004 	mov	r1, #4
   15884:	e3a02000 	mov	r2, #0
   15888:	ebffee61 	bl	11214 <_init+0x12c>
   1588c:	e3500000 	cmp	r0, #0
   15890:	aa000009 	bge	158bc <halo_init_uart+0x84>
   15894:	e1a00004 	mov	r0, r4
   15898:	ebffee7e 	bl	11298 <_init+0x1b0>
   1589c:	e59f02a8 	ldr	r0, [pc, #680]	; 15b4c <halo_init_uart+0x314>
   158a0:	e59f12a8 	ldr	r1, [pc, #680]	; 15b50 <halo_init_uart+0x318>
   158a4:	e08f0000 	add	r0, pc, r0
   158a8:	e08f1001 	add	r1, pc, r1
   158ac:	e3a02027 	mov	r2, #39	; 0x27
   158b0:	ebffeec6 	bl	113d0 <_init+0x2e8>
   158b4:	e3e04000 	mvn	r4, #0
   158b8:	ea000007 	b	158dc <halo_init_uart+0xa4>
   158bc:	e59f0290 	ldr	r0, [pc, #656]	; 15b54 <halo_init_uart+0x31c>
   158c0:	e59f1290 	ldr	r1, [pc, #656]	; 15b58 <halo_init_uart+0x320>
   158c4:	e58d4000 	str	r4, [sp]
   158c8:	e08f0000 	add	r0, pc, r0
   158cc:	e08f1001 	add	r1, pc, r1
   158d0:	e3a0202a 	mov	r2, #42	; 0x2a
   158d4:	e1a03005 	mov	r3, r5
   158d8:	ebffeebc 	bl	113d0 <_init+0x2e8>
   158dc:	e59f3278 	ldr	r3, [pc, #632]	; 15b5c <halo_init_uart+0x324>
   158e0:	e28d600c 	add	r6, sp, #12
   158e4:	e08f3003 	add	r3, pc, r3
   158e8:	e1a00004 	mov	r0, r4
   158ec:	e1a01006 	mov	r1, r6
   158f0:	e5834000 	str	r4, [r3]
   158f4:	e593a004 	ldr	sl, [r3, #4]
   158f8:	e5939088 	ldr	r9, [r3, #136]	; 0x88
   158fc:	e593808c 	ldr	r8, [r3, #140]	; 0x8c
   15900:	e5937090 	ldr	r7, [r3, #144]	; 0x90
   15904:	e5935094 	ldr	r5, [r3, #148]	; 0x94
   15908:	ebffee6e 	bl	112c8 <_init+0x1e0>
   1590c:	e3500000 	cmp	r0, #0
   15910:	0a000005 	beq	1592c <halo_init_uart+0xf4>
   15914:	e59f0244 	ldr	r0, [pc, #580]	; 15b60 <halo_init_uart+0x328>
   15918:	e59f1244 	ldr	r1, [pc, #580]	; 15b64 <halo_init_uart+0x32c>
   1591c:	e08f0000 	add	r0, pc, r0
   15920:	e08f1001 	add	r1, pc, r1
   15924:	e3a02033 	mov	r2, #51	; 0x33
   15928:	ea00006e 	b	15ae8 <halo_init_uart+0x2b0>
   1592c:	e1a0100a 	mov	r1, sl
   15930:	e1a00006 	mov	r0, r6
   15934:	ebffee3f 	bl	11238 <_init+0x150>
   15938:	e1a00006 	mov	r0, r6
   1593c:	e1a0100a 	mov	r1, sl
   15940:	ebffee4b 	bl	11274 <_init+0x18c>
   15944:	e3590001 	cmp	r9, #1
   15948:	e59d3014 	ldr	r3, [sp, #20]
   1594c:	0a000005 	beq	15968 <halo_init_uart+0x130>
   15950:	e3590002 	cmp	r9, #2
   15954:	03833d72 	orreq	r3, r3, #7296	; 0x1c80
   15958:	0a000004 	beq	15970 <halo_init_uart+0x138>
   1595c:	e3590000 	cmp	r9, #0
   15960:	03c33102 	biceq	r3, r3, #-2147483648	; 0x80000000
   15964:	ea000000 	b	1596c <halo_init_uart+0x134>
   15968:	e3833102 	orr	r3, r3, #-2147483648	; 0x80000000
   1596c:	e3833d22 	orr	r3, r3, #2176	; 0x880
   15970:	e58d3014 	str	r3, [sp, #20]
   15974:	e59d3014 	ldr	r3, [sp, #20]
   15978:	e2488005 	sub	r8, r8, #5
   1597c:	e3c33030 	bic	r3, r3, #48	; 0x30
   15980:	e58d3014 	str	r3, [sp, #20]
   15984:	e3580003 	cmp	r8, #3
   15988:	908ff108 	addls	pc, pc, r8, lsl #2
   1598c:	ea000056 	b	15aec <halo_init_uart+0x2b4>
   15990:	ea000008 	b	159b8 <halo_init_uart+0x180>
   15994:	ea000001 	b	159a0 <halo_init_uart+0x168>
   15998:	ea000002 	b	159a8 <halo_init_uart+0x170>
   1599c:	ea000003 	b	159b0 <halo_init_uart+0x178>
   159a0:	e3833010 	orr	r3, r3, #16
   159a4:	ea000002 	b	159b4 <halo_init_uart+0x17c>
   159a8:	e3833020 	orr	r3, r3, #32
   159ac:	ea000000 	b	159b4 <halo_init_uart+0x17c>
   159b0:	e3833030 	orr	r3, r3, #48	; 0x30
   159b4:	e58d3014 	str	r3, [sp, #20]
   159b8:	e3550053 	cmp	r5, #83	; 0x53
   159bc:	0a000021 	beq	15a48 <halo_init_uart+0x210>
   159c0:	ca000005 	bgt	159dc <halo_init_uart+0x1a4>
   159c4:	e355004e 	cmp	r5, #78	; 0x4e
   159c8:	0a000011 	beq	15a14 <halo_init_uart+0x1dc>
   159cc:	e355004f 	cmp	r5, #79	; 0x4f
   159d0:	0a000015 	beq	15a2c <halo_init_uart+0x1f4>
   159d4:	e3550045 	cmp	r5, #69	; 0x45
   159d8:	ea000003 	b	159ec <halo_init_uart+0x1b4>
   159dc:	e355006e 	cmp	r5, #110	; 0x6e
   159e0:	0a00000b 	beq	15a14 <halo_init_uart+0x1dc>
   159e4:	ca000005 	bgt	15a00 <halo_init_uart+0x1c8>
   159e8:	e3550065 	cmp	r5, #101	; 0x65
   159ec:	1a00003e 	bne	15aec <halo_init_uart+0x2b4>
   159f0:	e59d3014 	ldr	r3, [sp, #20]
   159f4:	e3c33c02 	bic	r3, r3, #512	; 0x200
   159f8:	e3833c01 	orr	r3, r3, #256	; 0x100
   159fc:	ea00000c 	b	15a34 <halo_init_uart+0x1fc>
   15a00:	e355006f 	cmp	r5, #111	; 0x6f
   15a04:	0a000008 	beq	15a2c <halo_init_uart+0x1f4>
   15a08:	e3550073 	cmp	r5, #115	; 0x73
   15a0c:	0a00000d 	beq	15a48 <halo_init_uart+0x210>
   15a10:	ea000035 	b	15aec <halo_init_uart+0x2b4>
   15a14:	e59d3014 	ldr	r3, [sp, #20]
   15a18:	e3c33c01 	bic	r3, r3, #256	; 0x100
   15a1c:	e58d3014 	str	r3, [sp, #20]
   15a20:	e59d300c 	ldr	r3, [sp, #12]
   15a24:	e3c33010 	bic	r3, r3, #16
   15a28:	ea000004 	b	15a40 <halo_init_uart+0x208>
   15a2c:	e59d3014 	ldr	r3, [sp, #20]
   15a30:	e3833c03 	orr	r3, r3, #768	; 0x300
   15a34:	e58d3014 	str	r3, [sp, #20]
   15a38:	e59d300c 	ldr	r3, [sp, #12]
   15a3c:	e3833010 	orr	r3, r3, #16
   15a40:	e58d300c 	str	r3, [sp, #12]
   15a44:	ea000002 	b	15a54 <halo_init_uart+0x21c>
   15a48:	e59d3014 	ldr	r3, [sp, #20]
   15a4c:	e3c33d05 	bic	r3, r3, #320	; 0x140
   15a50:	e58d3014 	str	r3, [sp, #20]
   15a54:	e3570001 	cmp	r7, #1
   15a58:	0a000004 	beq	15a70 <halo_init_uart+0x238>
   15a5c:	e3570002 	cmp	r7, #2
   15a60:	1a000021 	bne	15aec <halo_init_uart+0x2b4>
   15a64:	e59d3014 	ldr	r3, [sp, #20]
   15a68:	e3833040 	orr	r3, r3, #64	; 0x40
   15a6c:	ea000001 	b	15a78 <halo_init_uart+0x240>
   15a70:	e59d3014 	ldr	r3, [sp, #20]
   15a74:	e3c33040 	bic	r3, r3, #64	; 0x40
   15a78:	e58d3014 	str	r3, [sp, #20]
   15a7c:	e59d3010 	ldr	r3, [sp, #16]
   15a80:	e3a05000 	mov	r5, #0
   15a84:	e3c33009 	bic	r3, r3, #9
   15a88:	e1a01005 	mov	r1, r5
   15a8c:	e58d3010 	str	r3, [sp, #16]
   15a90:	e59d3018 	ldr	r3, [sp, #24]
   15a94:	e1a00004 	mov	r0, r4
   15a98:	e3c3301b 	bic	r3, r3, #27
   15a9c:	e5cd5022 	strb	r5, [sp, #34]	; 0x22
   15aa0:	e58d3018 	str	r3, [sp, #24]
   15aa4:	e59d300c 	ldr	r3, [sp, #12]
   15aa8:	e5cd5023 	strb	r5, [sp, #35]	; 0x23
   15aac:	e3c33e53 	bic	r3, r3, #1328	; 0x530
   15ab0:	e3c33002 	bic	r3, r3, #2
   15ab4:	e58d300c 	str	r3, [sp, #12]
   15ab8:	ebffee0e 	bl	112f8 <_init+0x210>
   15abc:	e1a00004 	mov	r0, r4
   15ac0:	e1a01005 	mov	r1, r5
   15ac4:	e1a02006 	mov	r2, r6
   15ac8:	ebffedfb 	bl	112bc <_init+0x1d4>
   15acc:	e1500005 	cmp	r0, r5
   15ad0:	0a000016 	beq	15b30 <halo_init_uart+0x2f8>
   15ad4:	e59f008c 	ldr	r0, [pc, #140]	; 15b68 <halo_init_uart+0x330>
   15ad8:	e59f108c 	ldr	r1, [pc, #140]	; 15b6c <halo_init_uart+0x334>
   15adc:	e08f0000 	add	r0, pc, r0
   15ae0:	e08f1001 	add	r1, pc, r1
   15ae4:	e3a02090 	mov	r2, #144	; 0x90
   15ae8:	ebffee38 	bl	113d0 <_init+0x2e8>
   15aec:	e1a00004 	mov	r0, r4
   15af0:	e59f5078 	ldr	r5, [pc, #120]	; 15b70 <halo_init_uart+0x338>
   15af4:	ebffede7 	bl	11298 <_init+0x1b0>
   15af8:	e59f0074 	ldr	r0, [pc, #116]	; 15b74 <halo_init_uart+0x33c>
   15afc:	e08f5005 	add	r5, pc, r5
   15b00:	e1a01005 	mov	r1, r5
   15b04:	e3a02096 	mov	r2, #150	; 0x96
   15b08:	e1a03004 	mov	r3, r4
   15b0c:	e08f0000 	add	r0, pc, r0
   15b10:	ebffee2e 	bl	113d0 <_init+0x2e8>
   15b14:	e59f005c 	ldr	r0, [pc, #92]	; 15b78 <halo_init_uart+0x340>
   15b18:	e1a01005 	mov	r1, r5
   15b1c:	e08f0000 	add	r0, pc, r0
   15b20:	e3a0209e 	mov	r2, #158	; 0x9e
   15b24:	ebffee29 	bl	113d0 <_init+0x2e8>
   15b28:	e3e00000 	mvn	r0, #0
   15b2c:	ea000001 	b	15b38 <halo_init_uart+0x300>
   15b30:	e59f3044 	ldr	r3, [pc, #68]	; 15b7c <halo_init_uart+0x344>
   15b34:	e79f0003 	ldr	r0, [pc, r3]
   15b38:	e28dd048 	add	sp, sp, #72	; 0x48
   15b3c:	e8bd87f0 	pop	{r4, r5, r6, r7, r8, r9, sl, pc}
   15b40:	00013d70 	andeq	r3, r1, r0, ror sp
   15b44:	00003267 	andeq	r3, r0, r7, ror #4
   15b48:	0000329d 	muleq	r0, sp, r2
   15b4c:	00003271 	andeq	r3, r0, r1, ror r2
   15b50:	00003261 	andeq	r3, r0, r1, ror #4
   15b54:	00003287 	andeq	r3, r0, r7, lsl #5
   15b58:	0000323d 	andeq	r3, r0, sp, lsr r2
   15b5c:	00013cd0 	ldrdeq	r3, [r1], -r0
   15b60:	00003266 	andeq	r3, r0, r6, ror #4
   15b64:	000031e9 	andeq	r3, r0, r9, ror #3
   15b68:	000030d6 	ldrdeq	r3, [r0], -r6
   15b6c:	00003029 	andeq	r3, r0, r9, lsr #32
   15b70:	0000300d 	andeq	r3, r0, sp
   15b74:	000030d4 	ldrdeq	r3, [r0], -r4
   15b78:	000030ed 	andeq	r3, r0, sp, ror #1
   15b7c:	00013a80 	andeq	r3, r1, r0, lsl #21

00015b80 <halo_uart_recv>:
   15b80:	e92d4013 	push	{r0, r1, r4, lr}
   15b84:	e1a04000 	mov	r4, r0
   15b88:	e3a01000 	mov	r1, #0
   15b8c:	e5942018 	ldr	r2, [r4, #24]
   15b90:	e5900014 	ldr	r0, [r0, #20]
   15b94:	ebffedd1 	bl	112e0 <_init+0x1f8>
   15b98:	e5940008 	ldr	r0, [r4, #8]
   15b9c:	e5941014 	ldr	r1, [r4, #20]
   15ba0:	e3a02001 	mov	r2, #1
   15ba4:	ebffed9d 	bl	11220 <_init+0x138>
   15ba8:	e3500000 	cmp	r0, #0
   15bac:	e1a03000 	mov	r3, r0
   15bb0:	e584001c 	str	r0, [r4, #28]
   15bb4:	ca00000b 	bgt	15be8 <halo_uart_recv+0x68>
   15bb8:	ebffed5c 	bl	11130 <_init+0x48>
   15bbc:	e5903000 	ldr	r3, [r0]
   15bc0:	e3530004 	cmp	r3, #4
   15bc4:	0a00000f 	beq	15c08 <halo_uart_recv+0x88>
   15bc8:	e59f0044 	ldr	r0, [pc, #68]	; 15c14 <halo_uart_recv+0x94>
   15bcc:	e59f1044 	ldr	r1, [pc, #68]	; 15c18 <halo_uart_recv+0x98>
   15bd0:	e08f0000 	add	r0, pc, r0
   15bd4:	e08f1001 	add	r1, pc, r1
   15bd8:	e3a020ad 	mov	r2, #173	; 0xad
   15bdc:	ebffedfb 	bl	113d0 <_init+0x2e8>
   15be0:	e3e00000 	mvn	r0, #0
   15be4:	ea000008 	b	15c0c <halo_uart_recv+0x8c>
   15be8:	e5942014 	ldr	r2, [r4, #20]
   15bec:	e59f0028 	ldr	r0, [pc, #40]	; 15c1c <halo_uart_recv+0x9c>
   15bf0:	e59f1028 	ldr	r1, [pc, #40]	; 15c20 <halo_uart_recv+0xa0>
   15bf4:	e58d2000 	str	r2, [sp]
   15bf8:	e08f0000 	add	r0, pc, r0
   15bfc:	e08f1001 	add	r1, pc, r1
   15c00:	e3a020b1 	mov	r2, #177	; 0xb1
   15c04:	ebffedf1 	bl	113d0 <_init+0x2e8>
   15c08:	e3a00000 	mov	r0, #0
   15c0c:	e28dd008 	add	sp, sp, #8
   15c10:	e8bd8010 	pop	{r4, pc}
   15c14:	00003069 	andeq	r3, r0, r9, rrx
   15c18:	00002f35 	andeq	r2, r0, r5, lsr pc
   15c1c:	0000306c 	andeq	r3, r0, ip, rrx
   15c20:	00002f0d 	andeq	r2, r0, sp, lsl #30

00015c24 <halo_uart_close>:
   15c24:	eaffed9b 	b	11298 <_init+0x1b0>

00015c28 <init_tcp_cli>:
   15c28:	e92d407f 	push	{r0, r1, r2, r3, r4, r5, r6, lr}
   15c2c:	e3a06001 	mov	r6, #1
   15c30:	e28d5010 	add	r5, sp, #16
   15c34:	e1a01006 	mov	r1, r6
   15c38:	e3a02000 	mov	r2, #0
   15c3c:	e3a00002 	mov	r0, #2
   15c40:	e59f40f8 	ldr	r4, [pc, #248]	; 15d40 <init_tcp_cli+0x118>
   15c44:	e5256004 	str	r6, [r5, #-4]!
   15c48:	ebffedbc 	bl	11340 <_init+0x258>
   15c4c:	e08f4004 	add	r4, pc, r4
   15c50:	e3a03000 	mov	r3, #0
   15c54:	e5840000 	str	r0, [r4]
   15c58:	e3a01006 	mov	r1, #6
   15c5c:	e58d3000 	str	r3, [sp]
   15c60:	e1a02006 	mov	r2, r6
   15c64:	e1a03005 	mov	r3, r5
   15c68:	ebffed7b 	bl	1125c <_init+0x174>
   15c6c:	e5943000 	ldr	r3, [r4]
   15c70:	e3530000 	cmp	r3, #0
   15c74:	aa000006 	bge	15c94 <init_tcp_cli+0x6c>
   15c78:	e59f00c4 	ldr	r0, [pc, #196]	; 15d44 <init_tcp_cli+0x11c>
   15c7c:	e59f10c4 	ldr	r1, [pc, #196]	; 15d48 <init_tcp_cli+0x120>
   15c80:	e3a02025 	mov	r2, #37	; 0x25
   15c84:	e08f1001 	add	r1, pc, r1
   15c88:	e08f0000 	add	r0, pc, r0
   15c8c:	ebffedcf 	bl	113d0 <_init+0x2e8>
   15c90:	ea00001e 	b	15d10 <init_tcp_cli+0xe8>
   15c94:	e2845088 	add	r5, r4, #136	; 0x88
   15c98:	e3a01000 	mov	r1, #0
   15c9c:	e3a02010 	mov	r2, #16
   15ca0:	e1a00005 	mov	r0, r5
   15ca4:	ebffed8d 	bl	112e0 <_init+0x1f8>
   15ca8:	e3a03002 	mov	r3, #2
   15cac:	e2840004 	add	r0, r4, #4
   15cb0:	e1c438b8 	strh	r3, [r4, #136]	; 0x88
   15cb4:	e1d438b4 	ldrh	r3, [r4, #132]	; 0x84
   15cb8:	e1a02403 	lsl	r2, r3, #8
   15cbc:	e1823423 	orr	r3, r2, r3, lsr #8
   15cc0:	e1c438ba 	strh	r3, [r4, #138]	; 0x8a
   15cc4:	ebffed16 	bl	11124 <_init+0x3c>
   15cc8:	e1a01005 	mov	r1, r5
   15ccc:	e3a02010 	mov	r2, #16
   15cd0:	e5903010 	ldr	r3, [r0, #16]
   15cd4:	e5940000 	ldr	r0, [r4]
   15cd8:	e5933000 	ldr	r3, [r3]
   15cdc:	e5933000 	ldr	r3, [r3]
   15ce0:	e584308c 	str	r3, [r4, #140]	; 0x8c
   15ce4:	ebffed23 	bl	11178 <_init+0x90>
   15ce8:	e3500000 	cmp	r0, #0
   15cec:	aa000009 	bge	15d18 <init_tcp_cli+0xf0>
   15cf0:	e59f0054 	ldr	r0, [pc, #84]	; 15d4c <init_tcp_cli+0x124>
   15cf4:	e59f1054 	ldr	r1, [pc, #84]	; 15d50 <init_tcp_cli+0x128>
   15cf8:	e08f0000 	add	r0, pc, r0
   15cfc:	e08f1001 	add	r1, pc, r1
   15d00:	e3a0202e 	mov	r2, #46	; 0x2e
   15d04:	ebffedb1 	bl	113d0 <_init+0x2e8>
   15d08:	e5940000 	ldr	r0, [r4]
   15d0c:	ebffed61 	bl	11298 <_init+0x1b0>
   15d10:	e3e00000 	mvn	r0, #0
   15d14:	ea000007 	b	15d38 <init_tcp_cli+0x110>
   15d18:	e59f0034 	ldr	r0, [pc, #52]	; 15d54 <init_tcp_cli+0x12c>
   15d1c:	e59f1034 	ldr	r1, [pc, #52]	; 15d58 <init_tcp_cli+0x130>
   15d20:	e08f0000 	add	r0, pc, r0
   15d24:	e08f1001 	add	r1, pc, r1
   15d28:	e3a02032 	mov	r2, #50	; 0x32
   15d2c:	e5943000 	ldr	r3, [r4]
   15d30:	ebffeda6 	bl	113d0 <_init+0x2e8>
   15d34:	e5940000 	ldr	r0, [r4]
   15d38:	e28dd010 	add	sp, sp, #16
   15d3c:	e8bd8070 	pop	{r4, r5, r6, pc}
   15d40:	00013a00 	andeq	r3, r1, r0, lsl #20
   15d44:	00003006 	andeq	r3, r0, r6
   15d48:	00003036 	andeq	r3, r0, r6, lsr r0
   15d4c:	00002fd1 	ldrdeq	r2, [r0], -r1
   15d50:	00002fbe 			; <UNDEFINED> instruction: 0x00002fbe
   15d54:	00002fd6 	ldrdeq	r2, [r0], -r6
   15d58:	00002f96 	muleq	r0, r6, pc	; <UNPREDICTABLE>

00015d5c <tcp_cli_recv_cb>:
   15d5c:	e92d4010 	push	{r4, lr}
   15d60:	e1a04000 	mov	r4, r0
   15d64:	e3a01000 	mov	r1, #0
   15d68:	e5942018 	ldr	r2, [r4, #24]
   15d6c:	e5900014 	ldr	r0, [r0, #20]
   15d70:	ebffed5a 	bl	112e0 <_init+0x1f8>
   15d74:	e5940008 	ldr	r0, [r4, #8]
   15d78:	e5941014 	ldr	r1, [r4, #20]
   15d7c:	e5942018 	ldr	r2, [r4, #24]
   15d80:	e3a03000 	mov	r3, #0
   15d84:	ebffed19 	bl	111f0 <_init+0x108>
   15d88:	e3500000 	cmp	r0, #0
   15d8c:	e584001c 	str	r0, [r4, #28]
   15d90:	ca000004 	bgt	15da8 <tcp_cli_recv_cb+0x4c>
   15d94:	ebffece5 	bl	11130 <_init+0x48>
   15d98:	e5900000 	ldr	r0, [r0]
   15d9c:	e2500004 	subs	r0, r0, #4
   15da0:	13e00000 	mvnne	r0, #0
   15da4:	e8bd8010 	pop	{r4, pc}
   15da8:	e8bd8010 	pop	{r4, pc}

00015dac <tcp_cli_close>:
   15dac:	e92d4010 	push	{r4, lr}
   15db0:	e59f1020 	ldr	r1, [pc, #32]	; 15dd8 <tcp_cli_close+0x2c>
   15db4:	e1a04000 	mov	r4, r0
   15db8:	e59f001c 	ldr	r0, [pc, #28]	; 15ddc <tcp_cli_close+0x30>
   15dbc:	e08f1001 	add	r1, pc, r1
   15dc0:	e08f0000 	add	r0, pc, r0
   15dc4:	e3a02045 	mov	r2, #69	; 0x45
   15dc8:	ebffed80 	bl	113d0 <_init+0x2e8>
   15dcc:	e1a00004 	mov	r0, r4
   15dd0:	e8bd4010 	pop	{r4, lr}
   15dd4:	eaffed2f 	b	11298 <_init+0x1b0>
   15dd8:	00002efe 	strdeq	r2, [r0], -lr
   15ddc:	00002f6d 	andeq	r2, r0, sp, ror #30

00015de0 <resultcb>:
   15de0:	e92d4037 	push	{r0, r1, r2, r4, r5, lr}
   15de4:	e59f5084 	ldr	r5, [pc, #132]	; 15e70 <resultcb+0x90>
   15de8:	e2804004 	add	r4, r0, #4
   15dec:	e1a03000 	mov	r3, r0
   15df0:	e59f007c 	ldr	r0, [pc, #124]	; 15e74 <resultcb+0x94>
   15df4:	e08f5005 	add	r5, pc, r5
   15df8:	e3a02013 	mov	r2, #19
   15dfc:	e58d4000 	str	r4, [sp]
   15e00:	e1a01005 	mov	r1, r5
   15e04:	e5933000 	ldr	r3, [r3]
   15e08:	e08f0000 	add	r0, pc, r0
   15e0c:	ebffed6f 	bl	113d0 <_init+0x2e8>
   15e10:	e1a00004 	mov	r0, r4
   15e14:	ebfffcba 	bl	15104 <cJSON_Parse>
   15e18:	e59f1058 	ldr	r1, [pc, #88]	; 15e78 <resultcb+0x98>
   15e1c:	e08f1001 	add	r1, pc, r1
   15e20:	e1a04000 	mov	r4, r0
   15e24:	ebfffccd 	bl	15160 <cJSON_GetObjectItem>
   15e28:	e59f204c 	ldr	r2, [pc, #76]	; 15e7c <resultcb+0x9c>
   15e2c:	e5903014 	ldr	r3, [r0, #20]
   15e30:	e1530002 	cmp	r3, r2
   15e34:	0a000008 	beq	15e5c <resultcb+0x7c>
   15e38:	e59f0040 	ldr	r0, [pc, #64]	; 15e80 <resultcb+0xa0>
   15e3c:	e1a01005 	mov	r1, r5
   15e40:	e3a02018 	mov	r2, #24
   15e44:	e08f0000 	add	r0, pc, r0
   15e48:	ebffed60 	bl	113d0 <_init+0x2e8>
   15e4c:	e1a00004 	mov	r0, r4
   15e50:	ebfffc5c 	bl	14fc8 <cJSON_Delete>
   15e54:	e3e00000 	mvn	r0, #0
   15e58:	ea000002 	b	15e68 <resultcb+0x88>
   15e5c:	e1a00004 	mov	r0, r4
   15e60:	ebfffc58 	bl	14fc8 <cJSON_Delete>
   15e64:	e3a00000 	mov	r0, #0
   15e68:	e28dd00c 	add	sp, sp, #12
   15e6c:	e8bd8030 	pop	{r4, r5, pc}
   15e70:	00002f98 	muleq	r0, r8, pc	; <UNPREDICTABLE>
   15e74:	00002f51 	andeq	r2, r0, r1, asr pc
   15e78:	000032d6 	ldrdeq	r3, [r0], -r6
   15e7c:	000186a0 	andeq	r8, r1, r0, lsr #13
   15e80:	00002f5b 	andeq	r2, r0, fp, asr pc

00015e84 <__init_bodies>:
   15e84:	e92d4ff0 	push	{r4, r5, r6, r7, r8, r9, sl, fp, lr}
   15e88:	e24dd0b4 	sub	sp, sp, #180	; 0xb4
   15e8c:	e28da024 	add	sl, sp, #36	; 0x24
   15e90:	e3a04000 	mov	r4, #0
   15e94:	e1a06002 	mov	r6, r2
   15e98:	e1a05000 	mov	r5, r0
   15e9c:	e3a02010 	mov	r2, #16
   15ea0:	e1a09001 	mov	r9, r1
   15ea4:	e1a0000a 	mov	r0, sl
   15ea8:	e3a01000 	mov	r1, #0
   15eac:	ebffed0b 	bl	112e0 <_init+0x1f8>
   15eb0:	e1a01004 	mov	r1, r4
   15eb4:	e3a0201d 	mov	r2, #29
   15eb8:	e28d0038 	add	r0, sp, #56	; 0x38
   15ebc:	e58d4034 	str	r4, [sp, #52]	; 0x34
   15ec0:	ebffed06 	bl	112e0 <_init+0x1f8>
   15ec4:	e59f11f4 	ldr	r1, [pc, #500]	; 160c0 <__init_bodies+0x23c>
   15ec8:	e28d7014 	add	r7, sp, #20
   15ecc:	e1a02006 	mov	r2, r6
   15ed0:	e08f1001 	add	r1, pc, r1
   15ed4:	e1a00007 	mov	r0, r7
   15ed8:	e58d4014 	str	r4, [sp, #20]
   15edc:	e5cd4018 	strb	r4, [sp, #24]
   15ee0:	e58d401c 	str	r4, [sp, #28]
   15ee4:	e5cd4020 	strb	r4, [sp, #32]
   15ee8:	ebffed0e 	bl	11328 <_init+0x240>
   15eec:	e1a00007 	mov	r0, r7
   15ef0:	ebffecc1 	bl	111fc <_init+0x114>
   15ef4:	e2808048 	add	r8, r0, #72	; 0x48
   15ef8:	e1a00008 	mov	r0, r8
   15efc:	ebffecac 	bl	111b4 <_init+0xcc>
   15f00:	e2506000 	subs	r6, r0, #0
   15f04:	1a000007 	bne	15f28 <__init_bodies+0xa4>
   15f08:	e59f01b4 	ldr	r0, [pc, #436]	; 160c4 <__init_bodies+0x240>
   15f0c:	e59f11b4 	ldr	r1, [pc, #436]	; 160c8 <__init_bodies+0x244>
   15f10:	e08f0000 	add	r0, pc, r0
   15f14:	e08f1001 	add	r1, pc, r1
   15f18:	e3a0202e 	mov	r2, #46	; 0x2e
   15f1c:	ebffed2b 	bl	113d0 <_init+0x2e8>
   15f20:	e3e00000 	mvn	r0, #0
   15f24:	ea000063 	b	160b8 <__init_bodies+0x234>
   15f28:	e1a02008 	mov	r2, r8
   15f2c:	e1a01004 	mov	r1, r4
   15f30:	ebffecea 	bl	112e0 <_init+0x1f8>
   15f34:	e59f3190 	ldr	r3, [pc, #400]	; 160cc <__init_bodies+0x248>
   15f38:	e59f1190 	ldr	r1, [pc, #400]	; 160d0 <__init_bodies+0x24c>
   15f3c:	e08f3003 	add	r3, pc, r3
   15f40:	e08f1001 	add	r1, pc, r1
   15f44:	e58d3000 	str	r3, [sp]
   15f48:	e59f3184 	ldr	r3, [pc, #388]	; 160d4 <__init_bodies+0x250>
   15f4c:	e1a02007 	mov	r2, r7
   15f50:	e08f3003 	add	r3, pc, r3
   15f54:	e28d8058 	add	r8, sp, #88	; 0x58
   15f58:	e58d3004 	str	r3, [sp, #4]
   15f5c:	e59f3174 	ldr	r3, [pc, #372]	; 160d8 <__init_bodies+0x254>
   15f60:	e1a00006 	mov	r0, r6
   15f64:	e08f3003 	add	r3, pc, r3
   15f68:	e59fb16c 	ldr	fp, [pc, #364]	; 160dc <__init_bodies+0x258>
   15f6c:	e58d3008 	str	r3, [sp, #8]
   15f70:	e59f3168 	ldr	r3, [pc, #360]	; 160e0 <__init_bodies+0x25c>
   15f74:	e08fb00b 	add	fp, pc, fp
   15f78:	e08f3003 	add	r3, pc, r3
   15f7c:	ebffece9 	bl	11328 <_init+0x240>
   15f80:	e1a00008 	mov	r0, r8
   15f84:	eb000400 	bl	16f8c <MD5Init>
   15f88:	e1a00006 	mov	r0, r6
   15f8c:	ebffec9a 	bl	111fc <_init+0x114>
   15f90:	e1a01006 	mov	r1, r6
   15f94:	e1a02000 	mov	r2, r0
   15f98:	e1a00008 	mov	r0, r8
   15f9c:	eb0006a5 	bl	17a38 <MD5Update>
   15fa0:	e1a00008 	mov	r0, r8
   15fa4:	e1a0100a 	mov	r1, sl
   15fa8:	e28d8034 	add	r8, sp, #52	; 0x34
   15fac:	eb0006cd 	bl	17ae8 <MD5Final>
   15fb0:	e1a00008 	mov	r0, r8
   15fb4:	e1a01004 	mov	r1, r4
   15fb8:	e3a02021 	mov	r2, #33	; 0x21
   15fbc:	ebffecc7 	bl	112e0 <_init+0x1f8>
   15fc0:	e7da3004 	ldrb	r3, [sl, r4]
   15fc4:	e1a00008 	mov	r0, r8
   15fc8:	e1a0100b 	mov	r1, fp
   15fcc:	e1a02008 	mov	r2, r8
   15fd0:	e2844001 	add	r4, r4, #1
   15fd4:	ebffecd3 	bl	11328 <_init+0x240>
   15fd8:	e3540010 	cmp	r4, #16
   15fdc:	1afffff7 	bne	15fc0 <__init_bodies+0x13c>
   15fe0:	e5dd2034 	ldrb	r2, [sp, #52]	; 0x34
   15fe4:	e3a03001 	mov	r3, #1
   15fe8:	e7d81003 	ldrb	r1, [r8, r3]
   15fec:	e2833001 	add	r3, r3, #1
   15ff0:	e3530020 	cmp	r3, #32
   15ff4:	e0222001 	eor	r2, r2, r1
   15ff8:	1afffffa 	bne	15fe8 <__init_bodies+0x164>
   15ffc:	e59f10e0 	ldr	r1, [pc, #224]	; 160e4 <__init_bodies+0x260>
   16000:	e28d401c 	add	r4, sp, #28
   16004:	e08f1001 	add	r1, pc, r1
   16008:	e1a00004 	mov	r0, r4
   1600c:	ebffecc5 	bl	11328 <_init+0x240>
   16010:	e59f10d0 	ldr	r1, [pc, #208]	; 160e8 <__init_bodies+0x264>
   16014:	e59f20d0 	ldr	r2, [pc, #208]	; 160ec <__init_bodies+0x268>
   16018:	e08f1001 	add	r1, pc, r1
   1601c:	e08f2002 	add	r2, pc, r2
   16020:	e1a00005 	mov	r0, r5
   16024:	ebffef41 	bl	11d30 <add_hash>
   16028:	e59f10c0 	ldr	r1, [pc, #192]	; 160f0 <__init_bodies+0x26c>
   1602c:	e1a02004 	mov	r2, r4
   16030:	e08f1001 	add	r1, pc, r1
   16034:	e1a00005 	mov	r0, r5
   16038:	ebffef3c 	bl	11d30 <add_hash>
   1603c:	e59f10b0 	ldr	r1, [pc, #176]	; 160f4 <__init_bodies+0x270>
   16040:	e59f20b0 	ldr	r2, [pc, #176]	; 160f8 <__init_bodies+0x274>
   16044:	e08f1001 	add	r1, pc, r1
   16048:	e08f2002 	add	r2, pc, r2
   1604c:	e1a00005 	mov	r0, r5
   16050:	ebffef36 	bl	11d30 <add_hash>
   16054:	e59f10a0 	ldr	r1, [pc, #160]	; 160fc <__init_bodies+0x278>
   16058:	e59f20a0 	ldr	r2, [pc, #160]	; 16100 <__init_bodies+0x27c>
   1605c:	e08f1001 	add	r1, pc, r1
   16060:	e08f2002 	add	r2, pc, r2
   16064:	e1a00005 	mov	r0, r5
   16068:	ebffef30 	bl	11d30 <add_hash>
   1606c:	e59f1090 	ldr	r1, [pc, #144]	; 16104 <__init_bodies+0x280>
   16070:	e59f2090 	ldr	r2, [pc, #144]	; 16108 <__init_bodies+0x284>
   16074:	e08f1001 	add	r1, pc, r1
   16078:	e08f2002 	add	r2, pc, r2
   1607c:	e1a00005 	mov	r0, r5
   16080:	ebffef2a 	bl	11d30 <add_hash>
   16084:	e59f1080 	ldr	r1, [pc, #128]	; 1610c <__init_bodies+0x288>
   16088:	e1a02007 	mov	r2, r7
   1608c:	e08f1001 	add	r1, pc, r1
   16090:	e1a00005 	mov	r0, r5
   16094:	ebffef25 	bl	11d30 <add_hash>
   16098:	e59f1070 	ldr	r1, [pc, #112]	; 16110 <__init_bodies+0x28c>
   1609c:	e1a02009 	mov	r2, r9
   160a0:	e08f1001 	add	r1, pc, r1
   160a4:	e1a00005 	mov	r0, r5
   160a8:	ebffef20 	bl	11d30 <add_hash>
   160ac:	e1a00006 	mov	r0, r6
   160b0:	ebffecba 	bl	113a0 <_init+0x2b8>
   160b4:	e3a00000 	mov	r0, #0
   160b8:	e28dd0b4 	add	sp, sp, #180	; 0xb4
   160bc:	e8bd8ff0 	pop	{r4, r5, r6, r7, r8, r9, sl, fp, pc}
   160c0:	00002bfa 	strdeq	r2, [r0], -sl
   160c4:	00002ec1 	andeq	r2, r0, r1, asr #29
   160c8:	00002e78 	andeq	r2, r0, r8, ror lr
   160cc:	00002ef0 	strdeq	r2, [r0], -r0
   160d0:	00002ec0 	andeq	r2, r0, r0, asr #29
   160d4:	00002eef 	andeq	r2, r0, pc, ror #29
   160d8:	00002eee 	andeq	r2, r0, lr, ror #29
   160dc:	00002ee2 	andeq	r2, r0, r2, ror #29
   160e0:	00002e93 	muleq	r0, r3, lr
   160e4:	000032ab 	andeq	r3, r0, fp, lsr #5
   160e8:	00002e45 	andeq	r2, r0, r5, asr #28
   160ec:	00002e36 	andeq	r2, r0, r6, lsr lr
   160f0:	00002e31 	andeq	r2, r0, r1, lsr lr
   160f4:	00002e21 	andeq	r2, r0, r1, lsr #28
   160f8:	00002de4 	andeq	r2, r0, r4, ror #27
   160fc:	00002e0d 	andeq	r2, r0, sp, lsl #28
   16100:	00002ddf 	ldrdeq	r2, [r0], -pc	; <UNPREDICTABLE>
   16104:	00002df9 	strdeq	r2, [r0], -r9
   16108:	00002d93 	muleq	r0, r3, sp
   1610c:	00002de5 	andeq	r2, r0, r5, ror #27
   16110:	00002dd5 	ldrdeq	r2, [r0], -r5

00016114 <regist_mac>:
   16114:	e92d41f0 	push	{r4, r5, r6, r7, r8, lr}
   16118:	e3a05000 	mov	r5, #0
   1611c:	e24dd028 	sub	sp, sp, #40	; 0x28
   16120:	e1a01005 	mov	r1, r5
   16124:	e28d400c 	add	r4, sp, #12
   16128:	e3a02010 	mov	r2, #16
   1612c:	e28d7014 	add	r7, sp, #20
   16130:	e1a08000 	mov	r8, r0
   16134:	e28d0018 	add	r0, sp, #24
   16138:	e58d5014 	str	r5, [sp, #20]
   1613c:	ebffec67 	bl	112e0 <_init+0x1f8>
   16140:	e1a00007 	mov	r0, r7
   16144:	e58d400c 	str	r4, [sp, #12]
   16148:	e58d4010 	str	r4, [sp, #16]
   1614c:	eb000329 	bl	16df8 <get_mac_string>
   16150:	ebfffcdf 	bl	154d4 <cJSON_CreateObject>
   16154:	e1a06000 	mov	r6, r0
   16158:	e1a00007 	mov	r0, r7
   1615c:	ebfffcca 	bl	1548c <cJSON_CreateString>
   16160:	e59f1094 	ldr	r1, [pc, #148]	; 161fc <regist_mac+0xe8>
   16164:	e08f1001 	add	r1, pc, r1
   16168:	e1a02000 	mov	r2, r0
   1616c:	e1a00006 	mov	r0, r6
   16170:	ebfffc14 	bl	151c8 <cJSON_AddItemToObject>
   16174:	e59f0084 	ldr	r0, [pc, #132]	; 16200 <regist_mac+0xec>
   16178:	e08f0000 	add	r0, pc, r0
   1617c:	ebfffcc2 	bl	1548c <cJSON_CreateString>
   16180:	e59f107c 	ldr	r1, [pc, #124]	; 16204 <regist_mac+0xf0>
   16184:	e08f1001 	add	r1, pc, r1
   16188:	e1a02000 	mov	r2, r0
   1618c:	e1a00006 	mov	r0, r6
   16190:	ebfffc0c 	bl	151c8 <cJSON_AddItemToObject>
   16194:	e1a00006 	mov	r0, r6
   16198:	ebfffbdf 	bl	1511c <cJSON_PrintUnformatted>
   1619c:	e1a07000 	mov	r7, r0
   161a0:	ebffec15 	bl	111fc <_init+0x114>
   161a4:	e1a01007 	mov	r1, r7
   161a8:	e1a02000 	mov	r2, r0
   161ac:	e1a00004 	mov	r0, r4
   161b0:	ebffff33 	bl	15e84 <__init_bodies>
   161b4:	e59f304c 	ldr	r3, [pc, #76]	; 16208 <regist_mac+0xf4>
   161b8:	e59f104c 	ldr	r1, [pc, #76]	; 1620c <regist_mac+0xf8>
   161bc:	e08f3003 	add	r3, pc, r3
   161c0:	e08f1001 	add	r1, pc, r1
   161c4:	e1a02005 	mov	r2, r5
   161c8:	e58d3000 	str	r3, [sp]
   161cc:	e1a00008 	mov	r0, r8
   161d0:	e1a03004 	mov	r3, r4
   161d4:	ebffefc1 	bl	120e0 <add_post_hash_bodies>
   161d8:	e1a00004 	mov	r0, r4
   161dc:	ebffef26 	bl	11e7c <free_hash>
   161e0:	e1a00007 	mov	r0, r7
   161e4:	ebffec6d 	bl	113a0 <_init+0x2b8>
   161e8:	e1a00006 	mov	r0, r6
   161ec:	ebfffb75 	bl	14fc8 <cJSON_Delete>
   161f0:	e1a00005 	mov	r0, r5
   161f4:	e28dd028 	add	sp, sp, #40	; 0x28
   161f8:	e8bd81f0 	pop	{r4, r5, r6, r7, r8, pc}
   161fc:	00002d15 	andeq	r2, r0, r5, lsl sp
   16200:	00002d0c 	andeq	r2, r0, ip, lsl #26
   16204:	00002d0f 	andeq	r2, r0, pc, lsl #26
   16208:	fffffc1c 			; <UNDEFINED> instruction: 0xfffffc1c
   1620c:	00002cdc 	ldrdeq	r2, [r0], -ip

00016210 <get_ref_from_json>:
   16210:	e59f124c 	ldr	r1, [pc, #588]	; 16464 <get_ref_from_json+0x254>
   16214:	e92d4070 	push	{r4, r5, r6, lr}
   16218:	e24dde13 	sub	sp, sp, #304	; 0x130
   1621c:	e08f1001 	add	r1, pc, r1
   16220:	ebffec4f 	bl	11364 <_init+0x27c>
   16224:	e3500000 	cmp	r0, #0
   16228:	1a000007 	bne	1624c <get_ref_from_json+0x3c>
   1622c:	e59f0234 	ldr	r0, [pc, #564]	; 16468 <get_ref_from_json+0x258>
   16230:	e59f1234 	ldr	r1, [pc, #564]	; 1646c <get_ref_from_json+0x25c>
   16234:	e08f0000 	add	r0, pc, r0
   16238:	e08f1001 	add	r1, pc, r1
   1623c:	e3a02078 	mov	r2, #120	; 0x78
   16240:	ebffec62 	bl	113d0 <_init+0x2e8>
   16244:	e3e00000 	mvn	r0, #0
   16248:	ea000083 	b	1645c <get_ref_from_json+0x24c>
   1624c:	e5d03000 	ldrb	r3, [r0]
   16250:	e1a04000 	mov	r4, r0
   16254:	e2435030 	sub	r5, r3, #48	; 0x30
   16258:	e353002d 	cmp	r3, #45	; 0x2d
   1625c:	13550009 	cmpne	r5, #9
   16260:	e2800001 	add	r0, r0, #1
   16264:	83a05001 	movhi	r5, #1
   16268:	93a05000 	movls	r5, #0
   1626c:	8afffff6 	bhi	1624c <get_ref_from_json+0x3c>
   16270:	e1a01005 	mov	r1, r5
   16274:	e28d0008 	add	r0, sp, #8
   16278:	e3a02060 	mov	r2, #96	; 0x60
   1627c:	e58d5004 	str	r5, [sp, #4]
   16280:	ebffec16 	bl	112e0 <_init+0x1f8>
   16284:	e1a01005 	mov	r1, r5
   16288:	e7d43001 	ldrb	r3, [r4, r1]
   1628c:	e28d5004 	add	r5, sp, #4
   16290:	e2436030 	sub	r6, r3, #48	; 0x30
   16294:	e353002d 	cmp	r3, #45	; 0x2d
   16298:	13560009 	cmpne	r6, #9
   1629c:	93a06001 	movls	r6, #1
   162a0:	83a06000 	movhi	r6, #0
   162a4:	97c53001 	strbls	r3, [r5, r1]
   162a8:	92811001 	addls	r1, r1, #1
   162ac:	9afffff5 	bls	16288 <get_ref_from_json+0x78>
   162b0:	e59f01b8 	ldr	r0, [pc, #440]	; 16470 <get_ref_from_json+0x260>
   162b4:	e1a01005 	mov	r1, r5
   162b8:	e3a02064 	mov	r2, #100	; 0x64
   162bc:	e08f0000 	add	r0, pc, r0
   162c0:	ebffebd0 	bl	11208 <_init+0x120>
   162c4:	e1a01006 	mov	r1, r6
   162c8:	e3a02060 	mov	r2, #96	; 0x60
   162cc:	e28d006c 	add	r0, sp, #108	; 0x6c
   162d0:	e58d6068 	str	r6, [sp, #104]	; 0x68
   162d4:	ebffec01 	bl	112e0 <_init+0x1f8>
   162d8:	e1a00005 	mov	r0, r5
   162dc:	ebffebc6 	bl	111fc <_init+0x114>
   162e0:	e5dd3004 	ldrb	r3, [sp, #4]
   162e4:	e28d4068 	add	r4, sp, #104	; 0x68
   162e8:	e353002d 	cmp	r3, #45	; 0x2d
   162ec:	0a00000f 	beq	16330 <get_ref_from_json+0x120>
   162f0:	e3500014 	cmp	r0, #20
   162f4:	ca000021 	bgt	16380 <get_ref_from_json+0x170>
   162f8:	12600014 	rsbne	r0, r0, #20
   162fc:	13a03041 	movne	r3, #65	; 0x41
   16300:	0a000007 	beq	16324 <get_ref_from_json+0x114>
   16304:	e1560000 	cmp	r6, r0
   16308:	b7c43006 	strblt	r3, [r4, r6]
   1630c:	b2866001 	addlt	r6, r6, #1
   16310:	bafffffb 	blt	16304 <get_ref_from_json+0xf4>
   16314:	e3500000 	cmp	r0, #0
   16318:	a0840000 	addge	r0, r4, r0
   1631c:	b2840000 	addlt	r0, r4, #0
   16320:	ea000000 	b	16328 <get_ref_from_json+0x118>
   16324:	e1a00004 	mov	r0, r4
   16328:	e1a01005 	mov	r1, r5
   1632c:	ea00000c 	b	16364 <get_ref_from_json+0x154>
   16330:	e3500014 	cmp	r0, #20
   16334:	ca000011 	bgt	16380 <get_ref_from_json+0x170>
   16338:	0a00000b 	beq	1636c <get_ref_from_json+0x15c>
   1633c:	e2600015 	rsb	r0, r0, #21
   16340:	e3a03046 	mov	r3, #70	; 0x46
   16344:	e1560000 	cmp	r6, r0
   16348:	b7c43006 	strblt	r3, [r4, r6]
   1634c:	b2866001 	addlt	r6, r6, #1
   16350:	bafffffb 	blt	16344 <get_ref_from_json+0x134>
   16354:	e3500000 	cmp	r0, #0
   16358:	a0840000 	addge	r0, r4, r0
   1635c:	b2840000 	addlt	r0, r4, #0
   16360:	e2851001 	add	r1, r5, #1
   16364:	ebffec2b 	bl	11418 <_init+0x330>
   16368:	ea000004 	b	16380 <get_ref_from_json+0x170>
   1636c:	e1a00004 	mov	r0, r4
   16370:	e1a01005 	mov	r1, r5
   16374:	ebffec27 	bl	11418 <_init+0x330>
   16378:	e3a03046 	mov	r3, #70	; 0x46
   1637c:	e5cd3068 	strb	r3, [sp, #104]	; 0x68
   16380:	e59f00ec 	ldr	r0, [pc, #236]	; 16474 <get_ref_from_json+0x264>
   16384:	e1a01004 	mov	r1, r4
   16388:	e3a02064 	mov	r2, #100	; 0x64
   1638c:	e08f0000 	add	r0, pc, r0
   16390:	e28d40cc 	add	r4, sp, #204	; 0xcc
   16394:	ebffeb9b 	bl	11208 <_init+0x120>
   16398:	e3a02064 	mov	r2, #100	; 0x64
   1639c:	e1a00004 	mov	r0, r4
   163a0:	e3a01000 	mov	r1, #0
   163a4:	ebffebcd 	bl	112e0 <_init+0x1f8>
   163a8:	e3a0c000 	mov	ip, #0
   163ac:	e59f30c4 	ldr	r3, [pc, #196]	; 16478 <get_ref_from_json+0x268>
   163b0:	e28d2e13 	add	r2, sp, #304	; 0x130
   163b4:	e5cdc002 	strb	ip, [sp, #2]
   163b8:	e182c0b3 	strh	ip, [r2, r3]
   163bc:	e28d2e13 	add	r2, sp, #304	; 0x130
   163c0:	e082308c 	add	r3, r2, ip, lsl #1
   163c4:	e24d1001 	sub	r1, sp, #1
   163c8:	e55320c8 	ldrb	r2, [r3, #-200]	; 0xc8
   163cc:	e55330c7 	ldrb	r3, [r3, #-199]	; 0xc7
   163d0:	e5cd2000 	strb	r2, [sp]
   163d4:	e5cd3001 	strb	r3, [sp, #1]
   163d8:	e3a03000 	mov	r3, #0
   163dc:	e5f12001 	ldrb	r2, [r1, #1]!
   163e0:	e3520000 	cmp	r2, #0
   163e4:	0a000011 	beq	16430 <get_ref_from_json+0x220>
   163e8:	e2420030 	sub	r0, r2, #48	; 0x30
   163ec:	e1a03203 	lsl	r3, r3, #4
   163f0:	e6ef0070 	uxtb	r0, r0
   163f4:	e3500009 	cmp	r0, #9
   163f8:	e6ef3073 	uxtb	r3, r3
   163fc:	90803003 	addls	r3, r0, r3
   16400:	9a000008 	bls	16428 <get_ref_from_json+0x218>
   16404:	e2420061 	sub	r0, r2, #97	; 0x61
   16408:	e3500005 	cmp	r0, #5
   1640c:	92422057 	subls	r2, r2, #87	; 0x57
   16410:	9a000003 	bls	16424 <get_ref_from_json+0x214>
   16414:	e2420041 	sub	r0, r2, #65	; 0x41
   16418:	e3500005 	cmp	r0, #5
   1641c:	8a000003 	bhi	16430 <get_ref_from_json+0x220>
   16420:	e2422037 	sub	r2, r2, #55	; 0x37
   16424:	e0833002 	add	r3, r3, r2
   16428:	e6ef3073 	uxtb	r3, r3
   1642c:	eaffffea 	b	163dc <get_ref_from_json+0x1cc>
   16430:	e7c4300c 	strb	r3, [r4, ip]
   16434:	e28cc001 	add	ip, ip, #1
   16438:	e35c000a 	cmp	ip, #10
   1643c:	1affffde 	bne	163bc <get_ref_from_json+0x1ac>
   16440:	e59f0034 	ldr	r0, [pc, #52]	; 1647c <get_ref_from_json+0x26c>
   16444:	e1a01004 	mov	r1, r4
   16448:	e3a02064 	mov	r2, #100	; 0x64
   1644c:	e08f0000 	add	r0, pc, r0
   16450:	ebffeb6c 	bl	11208 <_init+0x120>
   16454:	ebffeb7d 	bl	11250 <_init+0x168>
   16458:	e3a00000 	mov	r0, #0
   1645c:	e28dde13 	add	sp, sp, #304	; 0x130
   16460:	e8bd8070 	pop	{r4, r5, r6, pc}
   16464:	00002cac 	andeq	r2, r0, ip, lsr #25
   16468:	00002ca1 	andeq	r2, r0, r1, lsr #25
   1646c:	00002b54 	andeq	r2, r0, r4, asr fp
   16470:	00002c41 	andeq	r2, r0, r1, asr #24
   16474:	00002b7e 	andeq	r2, r0, lr, ror fp
   16478:	fffffed0 			; <UNDEFINED> instruction: 0xfffffed0
   1647c:	00002acb 	andeq	r2, r0, fp, asr #21

00016480 <regist_device>:
   16480:	e92d41f0 	push	{r4, r5, r6, r7, r8, lr}
   16484:	e3a06000 	mov	r6, #0
   16488:	e24dd028 	sub	sp, sp, #40	; 0x28
   1648c:	e1a01006 	mov	r1, r6
   16490:	e28d500c 	add	r5, sp, #12
   16494:	e3a02010 	mov	r2, #16
   16498:	e28d7014 	add	r7, sp, #20
   1649c:	e1a08000 	mov	r8, r0
   164a0:	e28d0018 	add	r0, sp, #24
   164a4:	e58d6014 	str	r6, [sp, #20]
   164a8:	ebffeb8c 	bl	112e0 <_init+0x1f8>
   164ac:	e1a00007 	mov	r0, r7
   164b0:	e58d500c 	str	r5, [sp, #12]
   164b4:	e58d5010 	str	r5, [sp, #16]
   164b8:	eb00024e 	bl	16df8 <get_mac_string>
   164bc:	ebfffc04 	bl	154d4 <cJSON_CreateObject>
   164c0:	e1a04000 	mov	r4, r0
   164c4:	e59f021c 	ldr	r0, [pc, #540]	; 166e8 <regist_device+0x268>
   164c8:	e08f0000 	add	r0, pc, r0
   164cc:	ebfffbee 	bl	1548c <cJSON_CreateString>
   164d0:	e59f1214 	ldr	r1, [pc, #532]	; 166ec <regist_device+0x26c>
   164d4:	e08f1001 	add	r1, pc, r1
   164d8:	e1a02000 	mov	r2, r0
   164dc:	e1a00004 	mov	r0, r4
   164e0:	ebfffb38 	bl	151c8 <cJSON_AddItemToObject>
   164e4:	e59f0204 	ldr	r0, [pc, #516]	; 166f0 <regist_device+0x270>
   164e8:	e08f0000 	add	r0, pc, r0
   164ec:	ebfffbe6 	bl	1548c <cJSON_CreateString>
   164f0:	e59f11fc 	ldr	r1, [pc, #508]	; 166f4 <regist_device+0x274>
   164f4:	e08f1001 	add	r1, pc, r1
   164f8:	e1a02000 	mov	r2, r0
   164fc:	e1a00004 	mov	r0, r4
   16500:	ebfffb30 	bl	151c8 <cJSON_AddItemToObject>
   16504:	e59f01ec 	ldr	r0, [pc, #492]	; 166f8 <regist_device+0x278>
   16508:	e08f0000 	add	r0, pc, r0
   1650c:	ebfffbde 	bl	1548c <cJSON_CreateString>
   16510:	e59f11e4 	ldr	r1, [pc, #484]	; 166fc <regist_device+0x27c>
   16514:	e08f1001 	add	r1, pc, r1
   16518:	e1a02000 	mov	r2, r0
   1651c:	e1a00004 	mov	r0, r4
   16520:	ebfffb28 	bl	151c8 <cJSON_AddItemToObject>
   16524:	e59f01d4 	ldr	r0, [pc, #468]	; 16700 <regist_device+0x280>
   16528:	e08f0000 	add	r0, pc, r0
   1652c:	ebfffbd6 	bl	1548c <cJSON_CreateString>
   16530:	e59f11cc 	ldr	r1, [pc, #460]	; 16704 <regist_device+0x284>
   16534:	e08f1001 	add	r1, pc, r1
   16538:	e1a02000 	mov	r2, r0
   1653c:	e1a00004 	mov	r0, r4
   16540:	ebfffb20 	bl	151c8 <cJSON_AddItemToObject>
   16544:	e59f01bc 	ldr	r0, [pc, #444]	; 16708 <regist_device+0x288>
   16548:	e08f0000 	add	r0, pc, r0
   1654c:	ebfffbce 	bl	1548c <cJSON_CreateString>
   16550:	e59f11b4 	ldr	r1, [pc, #436]	; 1670c <regist_device+0x28c>
   16554:	e08f1001 	add	r1, pc, r1
   16558:	e1a02000 	mov	r2, r0
   1655c:	e1a00004 	mov	r0, r4
   16560:	ebfffb18 	bl	151c8 <cJSON_AddItemToObject>
   16564:	e59f01a4 	ldr	r0, [pc, #420]	; 16710 <regist_device+0x290>
   16568:	e08f0000 	add	r0, pc, r0
   1656c:	ebfffbc6 	bl	1548c <cJSON_CreateString>
   16570:	e59f119c 	ldr	r1, [pc, #412]	; 16714 <regist_device+0x294>
   16574:	e08f1001 	add	r1, pc, r1
   16578:	e1a02000 	mov	r2, r0
   1657c:	e1a00004 	mov	r0, r4
   16580:	ebfffb10 	bl	151c8 <cJSON_AddItemToObject>
   16584:	e1a00007 	mov	r0, r7
   16588:	ebfffbbf 	bl	1548c <cJSON_CreateString>
   1658c:	e59f1184 	ldr	r1, [pc, #388]	; 16718 <regist_device+0x298>
   16590:	e08f1001 	add	r1, pc, r1
   16594:	e1a02000 	mov	r2, r0
   16598:	e1a00004 	mov	r0, r4
   1659c:	ebfffb09 	bl	151c8 <cJSON_AddItemToObject>
   165a0:	e59f0174 	ldr	r0, [pc, #372]	; 1671c <regist_device+0x29c>
   165a4:	e08f0000 	add	r0, pc, r0
   165a8:	ebfffbb7 	bl	1548c <cJSON_CreateString>
   165ac:	e59f116c 	ldr	r1, [pc, #364]	; 16720 <regist_device+0x2a0>
   165b0:	e08f1001 	add	r1, pc, r1
   165b4:	e1a02000 	mov	r2, r0
   165b8:	e1a00004 	mov	r0, r4
   165bc:	ebfffb01 	bl	151c8 <cJSON_AddItemToObject>
   165c0:	e59f015c 	ldr	r0, [pc, #348]	; 16724 <regist_device+0x2a4>
   165c4:	e08f0000 	add	r0, pc, r0
   165c8:	ebfffbaf 	bl	1548c <cJSON_CreateString>
   165cc:	e59f1154 	ldr	r1, [pc, #340]	; 16728 <regist_device+0x2a8>
   165d0:	e08f1001 	add	r1, pc, r1
   165d4:	e1a02000 	mov	r2, r0
   165d8:	e1a00004 	mov	r0, r4
   165dc:	ebfffaf9 	bl	151c8 <cJSON_AddItemToObject>
   165e0:	e59f0144 	ldr	r0, [pc, #324]	; 1672c <regist_device+0x2ac>
   165e4:	e08f0000 	add	r0, pc, r0
   165e8:	ebfffba7 	bl	1548c <cJSON_CreateString>
   165ec:	e59f113c 	ldr	r1, [pc, #316]	; 16730 <regist_device+0x2b0>
   165f0:	e08f1001 	add	r1, pc, r1
   165f4:	e1a02000 	mov	r2, r0
   165f8:	e1a00004 	mov	r0, r4
   165fc:	ebfffaf1 	bl	151c8 <cJSON_AddItemToObject>
   16600:	e59f012c 	ldr	r0, [pc, #300]	; 16734 <regist_device+0x2b4>
   16604:	e08f0000 	add	r0, pc, r0
   16608:	ebfffb9f 	bl	1548c <cJSON_CreateString>
   1660c:	e59f1124 	ldr	r1, [pc, #292]	; 16738 <regist_device+0x2b8>
   16610:	e08f1001 	add	r1, pc, r1
   16614:	e1a02000 	mov	r2, r0
   16618:	e1a00004 	mov	r0, r4
   1661c:	ebfffae9 	bl	151c8 <cJSON_AddItemToObject>
   16620:	e59f0114 	ldr	r0, [pc, #276]	; 1673c <regist_device+0x2bc>
   16624:	e08f0000 	add	r0, pc, r0
   16628:	ebfffb97 	bl	1548c <cJSON_CreateString>
   1662c:	e59f110c 	ldr	r1, [pc, #268]	; 16740 <regist_device+0x2c0>
   16630:	e08f1001 	add	r1, pc, r1
   16634:	e1a02000 	mov	r2, r0
   16638:	e1a00004 	mov	r0, r4
   1663c:	ebfffae1 	bl	151c8 <cJSON_AddItemToObject>
   16640:	e59f00fc 	ldr	r0, [pc, #252]	; 16744 <regist_device+0x2c4>
   16644:	e08f0000 	add	r0, pc, r0
   16648:	ebfffb8f 	bl	1548c <cJSON_CreateString>
   1664c:	e59f10f4 	ldr	r1, [pc, #244]	; 16748 <regist_device+0x2c8>
   16650:	e08f1001 	add	r1, pc, r1
   16654:	e1a02000 	mov	r2, r0
   16658:	e1a00004 	mov	r0, r4
   1665c:	ebfffad9 	bl	151c8 <cJSON_AddItemToObject>
   16660:	e59f00e4 	ldr	r0, [pc, #228]	; 1674c <regist_device+0x2cc>
   16664:	e08f0000 	add	r0, pc, r0
   16668:	ebfffb87 	bl	1548c <cJSON_CreateString>
   1666c:	e59f10dc 	ldr	r1, [pc, #220]	; 16750 <regist_device+0x2d0>
   16670:	e08f1001 	add	r1, pc, r1
   16674:	e1a02000 	mov	r2, r0
   16678:	e1a00004 	mov	r0, r4
   1667c:	ebfffad1 	bl	151c8 <cJSON_AddItemToObject>
   16680:	e1a00004 	mov	r0, r4
   16684:	ebfffaa4 	bl	1511c <cJSON_PrintUnformatted>
   16688:	e1a07000 	mov	r7, r0
   1668c:	ebffeada 	bl	111fc <_init+0x114>
   16690:	e1a01007 	mov	r1, r7
   16694:	e1a02000 	mov	r2, r0
   16698:	e1a00005 	mov	r0, r5
   1669c:	ebfffdf8 	bl	15e84 <__init_bodies>
   166a0:	e59f30ac 	ldr	r3, [pc, #172]	; 16754 <regist_device+0x2d4>
   166a4:	e59f10ac 	ldr	r1, [pc, #172]	; 16758 <regist_device+0x2d8>
   166a8:	e08f3003 	add	r3, pc, r3
   166ac:	e08f1001 	add	r1, pc, r1
   166b0:	e1a02006 	mov	r2, r6
   166b4:	e58d3000 	str	r3, [sp]
   166b8:	e1a00008 	mov	r0, r8
   166bc:	e1a03005 	mov	r3, r5
   166c0:	ebffee86 	bl	120e0 <add_post_hash_bodies>
   166c4:	e1a00005 	mov	r0, r5
   166c8:	ebffedeb 	bl	11e7c <free_hash>
   166cc:	e1a00004 	mov	r0, r4
   166d0:	ebfffa3c 	bl	14fc8 <cJSON_Delete>
   166d4:	e1a00007 	mov	r0, r7
   166d8:	ebffeb30 	bl	113a0 <_init+0x2b8>
   166dc:	e1a00006 	mov	r0, r6
   166e0:	e28dd028 	add	sp, sp, #40	; 0x28
   166e4:	e8bd81f0 	pop	{r4, r5, r6, r7, r8, pc}
   166e8:	00002a5c 	andeq	r2, r0, ip, asr sl
   166ec:	00002a55 	andeq	r2, r0, r5, asr sl
   166f0:	0000299c 	muleq	r0, ip, r9
   166f4:	0000299f 	muleq	r0, pc, r9	; <UNPREDICTABLE>
   166f8:	00002ab9 			; <UNDEFINED> instruction: 0x00002ab9
   166fc:	00002a1d 	andeq	r2, r0, sp, lsl sl
   16700:	00002a9e 	muleq	r0, lr, sl
   16704:	00002a08 	andeq	r2, r0, r8, lsl #20
   16708:	000029ff 	strdeq	r2, [r0], -pc	; <UNPREDICTABLE>
   1670c:	00002a05 	andeq	r2, r0, r5, lsl #20
   16710:	000022ba 			; <UNDEFINED> instruction: 0x000022ba
   16714:	000029f1 	strdeq	r2, [r0], -r1
   16718:	000029e1 	andeq	r2, r0, r1, ror #19
   1671c:	000029d8 	ldrdeq	r2, [r0], -r8
   16720:	000029d2 	ldrdeq	r2, [r0], -r2	; <UNPREDICTABLE>
   16724:	0000288e 	andeq	r2, r0, lr, lsl #17
   16728:	000029bd 			; <UNDEFINED> instruction: 0x000029bd
   1672c:	000029b7 			; <UNDEFINED> instruction: 0x000029b7
   16730:	000029b2 			; <UNDEFINED> instruction: 0x000029b2
   16734:	000029a5 	andeq	r2, r0, r5, lsr #19
   16738:	0000299f 	muleq	r0, pc, r9	; <UNPREDICTABLE>
   1673c:	00002995 	muleq	r0, r5, r9
   16740:	00002999 	muleq	r0, r9, r9
   16744:	00002994 	muleq	r0, r4, r9
   16748:	00002990 	muleq	r0, r0, r9
   1674c:	00002988 	andeq	r2, r0, r8, lsl #19
   16750:	0000298f 	andeq	r2, r0, pc, lsl #19
   16754:	0000055c 	andeq	r0, r0, ip, asr r5
   16758:	0000295c 	andeq	r2, r0, ip, asr r9

0001675c <regist_property_dy>:
   1675c:	e92d41f0 	push	{r4, r5, r6, r7, r8, lr}
   16760:	e3a05000 	mov	r5, #0
   16764:	ed2d8b02 	vpush	{d8}
   16768:	e24dd088 	sub	sp, sp, #136	; 0x88
   1676c:	e28d6008 	add	r6, sp, #8
   16770:	e1a01005 	mov	r1, r5
   16774:	e3a02010 	mov	r2, #16
   16778:	e1a08000 	mov	r8, r0
   1677c:	e28d0014 	add	r0, sp, #20
   16780:	e58d5010 	str	r5, [sp, #16]
   16784:	ebffead5 	bl	112e0 <_init+0x1f8>
   16788:	e28d0010 	add	r0, sp, #16
   1678c:	e58d6008 	str	r6, [sp, #8]
   16790:	e58d600c 	str	r6, [sp, #12]
   16794:	eb000197 	bl	16df8 <get_mac_string>
   16798:	ebfffb4d 	bl	154d4 <cJSON_CreateObject>
   1679c:	e1a01005 	mov	r1, r5
   167a0:	e3a02060 	mov	r2, #96	; 0x60
   167a4:	e58d5024 	str	r5, [sp, #36]	; 0x24
   167a8:	e1a07000 	mov	r7, r0
   167ac:	e28d0028 	add	r0, sp, #40	; 0x28
   167b0:	ebffeaca 	bl	112e0 <_init+0x1f8>
   167b4:	e59f01ec 	ldr	r0, [pc, #492]	; 169a8 <regist_property_dy+0x24c>
   167b8:	e28d4024 	add	r4, sp, #36	; 0x24
   167bc:	e1a01004 	mov	r1, r4
   167c0:	e3a02064 	mov	r2, #100	; 0x64
   167c4:	e08f0000 	add	r0, pc, r0
   167c8:	ebffea85 	bl	111e4 <_init+0xfc>
   167cc:	e1a00004 	mov	r0, r4
   167d0:	ebfffb2d 	bl	1548c <cJSON_CreateString>
   167d4:	e59f11d0 	ldr	r1, [pc, #464]	; 169ac <regist_property_dy+0x250>
   167d8:	eeb78b00 	vmov.f64	d8, #112	; 0x70
   167dc:	e08f1001 	add	r1, pc, r1
   167e0:	e1a02000 	mov	r2, r0
   167e4:	e1a00007 	mov	r0, r7
   167e8:	ebfffa76 	bl	151c8 <cJSON_AddItemToObject>
   167ec:	ebfffb38 	bl	154d4 <cJSON_CreateObject>
   167f0:	e59f11b8 	ldr	r1, [pc, #440]	; 169b0 <regist_property_dy+0x254>
   167f4:	e08f1001 	add	r1, pc, r1
   167f8:	e1a04000 	mov	r4, r0
   167fc:	e1a02004 	mov	r2, r4
   16800:	e1a00007 	mov	r0, r7
   16804:	ebfffa6f 	bl	151c8 <cJSON_AddItemToObject>
   16808:	eeb00b48 	vmov.f64	d0, d8
   1680c:	ebfffb12 	bl	1545c <cJSON_CreateNumber>
   16810:	e59f119c 	ldr	r1, [pc, #412]	; 169b4 <regist_property_dy+0x258>
   16814:	e08f1001 	add	r1, pc, r1
   16818:	e1a02000 	mov	r2, r0
   1681c:	e1a00004 	mov	r0, r4
   16820:	ebfffa68 	bl	151c8 <cJSON_AddItemToObject>
   16824:	eeb00b48 	vmov.f64	d0, d8
   16828:	ebfffb0b 	bl	1545c <cJSON_CreateNumber>
   1682c:	e59f1184 	ldr	r1, [pc, #388]	; 169b8 <regist_property_dy+0x25c>
   16830:	e08f1001 	add	r1, pc, r1
   16834:	e1a02000 	mov	r2, r0
   16838:	e1a00004 	mov	r0, r4
   1683c:	ebfffa61 	bl	151c8 <cJSON_AddItemToObject>
   16840:	eeb00b48 	vmov.f64	d0, d8
   16844:	ebfffb04 	bl	1545c <cJSON_CreateNumber>
   16848:	e59f116c 	ldr	r1, [pc, #364]	; 169bc <regist_property_dy+0x260>
   1684c:	e08f1001 	add	r1, pc, r1
   16850:	e1a02000 	mov	r2, r0
   16854:	e1a00004 	mov	r0, r4
   16858:	ebfffa5a 	bl	151c8 <cJSON_AddItemToObject>
   1685c:	eeb00b48 	vmov.f64	d0, d8
   16860:	ebfffafd 	bl	1545c <cJSON_CreateNumber>
   16864:	e59f1154 	ldr	r1, [pc, #340]	; 169c0 <regist_property_dy+0x264>
   16868:	e08f1001 	add	r1, pc, r1
   1686c:	e1a02000 	mov	r2, r0
   16870:	e1a00004 	mov	r0, r4
   16874:	ebfffa53 	bl	151c8 <cJSON_AddItemToObject>
   16878:	eeb00b48 	vmov.f64	d0, d8
   1687c:	ebfffaf6 	bl	1545c <cJSON_CreateNumber>
   16880:	e59f113c 	ldr	r1, [pc, #316]	; 169c4 <regist_property_dy+0x268>
   16884:	e08f1001 	add	r1, pc, r1
   16888:	e1a02000 	mov	r2, r0
   1688c:	e1a00004 	mov	r0, r4
   16890:	ebfffa4c 	bl	151c8 <cJSON_AddItemToObject>
   16894:	e3a00001 	mov	r0, #1
   16898:	ebfffae6 	bl	15438 <cJSON_CreateBool>
   1689c:	e59f1124 	ldr	r1, [pc, #292]	; 169c8 <regist_property_dy+0x26c>
   168a0:	e08f1001 	add	r1, pc, r1
   168a4:	e1a02000 	mov	r2, r0
   168a8:	e1a00004 	mov	r0, r4
   168ac:	ebfffa45 	bl	151c8 <cJSON_AddItemToObject>
   168b0:	eeb00b48 	vmov.f64	d0, d8
   168b4:	ebfffae8 	bl	1545c <cJSON_CreateNumber>
   168b8:	e59f110c 	ldr	r1, [pc, #268]	; 169cc <regist_property_dy+0x270>
   168bc:	e08f1001 	add	r1, pc, r1
   168c0:	e1a02000 	mov	r2, r0
   168c4:	e1a00004 	mov	r0, r4
   168c8:	ebfffa3e 	bl	151c8 <cJSON_AddItemToObject>
   168cc:	eeb00b48 	vmov.f64	d0, d8
   168d0:	ebfffae1 	bl	1545c <cJSON_CreateNumber>
   168d4:	e59f10f4 	ldr	r1, [pc, #244]	; 169d0 <regist_property_dy+0x274>
   168d8:	e08f1001 	add	r1, pc, r1
   168dc:	e1a02000 	mov	r2, r0
   168e0:	e1a00004 	mov	r0, r4
   168e4:	ebfffa37 	bl	151c8 <cJSON_AddItemToObject>
   168e8:	eeb00b48 	vmov.f64	d0, d8
   168ec:	ebfffada 	bl	1545c <cJSON_CreateNumber>
   168f0:	e59f10dc 	ldr	r1, [pc, #220]	; 169d4 <regist_property_dy+0x278>
   168f4:	e08f1001 	add	r1, pc, r1
   168f8:	e1a02000 	mov	r2, r0
   168fc:	e1a00004 	mov	r0, r4
   16900:	ebfffa30 	bl	151c8 <cJSON_AddItemToObject>
   16904:	eeb00b48 	vmov.f64	d0, d8
   16908:	ebfffad3 	bl	1545c <cJSON_CreateNumber>
   1690c:	e59f10c4 	ldr	r1, [pc, #196]	; 169d8 <regist_property_dy+0x27c>
   16910:	e08f1001 	add	r1, pc, r1
   16914:	e1a02000 	mov	r2, r0
   16918:	e1a00004 	mov	r0, r4
   1691c:	ebfffa29 	bl	151c8 <cJSON_AddItemToObject>
   16920:	eeb00b48 	vmov.f64	d0, d8
   16924:	ebfffacc 	bl	1545c <cJSON_CreateNumber>
   16928:	e59f10ac 	ldr	r1, [pc, #172]	; 169dc <regist_property_dy+0x280>
   1692c:	e08f1001 	add	r1, pc, r1
   16930:	e1a02000 	mov	r2, r0
   16934:	e1a00004 	mov	r0, r4
   16938:	ebfffa22 	bl	151c8 <cJSON_AddItemToObject>
   1693c:	e1a00007 	mov	r0, r7
   16940:	ebfff9f5 	bl	1511c <cJSON_PrintUnformatted>
   16944:	e1a04000 	mov	r4, r0
   16948:	ebffea2b 	bl	111fc <_init+0x114>
   1694c:	e1a01004 	mov	r1, r4
   16950:	e1a02000 	mov	r2, r0
   16954:	e1a00006 	mov	r0, r6
   16958:	ebfffd49 	bl	15e84 <__init_bodies>
   1695c:	e59f307c 	ldr	r3, [pc, #124]	; 169e0 <regist_property_dy+0x284>
   16960:	e59f107c 	ldr	r1, [pc, #124]	; 169e4 <regist_property_dy+0x288>
   16964:	e08f3003 	add	r3, pc, r3
   16968:	e08f1001 	add	r1, pc, r1
   1696c:	e1a02005 	mov	r2, r5
   16970:	e58d3000 	str	r3, [sp]
   16974:	e1a00008 	mov	r0, r8
   16978:	e1a03006 	mov	r3, r6
   1697c:	ebffee08 	bl	121a4 <add_post_hash_bodies_dy>
   16980:	e1a00006 	mov	r0, r6
   16984:	ebffed3c 	bl	11e7c <free_hash>
   16988:	e1a00007 	mov	r0, r7
   1698c:	ebfff98d 	bl	14fc8 <cJSON_Delete>
   16990:	e1a00004 	mov	r0, r4
   16994:	ebffea81 	bl	113a0 <_init+0x2b8>
   16998:	e1a00005 	mov	r0, r5
   1699c:	e28dd088 	add	sp, sp, #136	; 0x88
   169a0:	ecbd8b02 	vpop	{d8}
   169a4:	e8bd81f0 	pop	{r4, r5, r6, r7, r8, pc}
   169a8:	00002739 	andeq	r2, r0, r9, lsr r7
   169ac:	0000285c 	andeq	r2, r0, ip, asr r8
   169b0:	0000284d 	andeq	r2, r0, sp, asr #16
   169b4:	0000289b 	muleq	r0, fp, r8
   169b8:	00002819 	andeq	r2, r0, r9, lsl r8
   169bc:	00002802 	andeq	r2, r0, r2, lsl #16
   169c0:	000027ee 	andeq	r2, r0, lr, ror #15
   169c4:	000027d7 	ldrdeq	r2, [r0], -r7
   169c8:	000027c1 	andeq	r2, r0, r1, asr #15
   169cc:	000027aa 	andeq	r2, r0, sl, lsr #15
   169d0:	00002795 	muleq	r0, r5, r7
   169d4:	00002780 	andeq	r2, r0, r0, lsl #15
   169d8:	0000276b 	andeq	r2, r0, fp, ror #14
   169dc:	00002755 	andeq	r2, r0, r5, asr r7
   169e0:	fffff474 			; <UNDEFINED> instruction: 0xfffff474
   169e4:	00002720 	andeq	r2, r0, r0, lsr #14

000169e8 <regist_join_dy>:
   169e8:	e92d47f0 	push	{r4, r5, r6, r7, r8, r9, sl, lr}
   169ec:	e24ddf46 	sub	sp, sp, #280	; 0x118
   169f0:	e28d6008 	add	r6, sp, #8
   169f4:	e1a0a000 	mov	sl, r0
   169f8:	e58d6008 	str	r6, [sp, #8]
   169fc:	e58d600c 	str	r6, [sp, #12]
   16a00:	ebfffab3 	bl	154d4 <cJSON_CreateObject>
   16a04:	e2505000 	subs	r5, r0, #0
   16a08:	0a00006e 	beq	16bc8 <regist_join_dy+0x1e0>
   16a0c:	e3a04000 	mov	r4, #0
   16a10:	e1a01004 	mov	r1, r4
   16a14:	e3a02060 	mov	r2, #96	; 0x60
   16a18:	e28d0054 	add	r0, sp, #84	; 0x54
   16a1c:	e58d4050 	str	r4, [sp, #80]	; 0x50
   16a20:	ebffea2e 	bl	112e0 <_init+0x1f8>
   16a24:	e59f01a8 	ldr	r0, [pc, #424]	; 16bd4 <regist_join_dy+0x1ec>
   16a28:	e28d9050 	add	r9, sp, #80	; 0x50
   16a2c:	e08f0000 	add	r0, pc, r0
   16a30:	e1a01009 	mov	r1, r9
   16a34:	e3a02064 	mov	r2, #100	; 0x64
   16a38:	ebffe9e9 	bl	111e4 <_init+0xfc>
   16a3c:	e5dd3050 	ldrb	r3, [sp, #80]	; 0x50
   16a40:	e1530004 	cmp	r3, r4
   16a44:	1a000005 	bne	16a60 <regist_join_dy+0x78>
   16a48:	e59f0188 	ldr	r0, [pc, #392]	; 16bd8 <regist_join_dy+0x1f0>
   16a4c:	e59f1188 	ldr	r1, [pc, #392]	; 16bdc <regist_join_dy+0x1f4>
   16a50:	e08f0000 	add	r0, pc, r0
   16a54:	e08f1001 	add	r1, pc, r1
   16a58:	e3a02f4a 	mov	r2, #296	; 0x128
   16a5c:	ea000012 	b	16aac <regist_join_dy+0xc4>
   16a60:	e1a01004 	mov	r1, r4
   16a64:	e3a02060 	mov	r2, #96	; 0x60
   16a68:	e28d00b8 	add	r0, sp, #184	; 0xb8
   16a6c:	e58d40b4 	str	r4, [sp, #180]	; 0xb4
   16a70:	ebffea1a 	bl	112e0 <_init+0x1f8>
   16a74:	e59f0164 	ldr	r0, [pc, #356]	; 16be0 <regist_join_dy+0x1f8>
   16a78:	e28d80b4 	add	r8, sp, #180	; 0xb4
   16a7c:	e08f0000 	add	r0, pc, r0
   16a80:	e1a01008 	mov	r1, r8
   16a84:	e3a02064 	mov	r2, #100	; 0x64
   16a88:	ebffe9d5 	bl	111e4 <_init+0xfc>
   16a8c:	e5dd30b4 	ldrb	r3, [sp, #180]	; 0xb4
   16a90:	e3530000 	cmp	r3, #0
   16a94:	1a000006 	bne	16ab4 <regist_join_dy+0xcc>
   16a98:	e59f0144 	ldr	r0, [pc, #324]	; 16be4 <regist_join_dy+0x1fc>
   16a9c:	e59f1144 	ldr	r1, [pc, #324]	; 16be8 <regist_join_dy+0x200>
   16aa0:	e08f0000 	add	r0, pc, r0
   16aa4:	e08f1001 	add	r1, pc, r1
   16aa8:	e300212e 	movw	r2, #302	; 0x12e
   16aac:	ebffea47 	bl	113d0 <_init+0x2e8>
   16ab0:	ea000042 	b	16bc0 <regist_join_dy+0x1d8>
   16ab4:	e1a01004 	mov	r1, r4
   16ab8:	e3a0203c 	mov	r2, #60	; 0x3c
   16abc:	e28d0014 	add	r0, sp, #20
   16ac0:	e58d4010 	str	r4, [sp, #16]
   16ac4:	ebffea05 	bl	112e0 <_init+0x1f8>
   16ac8:	e59f011c 	ldr	r0, [pc, #284]	; 16bec <regist_join_dy+0x204>
   16acc:	e28d7010 	add	r7, sp, #16
   16ad0:	e1a01007 	mov	r1, r7
   16ad4:	e3a02040 	mov	r2, #64	; 0x40
   16ad8:	e08f0000 	add	r0, pc, r0
   16adc:	ebffe9c0 	bl	111e4 <_init+0xfc>
   16ae0:	e1a00009 	mov	r0, r9
   16ae4:	e5cd4010 	strb	r4, [sp, #16]
   16ae8:	ebfffa67 	bl	1548c <cJSON_CreateString>
   16aec:	e59f10fc 	ldr	r1, [pc, #252]	; 16bf0 <regist_join_dy+0x208>
   16af0:	e1a02000 	mov	r2, r0
   16af4:	e08f1001 	add	r1, pc, r1
   16af8:	e1a00005 	mov	r0, r5
   16afc:	ebfff9b1 	bl	151c8 <cJSON_AddItemToObject>
   16b00:	e1a00008 	mov	r0, r8
   16b04:	ebfffa60 	bl	1548c <cJSON_CreateString>
   16b08:	e59f10e4 	ldr	r1, [pc, #228]	; 16bf4 <regist_join_dy+0x20c>
   16b0c:	e08f1001 	add	r1, pc, r1
   16b10:	e1a02000 	mov	r2, r0
   16b14:	e1a00005 	mov	r0, r5
   16b18:	ebfff9aa 	bl	151c8 <cJSON_AddItemToObject>
   16b1c:	e59f00d4 	ldr	r0, [pc, #212]	; 16bf8 <regist_join_dy+0x210>
   16b20:	e08f0000 	add	r0, pc, r0
   16b24:	ebfffa58 	bl	1548c <cJSON_CreateString>
   16b28:	e59f10cc 	ldr	r1, [pc, #204]	; 16bfc <regist_join_dy+0x214>
   16b2c:	e08f1001 	add	r1, pc, r1
   16b30:	e1a02000 	mov	r2, r0
   16b34:	e1a00005 	mov	r0, r5
   16b38:	ebfff9a2 	bl	151c8 <cJSON_AddItemToObject>
   16b3c:	e1a00007 	mov	r0, r7
   16b40:	ebfffa51 	bl	1548c <cJSON_CreateString>
   16b44:	e59f10b4 	ldr	r1, [pc, #180]	; 16c00 <regist_join_dy+0x218>
   16b48:	e08f1001 	add	r1, pc, r1
   16b4c:	e1a02000 	mov	r2, r0
   16b50:	e1a00005 	mov	r0, r5
   16b54:	ebfff99b 	bl	151c8 <cJSON_AddItemToObject>
   16b58:	e1a00005 	mov	r0, r5
   16b5c:	ebfff96e 	bl	1511c <cJSON_PrintUnformatted>
   16b60:	e2507000 	subs	r7, r0, #0
   16b64:	0a000015 	beq	16bc0 <regist_join_dy+0x1d8>
   16b68:	ebffe9a3 	bl	111fc <_init+0x114>
   16b6c:	e1a01007 	mov	r1, r7
   16b70:	e1a02000 	mov	r2, r0
   16b74:	e1a00006 	mov	r0, r6
   16b78:	ebfffcc1 	bl	15e84 <__init_bodies>
   16b7c:	e59f3080 	ldr	r3, [pc, #128]	; 16c04 <regist_join_dy+0x21c>
   16b80:	e59f1080 	ldr	r1, [pc, #128]	; 16c08 <regist_join_dy+0x220>
   16b84:	e08f3003 	add	r3, pc, r3
   16b88:	e08f1001 	add	r1, pc, r1
   16b8c:	e1a02004 	mov	r2, r4
   16b90:	e58d3000 	str	r3, [sp]
   16b94:	e1a0000a 	mov	r0, sl
   16b98:	e1a03006 	mov	r3, r6
   16b9c:	ebffed80 	bl	121a4 <add_post_hash_bodies_dy>
   16ba0:	e1a00006 	mov	r0, r6
   16ba4:	ebffecb4 	bl	11e7c <free_hash>
   16ba8:	e1a00005 	mov	r0, r5
   16bac:	ebfff905 	bl	14fc8 <cJSON_Delete>
   16bb0:	e1a00007 	mov	r0, r7
   16bb4:	ebffe9f9 	bl	113a0 <_init+0x2b8>
   16bb8:	e1a00004 	mov	r0, r4
   16bbc:	ea000002 	b	16bcc <regist_join_dy+0x1e4>
   16bc0:	e1a00005 	mov	r0, r5
   16bc4:	ebfff8ff 	bl	14fc8 <cJSON_Delete>
   16bc8:	e3e00000 	mvn	r0, #0
   16bcc:	e28ddf46 	add	sp, sp, #280	; 0x118
   16bd0:	e8bd87f0 	pop	{r4, r5, r6, r7, r8, r9, sl, pc}
   16bd4:	000024d1 	ldrdeq	r2, [r0], -r1
   16bd8:	00002666 	andeq	r2, r0, r6, ror #12
   16bdc:	00002338 	andeq	r2, r0, r8, lsr r3
   16be0:	0000266c 	andeq	r2, r0, ip, ror #12
   16be4:	00002657 	andeq	r2, r0, r7, asr r6
   16be8:	000022e8 	andeq	r2, r0, r8, ror #5
   16bec:	00002650 	andeq	r2, r0, r0, asr r6
   16bf0:	00002544 	andeq	r2, r0, r4, asr #10
   16bf4:	00002628 	andeq	r2, r0, r8, lsr #12
   16bf8:	0000261d 	andeq	r2, r0, sp, lsl r6
   16bfc:	00002624 	andeq	r2, r0, r4, lsr #12
   16c00:	00002613 	andeq	r2, r0, r3, lsl r6
   16c04:	fffff254 			; <UNDEFINED> instruction: 0xfffff254
   16c08:	000025d8 	ldrdeq	r2, [r0], -r8

00016c0c <__regist_dev_cb>:
   16c0c:	e92d41f0 	push	{r4, r5, r6, r7, r8, lr}
   16c10:	e59f611c 	ldr	r6, [pc, #284]	; 16d34 <__regist_dev_cb+0x128>
   16c14:	e24dd070 	sub	sp, sp, #112	; 0x70
   16c18:	e2805004 	add	r5, r0, #4
   16c1c:	e1a03000 	mov	r3, r0
   16c20:	e59f0110 	ldr	r0, [pc, #272]	; 16d38 <__regist_dev_cb+0x12c>
   16c24:	e08f6006 	add	r6, pc, r6
   16c28:	e3a020bc 	mov	r2, #188	; 0xbc
   16c2c:	e58d5000 	str	r5, [sp]
   16c30:	e1a07001 	mov	r7, r1
   16c34:	e5933000 	ldr	r3, [r3]
   16c38:	e1a01006 	mov	r1, r6
   16c3c:	e08f0000 	add	r0, pc, r0
   16c40:	ebffe9e2 	bl	113d0 <_init+0x2e8>
   16c44:	e1a00005 	mov	r0, r5
   16c48:	ebfff92d 	bl	15104 <cJSON_Parse>
   16c4c:	e59f10e8 	ldr	r1, [pc, #232]	; 16d3c <__regist_dev_cb+0x130>
   16c50:	e08f1001 	add	r1, pc, r1
   16c54:	e1a04000 	mov	r4, r0
   16c58:	ebfff940 	bl	15160 <cJSON_GetObjectItem>
   16c5c:	e59f20dc 	ldr	r2, [pc, #220]	; 16d40 <__regist_dev_cb+0x134>
   16c60:	e5903014 	ldr	r3, [r0, #20]
   16c64:	e1530002 	cmp	r3, r2
   16c68:	0a000009 	beq	16c94 <__regist_dev_cb+0x88>
   16c6c:	e59f00d0 	ldr	r0, [pc, #208]	; 16d44 <__regist_dev_cb+0x138>
   16c70:	e1a01006 	mov	r1, r6
   16c74:	e08f0000 	add	r0, pc, r0
   16c78:	e3a020c1 	mov	r2, #193	; 0xc1
   16c7c:	ebffe9d3 	bl	113d0 <_init+0x2e8>
   16c80:	e3540000 	cmp	r4, #0
   16c84:	0a000027 	beq	16d28 <__regist_dev_cb+0x11c>
   16c88:	e1a00004 	mov	r0, r4
   16c8c:	ebfff8cd 	bl	14fc8 <cJSON_Delete>
   16c90:	ea000024 	b	16d28 <__regist_dev_cb+0x11c>
   16c94:	e59f10ac 	ldr	r1, [pc, #172]	; 16d48 <__regist_dev_cb+0x13c>
   16c98:	e1a00004 	mov	r0, r4
   16c9c:	e08f1001 	add	r1, pc, r1
   16ca0:	ebfff92e 	bl	15160 <cJSON_GetObjectItem>
   16ca4:	e59f10a0 	ldr	r1, [pc, #160]	; 16d4c <__regist_dev_cb+0x140>
   16ca8:	e08f1001 	add	r1, pc, r1
   16cac:	ebfff92b 	bl	15160 <cJSON_GetObjectItem>
   16cb0:	e2508000 	subs	r8, r0, #0
   16cb4:	0a00000f 	beq	16cf8 <__regist_dev_cb+0xec>
   16cb8:	e59f0090 	ldr	r0, [pc, #144]	; 16d50 <__regist_dev_cb+0x144>
   16cbc:	e1a01006 	mov	r1, r6
   16cc0:	e3a020c8 	mov	r2, #200	; 0xc8
   16cc4:	e5983010 	ldr	r3, [r8, #16]
   16cc8:	e28d600c 	add	r6, sp, #12
   16ccc:	e08f0000 	add	r0, pc, r0
   16cd0:	ebffe9be 	bl	113d0 <_init+0x2e8>
   16cd4:	e5981010 	ldr	r1, [r8, #16]
   16cd8:	e3a02064 	mov	r2, #100	; 0x64
   16cdc:	e1a00006 	mov	r0, r6
   16ce0:	ebffe972 	bl	112b0 <_init+0x1c8>
   16ce4:	e59f0068 	ldr	r0, [pc, #104]	; 16d54 <__regist_dev_cb+0x148>
   16ce8:	e1a01006 	mov	r1, r6
   16cec:	e08f0000 	add	r0, pc, r0
   16cf0:	e3a02064 	mov	r2, #100	; 0x64
   16cf4:	ebffe943 	bl	11208 <_init+0x120>
   16cf8:	e1a00005 	mov	r0, r5
   16cfc:	ebfffd43 	bl	16210 <get_ref_from_json>
   16d00:	e3540000 	cmp	r4, #0
   16d04:	0a000001 	beq	16d10 <__regist_dev_cb+0x104>
   16d08:	e1a00004 	mov	r0, r4
   16d0c:	ebfff8ad 	bl	14fc8 <cJSON_Delete>
   16d10:	e1a00007 	mov	r0, r7
   16d14:	ebffff33 	bl	169e8 <regist_join_dy>
   16d18:	e1a00007 	mov	r0, r7
   16d1c:	ebfffe8e 	bl	1675c <regist_property_dy>
   16d20:	e3a00000 	mov	r0, #0
   16d24:	ea000000 	b	16d2c <__regist_dev_cb+0x120>
   16d28:	e3e00000 	mvn	r0, #0
   16d2c:	e28dd070 	add	sp, sp, #112	; 0x70
   16d30:	e8bd81f0 	pop	{r4, r5, r6, r7, r8, pc}
   16d34:	00002168 	andeq	r2, r0, r8, ror #2
   16d38:	0000211d 	andeq	r2, r0, sp, lsl r1
   16d3c:	000024a2 	andeq	r2, r0, r2, lsr #9
   16d40:	000186a0 	andeq	r8, r1, r0, lsr #13
   16d44:	0000212b 	andeq	r2, r0, fp, lsr #2
   16d48:	000024f4 	strdeq	r2, [r0], -r4
   16d4c:	0000248c 	andeq	r2, r0, ip, lsl #9
   16d50:	000024cb 	andeq	r2, r0, fp, asr #9
   16d54:	000023fc 	strdeq	r2, [r0], -ip

00016d58 <regist_first>:
   16d58:	e92d4030 	push	{r4, r5, lr}
   16d5c:	e59f5088 	ldr	r5, [pc, #136]	; 16dec <regist_first+0x94>
   16d60:	e59f0088 	ldr	r0, [pc, #136]	; 16df0 <regist_first+0x98>
   16d64:	e24dd014 	sub	sp, sp, #20
   16d68:	e08f5005 	add	r5, pc, r5
   16d6c:	e28d4008 	add	r4, sp, #8
   16d70:	e1a01005 	mov	r1, r5
   16d74:	e3002153 	movw	r2, #339	; 0x153
   16d78:	e08f0000 	add	r0, pc, r0
   16d7c:	ebffe993 	bl	113d0 <_init+0x2e8>
   16d80:	e1a00004 	mov	r0, r4
   16d84:	e58d4008 	str	r4, [sp, #8]
   16d88:	e58d400c 	str	r4, [sp, #12]
   16d8c:	ebfffce0 	bl	16114 <regist_mac>
   16d90:	e1a00004 	mov	r0, r4
   16d94:	ebfffdb9 	bl	16480 <regist_device>
   16d98:	e3a02000 	mov	r2, #0
   16d9c:	e1a03002 	mov	r3, r2
   16da0:	e58d2000 	str	r2, [sp]
   16da4:	e3a01003 	mov	r1, #3
   16da8:	e1a00004 	mov	r0, r4
   16dac:	ebffed2d 	bl	12268 <init_http>
   16db0:	ebffed4d 	bl	122ec <halo_http_start>
   16db4:	ebffed55 	bl	12310 <halo_http_result>
   16db8:	e1a01005 	mov	r1, r5
   16dbc:	e3a02f57 	mov	r2, #348	; 0x15c
   16dc0:	e1a04000 	mov	r4, r0
   16dc4:	e59f0028 	ldr	r0, [pc, #40]	; 16df4 <regist_first+0x9c>
   16dc8:	e1a03004 	mov	r3, r4
   16dcc:	e08f0000 	add	r0, pc, r0
   16dd0:	ebffe97e 	bl	113d0 <_init+0x2e8>
   16dd4:	ebffed58 	bl	1233c <deinit_http>
   16dd8:	e3540000 	cmp	r4, #0
   16ddc:	13a00003 	movne	r0, #3
   16de0:	03a00000 	moveq	r0, #0
   16de4:	e28dd014 	add	sp, sp, #20
   16de8:	e8bd8030 	pop	{r4, r5, pc}
   16dec:	00002024 	andeq	r2, r0, r4, lsr #32
   16df0:	00002450 	andeq	r2, r0, r0, asr r4
   16df4:	0000242a 	andeq	r2, r0, sl, lsr #8

00016df8 <get_mac_string>:
   16df8:	e92d4070 	push	{r4, r5, r6, lr}
   16dfc:	e3a01001 	mov	r1, #1
   16e00:	e24dd030 	sub	sp, sp, #48	; 0x30
   16e04:	e1a06000 	mov	r6, r0
   16e08:	e3a02000 	mov	r2, #0
   16e0c:	e3a00002 	mov	r0, #2
   16e10:	ebffe94a 	bl	11340 <_init+0x258>
   16e14:	e2504000 	subs	r4, r0, #0
   16e18:	aa000005 	bge	16e34 <get_mac_string+0x3c>
   16e1c:	e59f00a4 	ldr	r0, [pc, #164]	; 16ec8 <get_mac_string+0xd0>
   16e20:	e59f10a4 	ldr	r1, [pc, #164]	; 16ecc <get_mac_string+0xd4>
   16e24:	e08f0000 	add	r0, pc, r0
   16e28:	e08f1001 	add	r1, pc, r1
   16e2c:	e3a0201c 	mov	r2, #28
   16e30:	ea00000f 	b	16e74 <get_mac_string+0x7c>
   16e34:	e59f1094 	ldr	r1, [pc, #148]	; 16ed0 <get_mac_string+0xd8>
   16e38:	e28d5010 	add	r5, sp, #16
   16e3c:	e08f1001 	add	r1, pc, r1
   16e40:	e1a00005 	mov	r0, r5
   16e44:	ebffe973 	bl	11418 <_init+0x330>
   16e48:	e1a00004 	mov	r0, r4
   16e4c:	e3081927 	movw	r1, #35111	; 0x8927
   16e50:	e1a02005 	mov	r2, r5
   16e54:	ebffe8df 	bl	111d8 <_init+0xf0>
   16e58:	e3500000 	cmp	r0, #0
   16e5c:	aa000007 	bge	16e80 <get_mac_string+0x88>
   16e60:	e59f006c 	ldr	r0, [pc, #108]	; 16ed4 <get_mac_string+0xdc>
   16e64:	e59f106c 	ldr	r1, [pc, #108]	; 16ed8 <get_mac_string+0xe0>
   16e68:	e08f0000 	add	r0, pc, r0
   16e6c:	e08f1001 	add	r1, pc, r1
   16e70:	e3a02021 	mov	r2, #33	; 0x21
   16e74:	ebffe955 	bl	113d0 <_init+0x2e8>
   16e78:	e3e00000 	mvn	r0, #0
   16e7c:	ea00000f 	b	16ec0 <get_mac_string+0xc8>
   16e80:	e1a00004 	mov	r0, r4
   16e84:	ebffe903 	bl	11298 <_init+0x1b0>
   16e88:	e5dd1024 	ldrb	r1, [sp, #36]	; 0x24
   16e8c:	e5dd2022 	ldrb	r2, [sp, #34]	; 0x22
   16e90:	e58d1000 	str	r1, [sp]
   16e94:	e5dd1025 	ldrb	r1, [sp, #37]	; 0x25
   16e98:	e5dd3023 	ldrb	r3, [sp, #35]	; 0x23
   16e9c:	e58d1004 	str	r1, [sp, #4]
   16ea0:	e5dd1026 	ldrb	r1, [sp, #38]	; 0x26
   16ea4:	e1a00006 	mov	r0, r6
   16ea8:	e58d1008 	str	r1, [sp, #8]
   16eac:	e5dd1027 	ldrb	r1, [sp, #39]	; 0x27
   16eb0:	e58d100c 	str	r1, [sp, #12]
   16eb4:	e59f1020 	ldr	r1, [pc, #32]	; 16edc <get_mac_string+0xe4>
   16eb8:	e08f1001 	add	r1, pc, r1
   16ebc:	ebffe919 	bl	11328 <_init+0x240>
   16ec0:	e28dd030 	add	sp, sp, #48	; 0x30
   16ec4:	e8bd8070 	pop	{r4, r5, r6, pc}
   16ec8:	00002407 	andeq	r2, r0, r7, lsl #8
   16ecc:	0000242c 	andeq	r2, r0, ip, lsr #8
   16ed0:	00002427 	andeq	r2, r0, r7, lsr #8
   16ed4:	00002401 	andeq	r2, r0, r1, lsl #8
   16ed8:	000023e8 	andeq	r2, r0, r8, ror #7
   16edc:	000023d9 	ldrdeq	r2, [r0], -r9

00016ee0 <get_server_ip>:
   16ee0:	e92d4030 	push	{r4, r5, lr}
   16ee4:	e24dd0c4 	sub	sp, sp, #196	; 0xc4
   16ee8:	e1a05000 	mov	r5, r0
   16eec:	e1a0000d 	mov	r0, sp
   16ef0:	ebffe921 	bl	1137c <_init+0x294>
   16ef4:	e1a00005 	mov	r0, r5
   16ef8:	e28d10ac 	add	r1, sp, #172	; 0xac
   16efc:	ebffe945 	bl	11418 <_init+0x330>
   16f00:	e3a00000 	mov	r0, #0
   16f04:	e28dd0c4 	add	sp, sp, #196	; 0xc4
   16f08:	e8bd8030 	pop	{r4, r5, pc}

00016f0c <get_dev_sn>:
   16f0c:	e1a01000 	mov	r1, r0
   16f10:	e59f0008 	ldr	r0, [pc, #8]	; 16f20 <get_dev_sn+0x14>
   16f14:	e3a02040 	mov	r2, #64	; 0x40
   16f18:	e08f0000 	add	r0, pc, r0
   16f1c:	eaffe8b0 	b	111e4 <_init+0xfc>
   16f20:	0000239d 	muleq	r0, sp, r3

00016f24 <get_dev_uuid>:
   16f24:	e1a01000 	mov	r1, r0
   16f28:	e59f0008 	ldr	r0, [pc, #8]	; 16f38 <get_dev_uuid+0x14>
   16f2c:	e3a02040 	mov	r2, #64	; 0x40
   16f30:	e08f0000 	add	r0, pc, r0
   16f34:	eaffe8aa 	b	111e4 <_init+0xfc>
   16f38:	000021f8 	strdeq	r2, [r0], -r8

00016f3c <get_ver>:
   16f3c:	e59f1008 	ldr	r1, [pc, #8]	; 16f4c <get_ver+0x10>
   16f40:	e3a02014 	mov	r2, #20
   16f44:	e08f1001 	add	r1, pc, r1
   16f48:	eaffe8d8 	b	112b0 <_init+0x1c8>
   16f4c:	00001f0e 	andeq	r1, r0, lr, lsl #30

00016f50 <get_cid>:
   16f50:	e59f1008 	ldr	r1, [pc, #8]	; 16f60 <get_cid+0x10>
   16f54:	e3a02016 	mov	r2, #22
   16f58:	e08f1001 	add	r1, pc, r1
   16f5c:	eaffe8d3 	b	112b0 <_init+0x1c8>
   16f60:	00001ed4 	ldrdeq	r1, [r0], -r4

00016f64 <get_sid>:
   16f64:	e59f1008 	ldr	r1, [pc, #8]	; 16f74 <get_sid+0x10>
   16f68:	e3a02016 	mov	r2, #22
   16f6c:	e08f1001 	add	r1, pc, r1
   16f70:	eaffe8ce 	b	112b0 <_init+0x1c8>
   16f74:	00001ed3 	ldrdeq	r1, [r0], -r3

00016f78 <get_key>:
   16f78:	e59f1008 	ldr	r1, [pc, #8]	; 16f88 <get_key+0x10>
   16f7c:	e3a02022 	mov	r2, #34	; 0x22
   16f80:	e08f1001 	add	r1, pc, r1
   16f84:	eaffe8c9 	b	112b0 <_init+0x1c8>
   16f88:	00001e8b 	andeq	r1, r0, fp, lsl #29

00016f8c <MD5Init>:
   16f8c:	e3a03000 	mov	r3, #0
   16f90:	e5803000 	str	r3, [r0]
   16f94:	e5803004 	str	r3, [r0, #4]
   16f98:	e59f301c 	ldr	r3, [pc, #28]	; 16fbc <MD5Init+0x30>
   16f9c:	e5803008 	str	r3, [r0, #8]
   16fa0:	e59f3018 	ldr	r3, [pc, #24]	; 16fc0 <MD5Init+0x34>
   16fa4:	e580300c 	str	r3, [r0, #12]
   16fa8:	e59f3014 	ldr	r3, [pc, #20]	; 16fc4 <MD5Init+0x38>
   16fac:	e5803010 	str	r3, [r0, #16]
   16fb0:	e59f3010 	ldr	r3, [pc, #16]	; 16fc8 <MD5Init+0x3c>
   16fb4:	e5803014 	str	r3, [r0, #20]
   16fb8:	e12fff1e 	bx	lr
   16fbc:	67452301 	strbvs	r2, [r5, -r1, lsl #6]
   16fc0:	efcdab89 	svc	0x00cdab89
   16fc4:	98badcfe 	ldmls	sl!, {r1, r2, r3, r4, r5, r6, r7, sl, fp, ip, lr, pc}
   16fc8:	10325476 	eorsne	r5, r2, r6, ror r4

00016fcc <MD5Encode>:
   16fcc:	e3a03000 	mov	r3, #0
   16fd0:	e1530002 	cmp	r3, r2
   16fd4:	e2800004 	add	r0, r0, #4
   16fd8:	2a00000c 	bcs	17010 <MD5Encode+0x44>
   16fdc:	e791c003 	ldr	ip, [r1, r3]
   16fe0:	e540c004 	strb	ip, [r0, #-4]
   16fe4:	e791c003 	ldr	ip, [r1, r3]
   16fe8:	e1a0c42c 	lsr	ip, ip, #8
   16fec:	e540c003 	strb	ip, [r0, #-3]
   16ff0:	e791c003 	ldr	ip, [r1, r3]
   16ff4:	e1a0c82c 	lsr	ip, ip, #16
   16ff8:	e540c002 	strb	ip, [r0, #-2]
   16ffc:	e791c003 	ldr	ip, [r1, r3]
   17000:	e2833004 	add	r3, r3, #4
   17004:	e1a0cc2c 	lsr	ip, ip, #24
   17008:	e540c001 	strb	ip, [r0, #-1]
   1700c:	eaffffef 	b	16fd0 <MD5Encode+0x4>
   17010:	e12fff1e 	bx	lr

00017014 <MD5Decode>:
   17014:	e3a03000 	mov	r3, #0
   17018:	e52de004 	push	{lr}		; (str lr, [sp, #-4]!)
   1701c:	e1530002 	cmp	r3, r2
   17020:	e2811004 	add	r1, r1, #4
   17024:	2a00000a 	bcs	17054 <MD5Decode+0x40>
   17028:	e551c002 	ldrb	ip, [r1, #-2]
   1702c:	e551e003 	ldrb	lr, [r1, #-3]
   17030:	e1a0c80c 	lsl	ip, ip, #16
   17034:	e18cc40e 	orr	ip, ip, lr, lsl #8
   17038:	e551e004 	ldrb	lr, [r1, #-4]
   1703c:	e18cc00e 	orr	ip, ip, lr
   17040:	e551e001 	ldrb	lr, [r1, #-1]
   17044:	e18ccc0e 	orr	ip, ip, lr, lsl #24
   17048:	e780c003 	str	ip, [r0, r3]
   1704c:	e2833004 	add	r3, r3, #4
   17050:	eafffff1 	b	1701c <MD5Decode+0x8>
   17054:	e49df004 	pop	{pc}		; (ldr pc, [sp], #4)

00017058 <MD5Transform>:
   17058:	e92d4ff0 	push	{r4, r5, r6, r7, r8, r9, sl, fp, lr}
   1705c:	e24ddf41 	sub	sp, sp, #260	; 0x104
   17060:	e99001a0 	ldmib	r0, {r5, r7, r8}
   17064:	e1a04000 	mov	r4, r0
   17068:	e5909000 	ldr	r9, [r0]
   1706c:	e3a02040 	mov	r2, #64	; 0x40
   17070:	e1a0000d 	mov	r0, sp
   17074:	ebffffe6 	bl	17014 <MD5Decode>
   17078:	e59d6000 	ldr	r6, [sp]
   1707c:	e59f38b8 	ldr	r3, [pc, #2232]	; 1793c <MD5Transform+0x8e4>
   17080:	e0072005 	and	r2, r7, r5
   17084:	e1c80005 	bic	r0, r8, r5
   17088:	e0863003 	add	r3, r6, r3
   1708c:	e0833009 	add	r3, r3, r9
   17090:	e1800002 	orr	r0, r0, r2
   17094:	e59d1004 	ldr	r1, [sp, #4]
   17098:	e0830000 	add	r0, r3, r0
   1709c:	e59f389c 	ldr	r3, [pc, #2204]	; 17940 <MD5Transform+0x8e8>
   170a0:	e0850ce0 	add	r0, r5, r0, ror #25
   170a4:	e0813003 	add	r3, r1, r3
   170a8:	e0002005 	and	r2, r0, r5
   170ac:	e0833008 	add	r3, r3, r8
   170b0:	e1c78000 	bic	r8, r7, r0
   170b4:	e1882002 	orr	r2, r8, r2
   170b8:	e0833002 	add	r3, r3, r2
   170bc:	e59fc880 	ldr	ip, [pc, #2176]	; 17944 <MD5Transform+0x8ec>
   170c0:	e59d2008 	ldr	r2, [sp, #8]
   170c4:	e0803a63 	add	r3, r0, r3, ror #20
   170c8:	e082c00c 	add	ip, r2, ip
   170cc:	e08cc007 	add	ip, ip, r7
   170d0:	e0032000 	and	r2, r3, r0
   170d4:	e1c57003 	bic	r7, r5, r3
   170d8:	e1872002 	orr	r2, r7, r2
   170dc:	e08cc002 	add	ip, ip, r2
   170e0:	e59d700c 	ldr	r7, [sp, #12]
   170e4:	e59f285c 	ldr	r2, [pc, #2140]	; 17948 <MD5Transform+0x8f0>
   170e8:	e083c7ec 	add	ip, r3, ip, ror #15
   170ec:	e0872002 	add	r2, r7, r2
   170f0:	e00c1003 	and	r1, ip, r3
   170f4:	e0822005 	add	r2, r2, r5
   170f8:	e1c0500c 	bic	r5, r0, ip
   170fc:	e1851001 	orr	r1, r5, r1
   17100:	e59d8010 	ldr	r8, [sp, #16]
   17104:	e0822001 	add	r2, r2, r1
   17108:	e59f183c 	ldr	r1, [pc, #2108]	; 1794c <MD5Transform+0x8f4>
   1710c:	e08c2562 	add	r2, ip, r2, ror #10
   17110:	e0881001 	add	r1, r8, r1
   17114:	e1c3e002 	bic	lr, r3, r2
   17118:	e0810000 	add	r0, r1, r0
   1711c:	e002100c 	and	r1, r2, ip
   17120:	e18ee001 	orr	lr, lr, r1
   17124:	e59d9014 	ldr	r9, [sp, #20]
   17128:	e080000e 	add	r0, r0, lr
   1712c:	e59f181c 	ldr	r1, [pc, #2076]	; 17950 <MD5Transform+0x8f8>
   17130:	e0820ce0 	add	r0, r2, r0, ror #25
   17134:	e0891001 	add	r1, r9, r1
   17138:	e1cce000 	bic	lr, ip, r0
   1713c:	e0813003 	add	r3, r1, r3
   17140:	e0001002 	and	r1, r0, r2
   17144:	e18ee001 	orr	lr, lr, r1
   17148:	e59da018 	ldr	sl, [sp, #24]
   1714c:	e083300e 	add	r3, r3, lr
   17150:	e59f17fc 	ldr	r1, [pc, #2044]	; 17954 <MD5Transform+0x8fc>
   17154:	e0803a63 	add	r3, r0, r3, ror #20
   17158:	e08a1001 	add	r1, sl, r1
   1715c:	e1c2e003 	bic	lr, r2, r3
   17160:	e081c00c 	add	ip, r1, ip
   17164:	e0031000 	and	r1, r3, r0
   17168:	e18ee001 	orr	lr, lr, r1
   1716c:	e59d501c 	ldr	r5, [sp, #28]
   17170:	e08cc00e 	add	ip, ip, lr
   17174:	e59f17dc 	ldr	r1, [pc, #2012]	; 17958 <MD5Transform+0x900>
   17178:	e083c7ec 	add	ip, r3, ip, ror #15
   1717c:	e0851001 	add	r1, r5, r1
   17180:	e1c0e00c 	bic	lr, r0, ip
   17184:	e0812002 	add	r2, r1, r2
   17188:	e00c1003 	and	r1, ip, r3
   1718c:	e18e1001 	orr	r1, lr, r1
   17190:	e59db020 	ldr	fp, [sp, #32]
   17194:	e0821001 	add	r1, r2, r1
   17198:	e59f27bc 	ldr	r2, [pc, #1980]	; 1795c <MD5Transform+0x904>
   1719c:	e08c1561 	add	r1, ip, r1, ror #10
   171a0:	e08b2002 	add	r2, fp, r2
   171a4:	e1c3e001 	bic	lr, r3, r1
   171a8:	e0820000 	add	r0, r2, r0
   171ac:	e001200c 	and	r2, r1, ip
   171b0:	e18e2002 	orr	r2, lr, r2
   171b4:	e0802002 	add	r2, r0, r2
   171b8:	e59de024 	ldr	lr, [sp, #36]	; 0x24
   171bc:	e59f079c 	ldr	r0, [pc, #1948]	; 17960 <MD5Transform+0x908>
   171c0:	e0812ce2 	add	r2, r1, r2, ror #25
   171c4:	e08e0000 	add	r0, lr, r0
   171c8:	e0803003 	add	r3, r0, r3
   171cc:	e1cce002 	bic	lr, ip, r2
   171d0:	e0020001 	and	r0, r2, r1
   171d4:	e59d7028 	ldr	r7, [sp, #40]	; 0x28
   171d8:	e18e0000 	orr	r0, lr, r0
   171dc:	e0833000 	add	r3, r3, r0
   171e0:	e2470b29 	sub	r0, r7, #41984	; 0xa400
   171e4:	e0823a63 	add	r3, r2, r3, ror #20
   171e8:	e240004f 	sub	r0, r0, #79	; 0x4f
   171ec:	e1c1e003 	bic	lr, r1, r3
   171f0:	e080c00c 	add	ip, r0, ip
   171f4:	e0030002 	and	r0, r3, r2
   171f8:	e18e0000 	orr	r0, lr, r0
   171fc:	e59d802c 	ldr	r8, [sp, #44]	; 0x2c
   17200:	e08c0000 	add	r0, ip, r0
   17204:	e59f9758 	ldr	r9, [pc, #1880]	; 17964 <MD5Transform+0x90c>
   17208:	e08307e0 	add	r0, r3, r0, ror #15
   1720c:	e0889009 	add	r9, r8, r9
   17210:	e000c003 	and	ip, r0, r3
   17214:	e0891001 	add	r1, r9, r1
   17218:	e1c29000 	bic	r9, r2, r0
   1721c:	e189900c 	orr	r9, r9, ip
   17220:	e0819009 	add	r9, r1, r9
   17224:	e59dc030 	ldr	ip, [sp, #48]	; 0x30
   17228:	e59f1738 	ldr	r1, [pc, #1848]	; 17968 <MD5Transform+0x910>
   1722c:	e0809569 	add	r9, r0, r9, ror #10
   17230:	e08c1001 	add	r1, ip, r1
   17234:	e1c3e009 	bic	lr, r3, r9
   17238:	e0812002 	add	r2, r1, r2
   1723c:	e0091000 	and	r1, r9, r0
   17240:	e18e1001 	orr	r1, lr, r1
   17244:	e59da034 	ldr	sl, [sp, #52]	; 0x34
   17248:	e0821001 	add	r1, r2, r1
   1724c:	e59f2718 	ldr	r2, [pc, #1816]	; 1796c <MD5Transform+0x914>
   17250:	e0891ce1 	add	r1, r9, r1, ror #25
   17254:	e08a2002 	add	r2, sl, r2
   17258:	e1c0e001 	bic	lr, r0, r1
   1725c:	e0823003 	add	r3, r2, r3
   17260:	e0012009 	and	r2, r1, r9
   17264:	e18e2002 	orr	r2, lr, r2
   17268:	e0832002 	add	r2, r3, r2
   1726c:	e59de038 	ldr	lr, [sp, #56]	; 0x38
   17270:	e59f36f8 	ldr	r3, [pc, #1784]	; 17970 <MD5Transform+0x918>
   17274:	e0812a62 	add	r2, r1, r2, ror #20
   17278:	e1e08002 	mvn	r8, r2
   1727c:	e08e3003 	add	r3, lr, r3
   17280:	e0087009 	and	r7, r8, r9
   17284:	e0830000 	add	r0, r3, r0
   17288:	e0023001 	and	r3, r2, r1
   1728c:	e1873003 	orr	r3, r7, r3
   17290:	e0803003 	add	r3, r0, r3
   17294:	e59fa6d8 	ldr	sl, [pc, #1752]	; 17974 <MD5Transform+0x91c>
   17298:	e59d003c 	ldr	r0, [sp, #60]	; 0x3c
   1729c:	e08237e3 	add	r3, r2, r3, ror #15
   172a0:	e1e07003 	mvn	r7, r3
   172a4:	e080a00a 	add	sl, r0, sl
   172a8:	e007b001 	and	fp, r7, r1
   172ac:	e08a9009 	add	r9, sl, r9
   172b0:	e003a002 	and	sl, r3, r2
   172b4:	e18ba00a 	orr	sl, fp, sl
   172b8:	e089900a 	add	r9, r9, sl
   172bc:	e59db004 	ldr	fp, [sp, #4]
   172c0:	e59fa6b0 	ldr	sl, [pc, #1712]	; 17978 <MD5Transform+0x920>
   172c4:	e0839569 	add	r9, r3, r9, ror #10
   172c8:	e08ba00a 	add	sl, fp, sl
   172cc:	e08a1001 	add	r1, sl, r1
   172d0:	e0088003 	and	r8, r8, r3
   172d4:	e009a002 	and	sl, r9, r2
   172d8:	e18a8008 	orr	r8, sl, r8
   172dc:	e0811008 	add	r1, r1, r8
   172e0:	e59da018 	ldr	sl, [sp, #24]
   172e4:	e59f8690 	ldr	r8, [pc, #1680]	; 1797c <MD5Transform+0x924>
   172e8:	e0891de1 	add	r1, r9, r1, ror #27
   172ec:	e08a8008 	add	r8, sl, r8
   172f0:	e0888002 	add	r8, r8, r2
   172f4:	e0077009 	and	r7, r7, r9
   172f8:	e0012003 	and	r2, r1, r3
   172fc:	e1822007 	orr	r2, r2, r7
   17300:	e59db02c 	ldr	fp, [sp, #44]	; 0x2c
   17304:	e0882002 	add	r2, r8, r2
   17308:	e59f7670 	ldr	r7, [pc, #1648]	; 17980 <MD5Transform+0x928>
   1730c:	e0812be2 	add	r2, r1, r2, ror #23
   17310:	e08b7007 	add	r7, fp, r7
   17314:	e0028009 	and	r8, r2, r9
   17318:	e0873003 	add	r3, r7, r3
   1731c:	e1c17009 	bic	r7, r1, r9
   17320:	e1887007 	orr	r7, r8, r7
   17324:	e0833007 	add	r3, r3, r7
   17328:	e59f7654 	ldr	r7, [pc, #1620]	; 17984 <MD5Transform+0x92c>
   1732c:	e0823963 	add	r3, r2, r3, ror #18
   17330:	e0867007 	add	r7, r6, r7
   17334:	e0038001 	and	r8, r3, r1
   17338:	e0879009 	add	r9, r7, r9
   1733c:	e1c27001 	bic	r7, r2, r1
   17340:	e1887007 	orr	r7, r8, r7
   17344:	e0899007 	add	r9, r9, r7
   17348:	e59f8638 	ldr	r8, [pc, #1592]	; 17988 <MD5Transform+0x930>
   1734c:	e59d7014 	ldr	r7, [sp, #20]
   17350:	e0839669 	add	r9, r3, r9, ror #12
   17354:	e0878008 	add	r8, r7, r8
   17358:	e0881001 	add	r1, r8, r1
   1735c:	e1c37002 	bic	r7, r3, r2
   17360:	e0098002 	and	r8, r9, r2
   17364:	e1888007 	orr	r8, r8, r7
   17368:	e59da028 	ldr	sl, [sp, #40]	; 0x28
   1736c:	e0818008 	add	r8, r1, r8
   17370:	e59f1614 	ldr	r1, [pc, #1556]	; 1798c <MD5Transform+0x934>
   17374:	e0898de8 	add	r8, r9, r8, ror #27
   17378:	e08a1001 	add	r1, sl, r1
   1737c:	e0087003 	and	r7, r8, r3
   17380:	e0812002 	add	r2, r1, r2
   17384:	e1c91003 	bic	r1, r9, r3
   17388:	e1871001 	orr	r1, r7, r1
   1738c:	e0821001 	add	r1, r2, r1
   17390:	e59f75f8 	ldr	r7, [pc, #1528]	; 17990 <MD5Transform+0x938>
   17394:	e0881be1 	add	r1, r8, r1, ror #23
   17398:	e0807007 	add	r7, r0, r7
   1739c:	e1c82009 	bic	r2, r8, r9
   173a0:	e0873003 	add	r3, r7, r3
   173a4:	e0017009 	and	r7, r1, r9
   173a8:	e1877002 	orr	r7, r7, r2
   173ac:	e59db010 	ldr	fp, [sp, #16]
   173b0:	e0837007 	add	r7, r3, r7
   173b4:	e59f35d8 	ldr	r3, [pc, #1496]	; 17994 <MD5Transform+0x93c>
   173b8:	e0817967 	add	r7, r1, r7, ror #18
   173bc:	e08b3003 	add	r3, fp, r3
   173c0:	e0072008 	and	r2, r7, r8
   173c4:	e0839009 	add	r9, r3, r9
   173c8:	e1c13008 	bic	r3, r1, r8
   173cc:	e1823003 	orr	r3, r2, r3
   173d0:	e0899003 	add	r9, r9, r3
   173d4:	e59d2024 	ldr	r2, [sp, #36]	; 0x24
   173d8:	e59f35b8 	ldr	r3, [pc, #1464]	; 17998 <MD5Transform+0x940>
   173dc:	e0879669 	add	r9, r7, r9, ror #12
   173e0:	e0823003 	add	r3, r2, r3
   173e4:	e0838008 	add	r8, r3, r8
   173e8:	e0092001 	and	r2, r9, r1
   173ec:	e1c73001 	bic	r3, r7, r1
   173f0:	e1823003 	orr	r3, r2, r3
   173f4:	e0883003 	add	r3, r8, r3
   173f8:	e59f259c 	ldr	r2, [pc, #1436]	; 1799c <MD5Transform+0x944>
   173fc:	e0893de3 	add	r3, r9, r3, ror #27
   17400:	e08e2002 	add	r2, lr, r2
   17404:	e0038007 	and	r8, r3, r7
   17408:	e0821001 	add	r1, r2, r1
   1740c:	e1c92007 	bic	r2, r9, r7
   17410:	e1882002 	orr	r2, r8, r2
   17414:	e0811002 	add	r1, r1, r2
   17418:	e59d800c 	ldr	r8, [sp, #12]
   1741c:	e59f257c 	ldr	r2, [pc, #1404]	; 179a0 <MD5Transform+0x948>
   17420:	e0831be1 	add	r1, r3, r1, ror #23
   17424:	e0882002 	add	r2, r8, r2
   17428:	e0827007 	add	r7, r2, r7
   1742c:	e0018009 	and	r8, r1, r9
   17430:	e1c32009 	bic	r2, r3, r9
   17434:	e1882002 	orr	r2, r8, r2
   17438:	e59da020 	ldr	sl, [sp, #32]
   1743c:	e0877002 	add	r7, r7, r2
   17440:	e59f255c 	ldr	r2, [pc, #1372]	; 179a4 <MD5Transform+0x94c>
   17444:	e0817967 	add	r7, r1, r7, ror #18
   17448:	e08a2002 	add	r2, sl, r2
   1744c:	e0078003 	and	r8, r7, r3
   17450:	e0829009 	add	r9, r2, r9
   17454:	e1c12003 	bic	r2, r1, r3
   17458:	e1882002 	orr	r2, r8, r2
   1745c:	e59db034 	ldr	fp, [sp, #52]	; 0x34
   17460:	e0892002 	add	r2, r9, r2
   17464:	e59f853c 	ldr	r8, [pc, #1340]	; 179a8 <MD5Transform+0x950>
   17468:	e0872662 	add	r2, r7, r2, ror #12
   1746c:	e08b8008 	add	r8, fp, r8
   17470:	e0029001 	and	r9, r2, r1
   17474:	e0883003 	add	r3, r8, r3
   17478:	e1c78001 	bic	r8, r7, r1
   1747c:	e1898008 	orr	r8, r9, r8
   17480:	e0833008 	add	r3, r3, r8
   17484:	e59d9008 	ldr	r9, [sp, #8]
   17488:	e59f851c 	ldr	r8, [pc, #1308]	; 179ac <MD5Transform+0x954>
   1748c:	e0823de3 	add	r3, r2, r3, ror #27
   17490:	e0898008 	add	r8, r9, r8
   17494:	e0881001 	add	r1, r8, r1
   17498:	e0039007 	and	r9, r3, r7
   1749c:	e1c28007 	bic	r8, r2, r7
   174a0:	e1898008 	orr	r8, r9, r8
   174a4:	e0811008 	add	r1, r1, r8
   174a8:	e59f8500 	ldr	r8, [pc, #1280]	; 179b0 <MD5Transform+0x958>
   174ac:	e0831be1 	add	r1, r3, r1, ror #23
   174b0:	e0858008 	add	r8, r5, r8
   174b4:	e0019002 	and	r9, r1, r2
   174b8:	e0887007 	add	r7, r8, r7
   174bc:	e1c38002 	bic	r8, r3, r2
   174c0:	e1898008 	orr	r8, r9, r8
   174c4:	e0877008 	add	r7, r7, r8
   174c8:	e59f84e4 	ldr	r8, [pc, #1252]	; 179b4 <MD5Transform+0x95c>
   174cc:	e0817967 	add	r7, r1, r7, ror #18
   174d0:	e08c8008 	add	r8, ip, r8
   174d4:	e0079003 	and	r9, r7, r3
   174d8:	e0882002 	add	r2, r8, r2
   174dc:	e1c18003 	bic	r8, r1, r3
   174e0:	e1898008 	orr	r8, r9, r8
   174e4:	e59db014 	ldr	fp, [sp, #20]
   174e8:	e0822008 	add	r2, r2, r8
   174ec:	e59fa4c4 	ldr	sl, [pc, #1220]	; 179b8 <MD5Transform+0x960>
   174f0:	e0872662 	add	r2, r7, r2, ror #12
   174f4:	e0278001 	eor	r8, r7, r1
   174f8:	e08ba00a 	add	sl, fp, sl
   174fc:	e0288002 	eor	r8, r8, r2
   17500:	e08aa003 	add	sl, sl, r3
   17504:	e08aa008 	add	sl, sl, r8
   17508:	e59f34ac 	ldr	r3, [pc, #1196]	; 179bc <MD5Transform+0x964>
   1750c:	e59d8020 	ldr	r8, [sp, #32]
   17510:	e082ae6a 	add	sl, r2, sl, ror #28
   17514:	e0883003 	add	r3, r8, r3
   17518:	e0228007 	eor	r8, r2, r7
   1751c:	e028800a 	eor	r8, r8, sl
   17520:	e0831001 	add	r1, r3, r1
   17524:	e59d902c 	ldr	r9, [sp, #44]	; 0x2c
   17528:	e0811008 	add	r1, r1, r8
   1752c:	e59f348c 	ldr	r3, [pc, #1164]	; 179c0 <MD5Transform+0x968>
   17530:	e08a1ae1 	add	r1, sl, r1, ror #21
   17534:	e0893003 	add	r3, r9, r3
   17538:	e02a8002 	eor	r8, sl, r2
   1753c:	e0288001 	eor	r8, r8, r1
   17540:	e0837007 	add	r7, r3, r7
   17544:	e0877008 	add	r7, r7, r8
   17548:	e59f3474 	ldr	r3, [pc, #1140]	; 179c4 <MD5Transform+0x96c>
   1754c:	e0817867 	add	r7, r1, r7, ror #16
   17550:	e08e3003 	add	r3, lr, r3
   17554:	e021b00a 	eor	fp, r1, sl
   17558:	e02bb007 	eor	fp, fp, r7
   1755c:	e0832002 	add	r2, r3, r2
   17560:	e082200b 	add	r2, r2, fp
   17564:	e59f345c 	ldr	r3, [pc, #1116]	; 179c8 <MD5Transform+0x970>
   17568:	e59db004 	ldr	fp, [sp, #4]
   1756c:	e08724e2 	add	r2, r7, r2, ror #9
   17570:	e08b3003 	add	r3, fp, r3
   17574:	e0278001 	eor	r8, r7, r1
   17578:	e0288002 	eor	r8, r8, r2
   1757c:	e083a00a 	add	sl, r3, sl
   17580:	e08aa008 	add	sl, sl, r8
   17584:	e59f3440 	ldr	r3, [pc, #1088]	; 179cc <MD5Transform+0x974>
   17588:	e59d8010 	ldr	r8, [sp, #16]
   1758c:	e082ae6a 	add	sl, r2, sl, ror #28
   17590:	e0883003 	add	r3, r8, r3
   17594:	e0228007 	eor	r8, r2, r7
   17598:	e028800a 	eor	r8, r8, sl
   1759c:	e0831001 	add	r1, r3, r1
   175a0:	e0811008 	add	r1, r1, r8
   175a4:	e59f3424 	ldr	r3, [pc, #1060]	; 179d0 <MD5Transform+0x978>
   175a8:	e08a1ae1 	add	r1, sl, r1, ror #21
   175ac:	e02a8002 	eor	r8, sl, r2
   175b0:	e0853003 	add	r3, r5, r3
   175b4:	e0288001 	eor	r8, r8, r1
   175b8:	e0833007 	add	r3, r3, r7
   175bc:	e59d9028 	ldr	r9, [sp, #40]	; 0x28
   175c0:	e0833008 	add	r3, r3, r8
   175c4:	e59f7408 	ldr	r7, [pc, #1032]	; 179d4 <MD5Transform+0x97c>
   175c8:	e0813863 	add	r3, r1, r3, ror #16
   175cc:	e021800a 	eor	r8, r1, sl
   175d0:	e0897007 	add	r7, r9, r7
   175d4:	e0288003 	eor	r8, r8, r3
   175d8:	e0877002 	add	r7, r7, r2
   175dc:	e59db034 	ldr	fp, [sp, #52]	; 0x34
   175e0:	e0877008 	add	r7, r7, r8
   175e4:	e59f23ec 	ldr	r2, [pc, #1004]	; 179d8 <MD5Transform+0x980>
   175e8:	e08374e7 	add	r7, r3, r7, ror #9
   175ec:	e08b2002 	add	r2, fp, r2
   175f0:	e0238001 	eor	r8, r3, r1
   175f4:	e0288007 	eor	r8, r8, r7
   175f8:	e082a00a 	add	sl, r2, sl
   175fc:	e08aa008 	add	sl, sl, r8
   17600:	e59f23d4 	ldr	r2, [pc, #980]	; 179dc <MD5Transform+0x984>
   17604:	e087ae6a 	add	sl, r7, sl, ror #28
   17608:	e0862002 	add	r2, r6, r2
   1760c:	e0278003 	eor	r8, r7, r3
   17610:	e028800a 	eor	r8, r8, sl
   17614:	e0821001 	add	r1, r2, r1
   17618:	e0811008 	add	r1, r1, r8
   1761c:	e59d200c 	ldr	r2, [sp, #12]
   17620:	e59f83b8 	ldr	r8, [pc, #952]	; 179e0 <MD5Transform+0x988>
   17624:	e08a1ae1 	add	r1, sl, r1, ror #21
   17628:	e0828008 	add	r8, r2, r8
   1762c:	e02a2007 	eor	r2, sl, r7
   17630:	e0222001 	eor	r2, r2, r1
   17634:	e0888003 	add	r8, r8, r3
   17638:	e59d9018 	ldr	r9, [sp, #24]
   1763c:	e0888002 	add	r8, r8, r2
   17640:	e59f339c 	ldr	r3, [pc, #924]	; 179e4 <MD5Transform+0x98c>
   17644:	e0818868 	add	r8, r1, r8, ror #16
   17648:	e0893003 	add	r3, r9, r3
   1764c:	e021900a 	eor	r9, r1, sl
   17650:	e0299008 	eor	r9, r9, r8
   17654:	e0837007 	add	r7, r3, r7
   17658:	e59db024 	ldr	fp, [sp, #36]	; 0x24
   1765c:	e0877009 	add	r7, r7, r9
   17660:	e59f2380 	ldr	r2, [pc, #896]	; 179e8 <MD5Transform+0x990>
   17664:	e08874e7 	add	r7, r8, r7, ror #9
   17668:	e0283001 	eor	r3, r8, r1
   1766c:	e08b2002 	add	r2, fp, r2
   17670:	e0233007 	eor	r3, r3, r7
   17674:	e082200a 	add	r2, r2, sl
   17678:	e0822003 	add	r2, r2, r3
   1767c:	e59f3368 	ldr	r3, [pc, #872]	; 179ec <MD5Transform+0x994>
   17680:	e0872e62 	add	r2, r7, r2, ror #28
   17684:	e08c3003 	add	r3, ip, r3
   17688:	e0279008 	eor	r9, r7, r8
   1768c:	e0299002 	eor	r9, r9, r2
   17690:	e0831001 	add	r1, r3, r1
   17694:	e0811009 	add	r1, r1, r9
   17698:	e59f3350 	ldr	r3, [pc, #848]	; 179f0 <MD5Transform+0x998>
   1769c:	e0821ae1 	add	r1, r2, r1, ror #21
   176a0:	e0803003 	add	r3, r0, r3
   176a4:	e0229007 	eor	r9, r2, r7
   176a8:	e0299001 	eor	r9, r9, r1
   176ac:	e0838008 	add	r8, r3, r8
   176b0:	e0888009 	add	r8, r8, r9
   176b4:	e59f3338 	ldr	r3, [pc, #824]	; 179f4 <MD5Transform+0x99c>
   176b8:	e59d9008 	ldr	r9, [sp, #8]
   176bc:	e0818868 	add	r8, r1, r8, ror #16
   176c0:	e0893003 	add	r3, r9, r3
   176c4:	e0219002 	eor	r9, r1, r2
   176c8:	e0299008 	eor	r9, r9, r8
   176cc:	e0833007 	add	r3, r3, r7
   176d0:	e0833009 	add	r3, r3, r9
   176d4:	e59f731c 	ldr	r7, [pc, #796]	; 179f8 <MD5Transform+0x9a0>
   176d8:	e08834e3 	add	r3, r8, r3, ror #9
   176dc:	e0867007 	add	r7, r6, r7
   176e0:	e1e06001 	mvn	r6, r1
   176e4:	e1836006 	orr	r6, r3, r6
   176e8:	e0266008 	eor	r6, r6, r8
   176ec:	e0872002 	add	r2, r7, r2
   176f0:	e0822006 	add	r2, r2, r6
   176f4:	e59f6300 	ldr	r6, [pc, #768]	; 179fc <MD5Transform+0x9a4>
   176f8:	e0832d62 	add	r2, r3, r2, ror #26
   176fc:	e0856006 	add	r6, r5, r6
   17700:	e1e05008 	mvn	r5, r8
   17704:	e1825005 	orr	r5, r2, r5
   17708:	e0255003 	eor	r5, r5, r3
   1770c:	e0861001 	add	r1, r6, r1
   17710:	e0811005 	add	r1, r1, r5
   17714:	e59f52e4 	ldr	r5, [pc, #740]	; 17a00 <MD5Transform+0x9a8>
   17718:	e0821b61 	add	r1, r2, r1, ror #22
   1771c:	e08e5005 	add	r5, lr, r5
   17720:	e1e0e003 	mvn	lr, r3
   17724:	e181e00e 	orr	lr, r1, lr
   17728:	e02ee002 	eor	lr, lr, r2
   1772c:	e0855008 	add	r5, r5, r8
   17730:	e085500e 	add	r5, r5, lr
   17734:	e59da014 	ldr	sl, [sp, #20]
   17738:	e59fe2c4 	ldr	lr, [pc, #708]	; 17a04 <MD5Transform+0x9ac>
   1773c:	e08158e5 	add	r5, r1, r5, ror #17
   17740:	e1e06002 	mvn	r6, r2
   17744:	e08ae00e 	add	lr, sl, lr
   17748:	e1856006 	orr	r6, r5, r6
   1774c:	e0266001 	eor	r6, r6, r1
   17750:	e08e3003 	add	r3, lr, r3
   17754:	e0833006 	add	r3, r3, r6
   17758:	e59fe2a8 	ldr	lr, [pc, #680]	; 17a08 <MD5Transform+0x9b0>
   1775c:	e08535e3 	add	r3, r5, r3, ror #11
   17760:	e08ce00e 	add	lr, ip, lr
   17764:	e1e0c001 	mvn	ip, r1
   17768:	e183c00c 	orr	ip, r3, ip
   1776c:	e02cc005 	eor	ip, ip, r5
   17770:	e08e2002 	add	r2, lr, r2
   17774:	e082200c 	add	r2, r2, ip
   17778:	e59db00c 	ldr	fp, [sp, #12]
   1777c:	e59fc288 	ldr	ip, [pc, #648]	; 17a0c <MD5Transform+0x9b4>
   17780:	e0832d62 	add	r2, r3, r2, ror #26
   17784:	e1e0e005 	mvn	lr, r5
   17788:	e08bc00c 	add	ip, fp, ip
   1778c:	e182e00e 	orr	lr, r2, lr
   17790:	e02ee003 	eor	lr, lr, r3
   17794:	e08c1001 	add	r1, ip, r1
   17798:	e081100e 	add	r1, r1, lr
   1779c:	e59fc26c 	ldr	ip, [pc, #620]	; 17a10 <MD5Transform+0x9b8>
   177a0:	e59de028 	ldr	lr, [sp, #40]	; 0x28
   177a4:	e0821b61 	add	r1, r2, r1, ror #22
   177a8:	e08ec00c 	add	ip, lr, ip
   177ac:	e1e0e003 	mvn	lr, r3
   177b0:	e181e00e 	orr	lr, r1, lr
   177b4:	e02ee002 	eor	lr, lr, r2
   177b8:	e08c5005 	add	r5, ip, r5
   177bc:	e59d6004 	ldr	r6, [sp, #4]
   177c0:	e085500e 	add	r5, r5, lr
   177c4:	e59fc248 	ldr	ip, [pc, #584]	; 17a14 <MD5Transform+0x9bc>
   177c8:	e08158e5 	add	r5, r1, r5, ror #17
   177cc:	e086c00c 	add	ip, r6, ip
   177d0:	e1e06002 	mvn	r6, r2
   177d4:	e1856006 	orr	r6, r5, r6
   177d8:	e0266001 	eor	r6, r6, r1
   177dc:	e08cc003 	add	ip, ip, r3
   177e0:	e08cc006 	add	ip, ip, r6
   177e4:	e59d7020 	ldr	r7, [sp, #32]
   177e8:	e59f3228 	ldr	r3, [pc, #552]	; 17a18 <MD5Transform+0x9c0>
   177ec:	e085c5ec 	add	ip, r5, ip, ror #11
   177f0:	e1e06001 	mvn	r6, r1
   177f4:	e0873003 	add	r3, r7, r3
   177f8:	e18c6006 	orr	r6, ip, r6
   177fc:	e0266005 	eor	r6, r6, r5
   17800:	e0832002 	add	r2, r3, r2
   17804:	e0822006 	add	r2, r2, r6
   17808:	e59f320c 	ldr	r3, [pc, #524]	; 17a1c <MD5Transform+0x9c4>
   1780c:	e08c2d62 	add	r2, ip, r2, ror #26
   17810:	e0803003 	add	r3, r0, r3
   17814:	e1e00005 	mvn	r0, r5
   17818:	e1820000 	orr	r0, r2, r0
   1781c:	e020000c 	eor	r0, r0, ip
   17820:	e0831001 	add	r1, r3, r1
   17824:	e0811000 	add	r1, r1, r0
   17828:	e59d8018 	ldr	r8, [sp, #24]
   1782c:	e59f31ec 	ldr	r3, [pc, #492]	; 17a20 <MD5Transform+0x9c8>
   17830:	e0821b61 	add	r1, r2, r1, ror #22
   17834:	e1e0000c 	mvn	r0, ip
   17838:	e0883003 	add	r3, r8, r3
   1783c:	e1810000 	orr	r0, r1, r0
   17840:	e0200002 	eor	r0, r0, r2
   17844:	e0835005 	add	r5, r3, r5
   17848:	e0855000 	add	r5, r5, r0
   1784c:	e59d9034 	ldr	r9, [sp, #52]	; 0x34
   17850:	e59f01cc 	ldr	r0, [pc, #460]	; 17a24 <MD5Transform+0x9cc>
   17854:	e08158e5 	add	r5, r1, r5, ror #17
   17858:	e1e0e002 	mvn	lr, r2
   1785c:	e0890000 	add	r0, r9, r0
   17860:	e185e00e 	orr	lr, r5, lr
   17864:	e02ee001 	eor	lr, lr, r1
   17868:	e080000c 	add	r0, r0, ip
   1786c:	e080000e 	add	r0, r0, lr
   17870:	e59da010 	ldr	sl, [sp, #16]
   17874:	e59f31ac 	ldr	r3, [pc, #428]	; 17a28 <MD5Transform+0x9d0>
   17878:	e08505e0 	add	r0, r5, r0, ror #11
   1787c:	e1e0c001 	mvn	ip, r1
   17880:	e08a3003 	add	r3, sl, r3
   17884:	e180c00c 	orr	ip, r0, ip
   17888:	e02cc005 	eor	ip, ip, r5
   1788c:	e0833002 	add	r3, r3, r2
   17890:	e083300c 	add	r3, r3, ip
   17894:	e59db02c 	ldr	fp, [sp, #44]	; 0x2c
   17898:	e59f218c 	ldr	r2, [pc, #396]	; 17a2c <MD5Transform+0x9d4>
   1789c:	e0803d63 	add	r3, r0, r3, ror #26
   178a0:	e1e0c005 	mvn	ip, r5
   178a4:	e08b2002 	add	r2, fp, r2
   178a8:	e183c00c 	orr	ip, r3, ip
   178ac:	e02cc000 	eor	ip, ip, r0
   178b0:	e0821001 	add	r1, r2, r1
   178b4:	e081100c 	add	r1, r1, ip
   178b8:	e59f2170 	ldr	r2, [pc, #368]	; 17a30 <MD5Transform+0x9d8>
   178bc:	e59dc008 	ldr	ip, [sp, #8]
   178c0:	e0831b61 	add	r1, r3, r1, ror #22
   178c4:	e08c2002 	add	r2, ip, r2
   178c8:	e59de024 	ldr	lr, [sp, #36]	; 0x24
   178cc:	e0825005 	add	r5, r2, r5
   178d0:	e1e0c000 	mvn	ip, r0
   178d4:	e59f2158 	ldr	r2, [pc, #344]	; 17a34 <MD5Transform+0x9dc>
   178d8:	e181c00c 	orr	ip, r1, ip
   178dc:	e02cc003 	eor	ip, ip, r3
   178e0:	e08e2002 	add	r2, lr, r2
   178e4:	e085500c 	add	r5, r5, ip
   178e8:	e0822000 	add	r2, r2, r0
   178ec:	e5940000 	ldr	r0, [r4]
   178f0:	e08158e5 	add	r5, r1, r5, ror #17
   178f4:	e1e0c003 	mvn	ip, r3
   178f8:	e0803003 	add	r3, r0, r3
   178fc:	e185c00c 	orr	ip, r5, ip
   17900:	e5843000 	str	r3, [r4]
   17904:	e02cc001 	eor	ip, ip, r1
   17908:	e5943004 	ldr	r3, [r4, #4]
   1790c:	e082200c 	add	r2, r2, ip
   17910:	e0853003 	add	r3, r5, r3
   17914:	e08325e2 	add	r2, r3, r2, ror #11
   17918:	e5943008 	ldr	r3, [r4, #8]
   1791c:	e5842004 	str	r2, [r4, #4]
   17920:	e0835005 	add	r5, r3, r5
   17924:	e594300c 	ldr	r3, [r4, #12]
   17928:	e5845008 	str	r5, [r4, #8]
   1792c:	e0831001 	add	r1, r3, r1
   17930:	e584100c 	str	r1, [r4, #12]
   17934:	e28ddf41 	add	sp, sp, #260	; 0x104
   17938:	e8bd8ff0 	pop	{r4, r5, r6, r7, r8, r9, sl, fp, pc}
   1793c:	d76aa478 			; <UNDEFINED> instruction: 0xd76aa478
   17940:	e8c7b756 	stmia	r7, {r1, r2, r4, r6, r8, r9, sl, ip, sp, pc}^
   17944:	242070db 	strtcs	r7, [r0], #-219	; 0xdb
   17948:	c1bdceee 			; <UNDEFINED> instruction: 0xc1bdceee
   1794c:	f57c0faf 			; <UNDEFINED> instruction: 0xf57c0faf
   17950:	4787c62a 	strmi	ip, [r7, sl, lsr #12]
   17954:	a8304613 	ldmdage	r0!, {r0, r1, r4, r9, sl, lr}
   17958:	fd469501 	stc2l	5, cr9, [r6, #-4]
   1795c:	698098d8 	stmibvs	r0, {r3, r4, r6, r7, fp, ip, pc}
   17960:	8b44f7af 	blhi	1155824 <__bss_end__+0x112c09c>
   17964:	895cd7be 	ldmdbhi	ip, {r1, r2, r3, r4, r5, r7, r8, r9, sl, ip, lr, pc}^
   17968:	6b901122 	blvs	fe41bdf8 <__bss_end__+0xfe3f2670>
   1796c:	fd987193 	ldc2	1, cr7, [r8, #588]	; 0x24c
   17970:	a679438e 	ldrbtge	r4, [r9], -lr, lsl #7
   17974:	49b40821 	ldmibmi	r4!, {r0, r5, fp}
   17978:	f61e2562 			; <UNDEFINED> instruction: 0xf61e2562
   1797c:	c040b340 	subgt	fp, r0, r0, asr #6
   17980:	265e5a51 			; <UNDEFINED> instruction: 0x265e5a51
   17984:	e9b6c7aa 	ldmib	r6!, {r1, r3, r5, r7, r8, r9, sl, lr, pc}
   17988:	d62f105d 			; <UNDEFINED> instruction: 0xd62f105d
   1798c:	02441453 	subeq	r1, r4, #1392508928	; 0x53000000
   17990:	d8a1e681 	stmiale	r1!, {r0, r7, r9, sl, sp, lr, pc}
   17994:	e7d3fbc8 	ldrb	pc, [r3, r8, asr #23]	; <UNPREDICTABLE>
   17998:	21e1cde6 	mvncs	ip, r6, ror #27
   1799c:	c33707d6 	teqgt	r7, #56098816	; 0x3580000
   179a0:	f4d50d87 			; <UNDEFINED> instruction: 0xf4d50d87
   179a4:	455a14ed 	ldrbmi	r1, [sl, #-1261]	; 0x4ed
   179a8:	a9e3e905 	stmibge	r3!, {r0, r2, r8, fp, sp, lr, pc}^
   179ac:	fcefa3f8 	stc2l	3, cr10, [pc], #992	; 17d94 <_fini+0x230>
   179b0:	676f02d9 			; <UNDEFINED> instruction: 0x676f02d9
   179b4:	8d2a4c8a 	stchi	12, cr4, [sl, #-552]!	; 0xfffffdd8
   179b8:	fffa3942 			; <UNDEFINED> instruction: 0xfffa3942
   179bc:	8771f681 	ldrbhi	pc, [r1, -r1, lsl #13]!	; <UNPREDICTABLE>
   179c0:	6d9d6122 	ldfvss	f6, [sp, #136]	; 0x88
   179c4:	fde5380c 	stc2l	8, cr3, [r5, #48]!	; 0x30
   179c8:	a4beea44 	ldrtge	lr, [lr], #2628	; 0xa44
   179cc:	4bdecfa9 	blmi	ff7cb878 <__bss_end__+0xff7a20f0>
   179d0:	f6bb4b60 			; <UNDEFINED> instruction: 0xf6bb4b60
   179d4:	bebfbc70 	mrclt	12, 5, fp, cr15, cr0, {3}
   179d8:	289b7ec6 	ldmcs	fp, {r1, r2, r6, r7, r9, sl, fp, ip, sp, lr}
   179dc:	eaa127fa 	b	fe8619cc <__bss_end__+0xfe838244>
   179e0:	d4ef3085 	strbtle	r3, [pc], #133	; 179e8 <MD5Transform+0x990>
   179e4:	04881d05 	streq	r1, [r8], #3333	; 0xd05
   179e8:	d9d4d039 	ldmible	r4, {r0, r3, r4, r5, ip, lr, pc}^
   179ec:	e6db99e5 	ldrb	r9, [fp], r5, ror #19
   179f0:	1fa27cf8 	svcne	0x00a27cf8
   179f4:	c4ac5665 	strtgt	r5, [ip], #1637	; 0x665
   179f8:	f4292244 	vld1.16	{d2-d5}, [r9], r4
   179fc:	432aff97 	msrmi	CPSR_fx, #604	; 0x25c
   17a00:	ab9423a7 	blge	fe5208a4 <__bss_end__+0xfe4f711c>
   17a04:	fc93a039 	ldc2	0, cr10, [r3], {57}	; 0x39
   17a08:	655b59c3 	ldrbvs	r5, [fp, #-2499]	; 0x9c3
   17a0c:	8f0ccc92 	svchi	0x000ccc92
   17a10:	ffeff47d 			; <UNDEFINED> instruction: 0xffeff47d
   17a14:	85845dd1 	strhi	r5, [r4, #3537]	; 0xdd1
   17a18:	6fa87e4f 	svcvs	0x00a87e4f
   17a1c:	fe2ce6e0 	cdp2	6, 2, cr14, cr12, cr0, {7}
   17a20:	a3014314 	movwge	r4, #4884	; 0x1314
   17a24:	4e0811a1 	adfmi<illegal precision>p	f1, f0, f1
   17a28:	f7537e82 			; <UNDEFINED> instruction: 0xf7537e82
   17a2c:	bd3af235 	lfmlt	f7, 1, [sl, #-212]!	; 0xffffff2c
   17a30:	2ad7d2bb 	bcs	ff60c524 <__bss_end__+0xff5e2d9c>
   17a34:	eb86d391 	bl	fe1cc880 <__bss_end__+0xfe1a30f8>

00017a38 <MD5Update>:
   17a38:	e92d47f0 	push	{r4, r5, r6, r7, r8, r9, sl, lr}
   17a3c:	e1a06002 	mov	r6, r2
   17a40:	e5902000 	ldr	r2, [r0]
   17a44:	e1a03186 	lsl	r3, r6, #3
   17a48:	e1a04000 	mov	r4, r0
   17a4c:	e7e501d2 	ubfx	r0, r2, #3, #6
   17a50:	e0832002 	add	r2, r3, r2
   17a54:	e1520003 	cmp	r2, r3
   17a58:	e2605040 	rsb	r5, r0, #64	; 0x40
   17a5c:	35943004 	ldrcc	r3, [r4, #4]
   17a60:	e1a07001 	mov	r7, r1
   17a64:	32833001 	addcc	r3, r3, #1
   17a68:	e5842000 	str	r2, [r4]
   17a6c:	35843004 	strcc	r3, [r4, #4]
   17a70:	e5943004 	ldr	r3, [r4, #4]
   17a74:	e1560005 	cmp	r6, r5
   17a78:	e0833ea6 	add	r3, r3, r6, lsr #29
   17a7c:	33a05000 	movcc	r5, #0
   17a80:	e5843004 	str	r3, [r4, #4]
   17a84:	3a000011 	bcc	17ad0 <MD5Update+0x98>
   17a88:	e2800018 	add	r0, r0, #24
   17a8c:	e1a02005 	mov	r2, r5
   17a90:	e0840000 	add	r0, r4, r0
   17a94:	e2849008 	add	r9, r4, #8
   17a98:	ebffe5b0 	bl	11160 <_init+0x78>
   17a9c:	e1a00009 	mov	r0, r9
   17aa0:	e2841018 	add	r1, r4, #24
   17aa4:	ebfffd6b 	bl	17058 <MD5Transform>
   17aa8:	e247a040 	sub	sl, r7, #64	; 0x40
   17aac:	e2858040 	add	r8, r5, #64	; 0x40
   17ab0:	e1580006 	cmp	r8, r6
   17ab4:	8a000004 	bhi	17acc <MD5Update+0x94>
   17ab8:	e1a00009 	mov	r0, r9
   17abc:	e08a1008 	add	r1, sl, r8
   17ac0:	ebfffd64 	bl	17058 <MD5Transform>
   17ac4:	e1a05008 	mov	r5, r8
   17ac8:	eafffff7 	b	17aac <MD5Update+0x74>
   17acc:	e3a00000 	mov	r0, #0
   17ad0:	e2800018 	add	r0, r0, #24
   17ad4:	e0840000 	add	r0, r4, r0
   17ad8:	e0871005 	add	r1, r7, r5
   17adc:	e0652006 	rsb	r2, r5, r6
   17ae0:	e8bd47f0 	pop	{r4, r5, r6, r7, r8, r9, sl, lr}
   17ae4:	eaffe59d 	b	11160 <_init+0x78>

00017ae8 <MD5Final>:
   17ae8:	e92d41f3 	push	{r0, r1, r4, r5, r6, r7, r8, lr}
   17aec:	e5902000 	ldr	r2, [r0]
   17af0:	e1a04000 	mov	r4, r0
   17af4:	e7e521d2 	ubfx	r2, r2, #3, #6
   17af8:	e3520037 	cmp	r2, #55	; 0x37
   17afc:	e59f7058 	ldr	r7, [pc, #88]	; 17b5c <MD5Final+0x74>
   17b00:	92626038 	rsbls	r6, r2, #56	; 0x38
   17b04:	82626078 	rsbhi	r6, r2, #120	; 0x78
   17b08:	e1a08001 	mov	r8, r1
   17b0c:	e1a0000d 	mov	r0, sp
   17b10:	e1a01004 	mov	r1, r4
   17b14:	e3a02008 	mov	r2, #8
   17b18:	ebfffd2b 	bl	16fcc <MD5Encode>
   17b1c:	e08f7007 	add	r7, pc, r7
   17b20:	e59f3038 	ldr	r3, [pc, #56]	; 17b60 <MD5Final+0x78>
   17b24:	e1a00004 	mov	r0, r4
   17b28:	e7971003 	ldr	r1, [r7, r3]
   17b2c:	e1a02006 	mov	r2, r6
   17b30:	ebffffc0 	bl	17a38 <MD5Update>
   17b34:	e1a00004 	mov	r0, r4
   17b38:	e1a0100d 	mov	r1, sp
   17b3c:	e3a02008 	mov	r2, #8
   17b40:	ebffffbc 	bl	17a38 <MD5Update>
   17b44:	e1a00008 	mov	r0, r8
   17b48:	e2841008 	add	r1, r4, #8
   17b4c:	e3a02010 	mov	r2, #16
   17b50:	ebfffd1d 	bl	16fcc <MD5Encode>
   17b54:	e28dd008 	add	sp, sp, #8
   17b58:	e8bd81f0 	pop	{r4, r5, r6, r7, r8, pc}
   17b5c:	00011918 	andeq	r1, r1, r8, lsl r9
   17b60:	00000134 	andeq	r0, r0, r4, lsr r1

Disassembly of section .fini:

00017b64 <_fini>:
   17b64:	e1a0c00d 	mov	ip, sp
   17b68:	e92ddff0 	push	{r4, r5, r6, r7, r8, r9, sl, fp, ip, lr, pc}
   17b6c:	e24cb004 	sub	fp, ip, #4
   17b70:	e91baff0 	ldmdb	fp, {r4, r5, r6, r7, r8, r9, sl, fp, sp, pc}

Disassembly of section .rodata:

00017b74 <firstByteMark-0xf39>:
   17b74:	31335b1b 	teqcc	r3, fp, lsl fp
   17b78:	61685b6d 	cmnvs	r8, sp, ror #22
   17b7c:	735f6f6c 	cmpvc	pc, #108, 30	; 0x1b0
   17b80:	1b5d7672 	blne	1775550 <__bss_end__+0x174bdc8>
   17b84:	3a6d305b 	bcc	1b63cf8 <__bss_end__+0x1b3a570>
   17b88:	252c7325 	strcs	r7, [ip, #-805]!	; 0x325
   17b8c:	2d2d2d64 	stccs	13, cr2, [sp, #-400]!	; 0xfffffe70
   17b90:	20642520 	rsbcs	r2, r4, r0, lsr #10
   17b94:	736f6c63 	cmnvc	pc, #25344	; 0x6300
   17b98:	68000a65 	stmdavs	r0, {r0, r2, r5, r6, r9, fp}
   17b9c:	5f6f6c61 	svcpl	0x006f6c61
   17ba0:	5f706374 	svcpl	0x00706374
   17ba4:	2e767273 	mrccs	2, 3, r7, cr6, cr3, {3}
   17ba8:	5b1b0063 	blpl	6d7d3c <__bss_end__+0x6ae5b4>
   17bac:	5b6d3133 	blpl	1b64080 <__bss_end__+0x1b3a8f8>
   17bb0:	6f6c6168 	svcvs	0x006c6168
   17bb4:	7672735f 			; <UNDEFINED> instruction: 0x7672735f
   17bb8:	305b1b5d 	subscc	r1, fp, sp, asr fp
   17bbc:	73253a6d 	teqvc	r5, #446464	; 0x6d000
   17bc0:	2d64252c 	cfstr64cs	mvdx2, [r4, #-176]!	; 0xffffff50
   17bc4:	25202d2d 	strcs	r2, [r0, #-3373]!	; 0xd2d
   17bc8:	73253a64 	teqvc	r5, #100, 20	; 0x64000
   17bcc:	5b1b000a 	blpl	6d7bfc <__bss_end__+0x6ae474>
   17bd0:	5b6d3133 	blpl	1b640a4 <__bss_end__+0x1b3a91c>
   17bd4:	6f6c6168 	svcvs	0x006c6168
   17bd8:	7672735f 			; <UNDEFINED> instruction: 0x7672735f
   17bdc:	305b1b5d 	subscc	r1, fp, sp, asr fp
   17be0:	73253a6d 	teqvc	r5, #446464	; 0x6d000
   17be4:	2d64252c 	cfstr64cs	mvdx2, [r4, #-176]!	; 0xffffff50
   17be8:	73202d2d 	teqvc	r0, #2880	; 0xb40
   17bec:	656b636f 	strbvs	r6, [fp, #-879]!	; 0x36f
   17bf0:	6e692074 	mcrvs	0, 3, r2, cr9, cr4, {3}
   17bf4:	65207469 	strvs	r7, [r0, #-1129]!	; 0x469
   17bf8:	726f7272 	rsbvc	r7, pc, #536870919	; 0x20000007
   17bfc:	5b1b000a 	blpl	6d7c2c <__bss_end__+0x6ae4a4>
   17c00:	5b6d3133 	blpl	1b640d4 <__bss_end__+0x1b3a94c>
   17c04:	6f6c6168 	svcvs	0x006c6168
   17c08:	7672735f 			; <UNDEFINED> instruction: 0x7672735f
   17c0c:	305b1b5d 	subscc	r1, fp, sp, asr fp
   17c10:	73253a6d 	teqvc	r5, #446464	; 0x6d000
   17c14:	2d64252c 	cfstr64cs	mvdx2, [r4, #-176]!	; 0xffffff50
   17c18:	62202d2d 	eorvs	r2, r0, #2880	; 0xb40
   17c1c:	20646e69 	rsbcs	r6, r4, r9, ror #28
   17c20:	6c696166 	stfvse	f6, [r9], #-408	; 0xfffffe68
   17c24:	000a6465 	andeq	r6, sl, r5, ror #8
   17c28:	31335b1b 	teqcc	r3, fp, lsl fp
   17c2c:	61685b6d 	cmnvs	r8, sp, ror #22
   17c30:	735f6f6c 	cmpvc	pc, #108, 30	; 0x1b0
   17c34:	1b5d7672 	blne	1775604 <__bss_end__+0x174be7c>
   17c38:	3a6d305b 	bcc	1b63dac <__bss_end__+0x1b3a624>
   17c3c:	252c7325 	strcs	r7, [ip, #-805]!	; 0x325
   17c40:	2d2d2d64 	stccs	13, cr2, [sp, #-400]!	; 0xfffffe70
   17c44:	73696c20 	cmnvc	r9, #32, 24	; 0x2000
   17c48:	206e6574 	rsbcs	r6, lr, r4, ror r5
   17c4c:	6c696166 	stfvse	f6, [r9], #-408	; 0xfffffe68
   17c50:	000a6465 	andeq	r6, sl, r5, ror #8
   17c54:	31335b1b 	teqcc	r3, fp, lsl fp
   17c58:	61685b6d 	cmnvs	r8, sp, ror #22
   17c5c:	735f6f6c 	cmpvc	pc, #108, 30	; 0x1b0
   17c60:	1b5d7672 	blne	1775630 <__bss_end__+0x174bea8>
   17c64:	3a6d305b 	bcc	1b63dd8 <__bss_end__+0x1b3a650>
   17c68:	252c7325 	strcs	r7, [ip, #-805]!	; 0x325
   17c6c:	2d2d2d64 	stccs	13, cr2, [sp, #-400]!	; 0xfffffe70
   17c70:	76727320 	ldrbtvc	r7, [r2], -r0, lsr #6
   17c74:	696e6920 	stmdbvs	lr!, {r5, r8, fp, sp, lr}^
   17c78:	6b6f2074 	blvs	1bdfe50 <__bss_end__+0x1bb66c8>
   17c7c:	0a642520 	beq	1921104 <__bss_end__+0x18f797c>
   17c80:	335b1b00 	cmpcc	fp, #0, 22
   17c84:	685b6d31 	ldmdavs	fp, {r0, r4, r5, r8, sl, fp, sp, lr}^
   17c88:	5f6f6c61 	svcpl	0x006f6c61
   17c8c:	5d767273 	lfmpl	f7, 2, [r6, #-460]!	; 0xfffffe34
   17c90:	6d305b1b 	fldmdbxvs	r0!, {d5-d17}	;@ Deprecated
   17c94:	2c73253a 	cfldr64cs	mvdx2, [r3], #-232	; 0xffffff18
   17c98:	2d2d6425 	cfstrscs	mvf6, [sp, #-148]!	; 0xffffff6c
   17c9c:	6567202d 	strbvs	r2, [r7, #-45]!	; 0x2d
   17ca0:	6c632074 	stclvs	0, cr2, [r3], #-464	; 0xfffffe30
   17ca4:	746e6569 	strbtvc	r6, [lr], #-1385	; 0x569
   17ca8:	5b1b000a 	blpl	6d7cd8 <__bss_end__+0x6ae550>
   17cac:	5b6d3133 	blpl	1b64180 <__bss_end__+0x1b3a9f8>
   17cb0:	6f6c6168 	svcvs	0x006c6168
   17cb4:	7474685f 	ldrbtvc	r6, [r4], #-2143	; 0x85f
   17cb8:	5b1b5d70 	blpl	6ef280 <__bss_end__+0x6c5af8>
   17cbc:	253a6d30 	ldrcs	r6, [sl, #-3376]!	; 0xd30
   17cc0:	64252c73 	strtvs	r2, [r5], #-3187	; 0xc73
   17cc4:	202d2d2d 	eorcs	r2, sp, sp, lsr #26
   17cc8:	72746572 	rsbsvc	r6, r4, #478150656	; 0x1c800000
   17ccc:	6f742079 	svcvs	0x00742079
   17cd0:	756d206f 	strbvc	r2, [sp, #-111]!	; 0x6f
   17cd4:	000a6863 	andeq	r6, sl, r3, ror #16
   17cd8:	6f6c6168 	svcvs	0x006c6168
   17cdc:	7474685f 	ldrbtvc	r6, [r4], #-2143	; 0x85f
   17ce0:	00632e70 	rsbeq	r2, r3, r0, ror lr
   17ce4:	31335b1b 	teqcc	r3, fp, lsl fp
   17ce8:	61685b6d 	cmnvs	r8, sp, ror #22
   17cec:	685f6f6c 	ldmdavs	pc, {r2, r3, r5, r6, r8, r9, sl, fp, sp, lr}^	; <UNPREDICTABLE>
   17cf0:	5d707474 	cfldrdpl	mvd7, [r0, #-464]!	; 0xfffffe30
   17cf4:	6d305b1b 	fldmdbxvs	r0!, {d5-d17}	;@ Deprecated
   17cf8:	2c73253a 	cfldr64cs	mvdx2, [r3], #-232	; 0xffffff18
   17cfc:	2d2d6425 	cfstrscs	mvf6, [sp, #-148]!	; 0xffffff6c
   17d00:	7275202d 	rsbsvc	r2, r5, #45	; 0x2d
   17d04:	73253a69 	teqvc	r5, #430080	; 0x69000
   17d08:	5b1b000a 	blpl	6d7d38 <__bss_end__+0x6ae5b0>
   17d0c:	5b6d3133 	blpl	1b641e0 <__bss_end__+0x1b3aa58>
   17d10:	6f6c6168 	svcvs	0x006c6168
   17d14:	7474685f 	ldrbtvc	r6, [r4], #-2143	; 0x85f
   17d18:	5b1b5d70 	blpl	6ef2e0 <__bss_end__+0x6c5b58>
   17d1c:	253a6d30 	ldrcs	r6, [sl, #-3376]!	; 0xd30
   17d20:	64252c73 	strtvs	r2, [r5], #-3187	; 0xc73
   17d24:	202d2d2d 	eorcs	r2, sp, sp, lsr #26
   17d28:	20746573 	rsbscs	r6, r4, r3, ror r5
   17d2c:	20697275 	rsbcs	r7, r9, r5, ror r2
   17d30:	66207325 	strtvs	r7, [r0], -r5, lsr #6
   17d34:	656c6961 	strbvs	r6, [ip, #-2401]!	; 0x961
   17d38:	1b000a64 	blne	1a6d0 <__EH_FRAME_BEGIN__+0x1408>
   17d3c:	6d31335b 	ldcvs	3, cr3, [r1, #-364]!	; 0xfffffe94
   17d40:	6c61685b 	stclvs	8, cr6, [r1], #-364	; 0xfffffe94
   17d44:	74685f6f 	strbtvc	r5, [r8], #-3951	; 0xf6f
   17d48:	1b5d7074 	blne	1773f20 <__bss_end__+0x174a798>
   17d4c:	3a6d305b 	bcc	1b63ec0 <__bss_end__+0x1b3a738>
   17d50:	252c7325 	strcs	r7, [ip, #-805]!	; 0x325
   17d54:	2d2d2d64 	stccs	13, cr2, [sp, #-400]!	; 0xfffffe70
   17d58:	74657320 	strbtvc	r7, [r5], #-800	; 0x320
   17d5c:	736f7020 	cmnvc	pc, #32
   17d60:	79742074 	ldmdbvc	r4!, {r2, r4, r5, r6, sp}^
   17d64:	66206570 			; <UNDEFINED> instruction: 0x66206570
   17d68:	656c6961 	strbvs	r6, [ip, #-2401]!	; 0x961
   17d6c:	43000a64 	movwmi	r0, #2660	; 0xa64
   17d70:	65746e6f 	ldrbvs	r6, [r4, #-3695]!	; 0xe6f
   17d74:	542d746e 	strtpl	r7, [sp], #-1134	; 0x46e
   17d78:	00657079 	rsbeq	r7, r5, r9, ror r0
   17d7c:	6c707061 	ldclvs	0, cr7, [r0], #-388	; 0xfffffe7c
   17d80:	74616369 	strbtvc	r6, [r1], #-873	; 0x369
   17d84:	2f6e6f69 	svccs	0x006e6f69
   17d88:	77772d78 			; <UNDEFINED> instruction: 0x77772d78
   17d8c:	6f662d77 	svcvs	0x00662d77
   17d90:	752d6d72 	strvc	r6, [sp, #-3442]!	; 0xd72
   17d94:	6e656c72 	mcrvs	12, 3, r6, cr5, cr2, {3}
   17d98:	65646f63 	strbvs	r6, [r4, #-3939]!	; 0xf63
   17d9c:	5b1b0064 	blpl	6d7f34 <__bss_end__+0x6ae7ac>
   17da0:	5b6d3133 	blpl	1b64274 <__bss_end__+0x1b3aaec>
   17da4:	6f6c6168 	svcvs	0x006c6168
   17da8:	7474685f 	ldrbtvc	r6, [r4], #-2143	; 0x85f
   17dac:	5b1b5d70 	blpl	6ef374 <__bss_end__+0x6c5bec>
   17db0:	253a6d30 	ldrcs	r6, [sl, #-3376]!	; 0xd30
   17db4:	64252c73 	strtvs	r2, [r5], #-3187	; 0xc73
   17db8:	202d2d2d 	eorcs	r2, sp, sp, lsr #26
   17dbc:	20746573 	rsbscs	r6, r4, r3, ror r5
   17dc0:	79646f62 	stmdbvc	r4!, {r1, r5, r6, r8, r9, sl, fp, sp, lr}^
   17dc4:	69616620 	stmdbvs	r1!, {r5, r9, sl, sp, lr}^
   17dc8:	2164656c 	cmncs	r4, ip, ror #10
   17dcc:	0a73250a 	beq	1ce11fc <__bss_end__+0x1cb7a74>
   17dd0:	335b1b00 	cmpcc	fp, #0, 22
   17dd4:	685b6d31 	ldmdavs	fp, {r0, r4, r5, r8, sl, fp, sp, lr}^
   17dd8:	5f6f6c61 	svcpl	0x006f6c61
   17ddc:	70747468 	rsbsvc	r7, r4, r8, ror #8
   17de0:	305b1b5d 	subscc	r1, fp, sp, asr fp
   17de4:	73253a6d 	teqvc	r5, #446464	; 0x6d000
   17de8:	2d64252c 	cfstr64cs	mvdx2, [r4, #-176]!	; 0xffffff50
   17dec:	70202d2d 	eorvc	r2, r0, sp, lsr #26
   17df0:	61706572 	cmnvs	r0, r2, ror r5
   17df4:	66206572 			; <UNDEFINED> instruction: 0x66206572
   17df8:	656c6961 	strbvs	r6, [ip, #-2401]!	; 0x961
   17dfc:	1b000a64 	blne	1a794 <__EH_FRAME_BEGIN__+0x14cc>
   17e00:	6d31335b 	ldcvs	3, cr3, [r1, #-364]!	; 0xfffffe94
   17e04:	6c61685b 	stclvs	8, cr6, [r1], #-364	; 0xfffffe94
   17e08:	74685f6f 	strbtvc	r5, [r8], #-3951	; 0xf6f
   17e0c:	1b5d7074 	blne	1773fe4 <__bss_end__+0x174a85c>
   17e10:	3a6d305b 	bcc	1b63f84 <__bss_end__+0x1b3a7fc>
   17e14:	252c7325 	strcs	r7, [ip, #-805]!	; 0x325
   17e18:	2d2d2d64 	stccs	13, cr2, [sp, #-400]!	; 0xfffffe70
   17e1c:	736f7020 	cmnvc	pc, #32
   17e20:	61665f74 	smcvs	26100	; 0x65f4
   17e24:	64656c69 	strbtvs	r6, [r5], #-3177	; 0xc69
   17e28:	000a2121 	andeq	r2, sl, r1, lsr #2
   17e2c:	31335b1b 	teqcc	r3, fp, lsl fp
   17e30:	61685b6d 	cmnvs	r8, sp, ror #22
   17e34:	685f6f6c 	ldmdavs	pc, {r2, r3, r5, r6, r8, r9, sl, fp, sp, lr}^	; <UNPREDICTABLE>
   17e38:	5d707474 	cfldrdpl	mvd7, [r0, #-464]!	; 0xfffffe30
   17e3c:	6d305b1b 	fldmdbxvs	r0!, {d5-d17}	;@ Deprecated
   17e40:	2c73253a 	cfldr64cs	mvdx2, [r3], #-232	; 0xffffff18
   17e44:	2d2d6425 	cfstrscs	mvf6, [sp, #-148]!	; 0xffffff6c
   17e48:	7468202d 	strbtvc	r2, [r8], #-45	; 0x2d
   17e4c:	70207074 	eorvc	r7, r0, r4, ror r0
   17e50:	2074736f 	rsbscs	r7, r4, pc, ror #6
   17e54:	6c696166 	stfvse	f6, [r9], #-408	; 0xfffffe68
   17e58:	77206465 	strvc	r6, [r0, -r5, ror #8]!
   17e5c:	20687469 	rsbcs	r7, r8, r9, ror #8
   17e60:	000a6425 	andeq	r6, sl, r5, lsr #8
   17e64:	6c6c616d 	stfvse	f6, [ip], #-436	; 0xfffffe4c
   17e68:	6620636f 	strtvs	r6, [r0], -pc, ror #6
   17e6c:	656c6961 	strbvs	r6, [ip, #-2401]!	; 0x961
   17e70:	6b002064 	blvs	20008 <__EH_FRAME_BEGIN__+0x6d40>
   17e74:	253a7965 	ldrcs	r7, [sl, #-2405]!	; 0x965
   17e78:	73692073 	cmnvc	r9, #115	; 0x73
   17e7c:	6c6c6120 	stfvse	f6, [ip], #-128	; 0xffffff80
   17e80:	64616572 	strbtvs	r6, [r1], #-1394	; 0x572
   17e84:	78652079 	stmdavc	r5!, {r0, r3, r4, r5, r6, sp}^
   17e88:	21747369 	cmncs	r4, r9, ror #6
   17e8c:	6f62000a 	svcvs	0x0062000a
   17e90:	69207964 	stmdbvs	r0!, {r2, r5, r6, r8, fp, ip, sp, lr}
   17e94:	6c692073 	stclvs	0, cr2, [r9], #-460	; 0xfffffe34
   17e98:	6567656c 	strbvs	r6, [r7, #-1388]!	; 0x56c
   17e9c:	50006c61 	andpl	r6, r0, r1, ror #24
   17ea0:	2054534f 	subscs	r5, r4, pc, asr #6
   17ea4:	4e205349 	cdpmi	3, 2, cr5, cr0, cr9, {2}
   17ea8:	5020544f 	eorpl	r5, r0, pc, asr #8
   17eac:	41504552 	cmpmi	r0, r2, asr r5
   17eb0:	21444552 	cmpcs	r4, r2, asr r5
   17eb4:	73252021 	teqvc	r5, #33	; 0x21
   17eb8:	0a732520 	beq	1ce1340 <__bss_end__+0x1cb7bb8>
   17ebc:	69727500 	ldmdbvs	r2!, {r8, sl, ip, sp, lr}^
   17ec0:	2c73253a 	cfldr64cs	mvdx2, [r3], #-232	; 0xffffff18
   17ec4:	79617020 	stmdbvc	r1!, {r5, ip, sp, lr}^
   17ec8:	64616f6c 	strbtvs	r6, [r1], #-3948	; 0xf6c
   17ecc:	2073253a 	rsbscs	r2, r3, sl, lsr r5
   17ed0:	20657261 	rsbcs	r7, r5, r1, ror #4
   17ed4:	206c6c61 	rsbcs	r6, ip, r1, ror #24
   17ed8:	656d6173 	strbvs	r6, [sp, #-371]!	; 0x173
   17edc:	1b000a21 	blne	1a768 <__EH_FRAME_BEGIN__+0x14a0>
   17ee0:	6d31335b 	ldcvs	3, cr3, [r1, #-364]!	; 0xfffffe94
   17ee4:	6c61685b 	stclvs	8, cr6, [r1], #-364	; 0xfffffe94
   17ee8:	74685f6f 	strbtvc	r5, [r8], #-3951	; 0xf6f
   17eec:	1b5d7074 	blne	17740c4 <__bss_end__+0x174a93c>
   17ef0:	3a6d305b 	bcc	1b64064 <__bss_end__+0x1b3a8dc>
   17ef4:	252c7325 	strcs	r7, [ip, #-805]!	; 0x325
   17ef8:	2d2d2d64 	stccs	13, cr2, [sp, #-400]!	; 0xfffffe70
   17efc:	64646120 	strbtvs	r6, [r4], #-288	; 0x120
   17f00:	6f697469 	svcvs	0x00697469
   17f04:	7369206e 	cmnvc	r9, #110	; 0x6e
   17f08:	6c6c6920 	stclvs	9, cr6, [ip], #-128	; 0xffffff80
   17f0c:	6c616765 	stclvs	7, cr6, [r1], #-404	; 0xfffffe6c
   17f10:	5b1b000a 	blpl	6d7f40 <__bss_end__+0x6ae7b8>
   17f14:	5b6d3133 	blpl	1b643e8 <__bss_end__+0x1b3ac60>
   17f18:	6f6c6168 	svcvs	0x006c6168
   17f1c:	7474685f 	ldrbtvc	r6, [r4], #-2143	; 0x85f
   17f20:	5b1b5d70 	blpl	6ef4e8 <__bss_end__+0x6c5d60>
   17f24:	253a6d30 	ldrcs	r6, [sl, #-3376]!	; 0xd30
   17f28:	64252c73 	strtvs	r2, [r5], #-3187	; 0xc73
   17f2c:	202d2d2d 	eorcs	r2, sp, sp, lsr #26
   17f30:	20646461 	rsbcs	r6, r4, r1, ror #8
   17f34:	7473696c 	ldrbtvc	r6, [r3], #-2412	; 0x96c
   17f38:	6e796420 	cdpvs	4, 7, cr6, cr9, cr0, {1}
   17f3c:	63696d61 	cmnvs	r9, #6208	; 0x1840
   17f40:	000a796c 	andeq	r7, sl, ip, ror #18
   17f44:	6f727265 	svcvs	0x00727265
   17f48:	5b1b0072 	blpl	6d8118 <__bss_end__+0x6ae990>
   17f4c:	5b6d3133 	blpl	1b64420 <__bss_end__+0x1b3ac98>
   17f50:	6f6c6168 	svcvs	0x006c6168
   17f54:	7474685f 	ldrbtvc	r6, [r4], #-2143	; 0x85f
   17f58:	5b1b5d70 	blpl	6ef520 <__bss_end__+0x6c5d98>
   17f5c:	253a6d30 	ldrcs	r6, [sl, #-3376]!	; 0xd30
   17f60:	64252c73 	strtvs	r2, [r5], #-3187	; 0xc73
   17f64:	202d2d2d 	eorcs	r2, sp, sp, lsr #26
   17f68:	70747468 	rsbsvc	r7, r4, r8, ror #8
   17f6c:	6e616820 	cdpvs	8, 6, cr6, cr1, cr0, {1}
   17f70:	20656c64 	rsbcs	r6, r5, r4, ror #24
   17f74:	6c6c616d 	stfvse	f6, [ip], #-436	; 0xfffffe4c
   17f78:	6620636f 	strtvs	r6, [r0], -pc, ror #6
   17f7c:	656c6961 	strbvs	r6, [ip, #-2401]!	; 0x961
   17f80:	1b000a64 	blne	1a918 <__EH_FRAME_BEGIN__+0x1650>
   17f84:	6d31335b 	ldcvs	3, cr3, [r1, #-364]!	; 0xfffffe94
   17f88:	6c61685b 	stclvs	8, cr6, [r1], #-364	; 0xfffffe94
   17f8c:	74685f6f 	strbtvc	r5, [r8], #-3951	; 0xf6f
   17f90:	1b5d7074 	blne	1774168 <__bss_end__+0x174a9e0>
   17f94:	3a6d305b 	bcc	1b64108 <__bss_end__+0x1b3a980>
   17f98:	252c7325 	strcs	r7, [ip, #-805]!	; 0x325
   17f9c:	2d2d2d64 	stccs	13, cr2, [sp, #-400]!	; 0xfffffe70
   17fa0:	69656420 	stmdbvs	r5!, {r5, sl, sp, lr}^
   17fa4:	2074696e 	rsbscs	r6, r4, lr, ror #18
   17fa8:	70747468 	rsbsvc	r7, r4, r8, ror #8
   17fac:	5b1b000a 	blpl	6d7fdc <__bss_end__+0x6ae854>
   17fb0:	5b6d3133 	blpl	1b64484 <__bss_end__+0x1b3acfc>
   17fb4:	6f6c6168 	svcvs	0x006c6168
   17fb8:	7474685f 	ldrbtvc	r6, [r4], #-2143	; 0x85f
   17fbc:	5b1b5d70 	blpl	6ef584 <__bss_end__+0x6c5dfc>
   17fc0:	253a6d30 	ldrcs	r6, [sl, #-3376]!	; 0xd30
   17fc4:	64252c73 	strtvs	r2, [r5], #-3187	; 0xc73
   17fc8:	202d2d2d 	eorcs	r2, sp, sp, lsr #26
   17fcc:	65657266 	strbvs	r7, [r5, #-614]!	; 0x266
   17fd0:	69727520 	ldmdbvs	r2!, {r5, r8, sl, ip, sp, lr}^
   17fd4:	0a732520 	beq	1ce145c <__bss_end__+0x1cb7cd4>
   17fd8:	335b1b00 	cmpcc	fp, #0, 22
   17fdc:	685b6d31 	ldmdavs	fp, {r0, r4, r5, r8, sl, fp, sp, lr}^
   17fe0:	5f6f6c61 	svcpl	0x006f6c61
   17fe4:	70747468 	rsbsvc	r7, r4, r8, ror #8
   17fe8:	305b1b5d 	subscc	r1, fp, sp, asr fp
   17fec:	73253a6d 	teqvc	r5, #446464	; 0x6d000
   17ff0:	2d64252c 	cfstr64cs	mvdx2, [r4, #-176]!	; 0xffffff50
   17ff4:	68202d2d 	stmdavs	r0!, {r0, r2, r3, r5, r8, sl, fp, sp}
   17ff8:	73646165 	cmnvc	r4, #1073741849	; 0x40000019
   17ffc:	20736920 	rsbscs	r6, r3, r0, lsr #18
   18000:	20746f6e 	rsbscs	r6, r4, lr, ror #30
   18004:	6c6c756e 	cfstr64vs	mvdx7, [ip], #-440	; 0xfffffe48
   18008:	5b1b000a 	blpl	6d8038 <__bss_end__+0x6ae8b0>
   1800c:	5b6d3133 	blpl	1b644e0 <__bss_end__+0x1b3ad58>
   18010:	6f6c6168 	svcvs	0x006c6168
   18014:	7474685f 	ldrbtvc	r6, [r4], #-2143	; 0x85f
   18018:	5b1b5d70 	blpl	6ef5e0 <__bss_end__+0x6c5e58>
   1801c:	253a6d30 	ldrcs	r6, [sl, #-3376]!	; 0xd30
   18020:	64252c73 	strtvs	r2, [r5], #-3187	; 0xc73
   18024:	202d2d2d 	eorcs	r2, sp, sp, lsr #26
   18028:	6c656409 	cfstrdvs	mvd6, [r5], #-36	; 0xffffffdc
   1802c:	61656820 	cmnvs	r5, r0, lsr #16
   18030:	6f6e2064 	svcvs	0x006e2064
   18034:	6f206564 	svcvs	0x00206564
   18038:	1b000a6b 	blne	1a9ec <__EH_FRAME_BEGIN__+0x1724>
   1803c:	6d31335b 	ldcvs	3, cr3, [r1, #-364]!	; 0xfffffe94
   18040:	6c61685b 	stclvs	8, cr6, [r1], #-364	; 0xfffffe94
   18044:	74685f6f 	strbtvc	r5, [r8], #-3951	; 0xf6f
   18048:	1b5d7074 	blne	1774220 <__bss_end__+0x174aa98>
   1804c:	3a6d305b 	bcc	1b641c0 <__bss_end__+0x1b3aa38>
   18050:	252c7325 	strcs	r7, [ip, #-805]!	; 0x325
   18054:	2d2d2d64 	stccs	13, cr2, [sp, #-400]!	; 0xfffffe70
   18058:	6c656420 	cfstrdvs	mvd6, [r5], #-128	; 0xffffff80
   1805c:	736f7020 	cmnvc	pc, #32
   18060:	6f6e2074 	svcvs	0x006e2074
   18064:	73206564 	teqvc	r0, #100, 10	; 0x19000000
   18068:	65636375 	strbvs	r6, [r3, #-885]!	; 0x375
   1806c:	000a7373 	andeq	r7, sl, r3, ror r3
   18070:	31335b1b 	teqcc	r3, fp, lsl fp
   18074:	61685b6d 	cmnvs	r8, sp, ror #22
   18078:	685f6f6c 	ldmdavs	pc, {r2, r3, r5, r6, r8, r9, sl, fp, sp, lr}^	; <UNPREDICTABLE>
   1807c:	5d707474 	cfldrdpl	mvd7, [r0, #-464]!	; 0xfffffe30
   18080:	6d305b1b 	fldmdbxvs	r0!, {d5-d17}	;@ Deprecated
   18084:	2c73253a 	cfldr64cs	mvdx2, [r3], #-232	; 0xffffff18
   18088:	2d2d6425 	cfstrscs	mvf6, [sp, #-148]!	; 0xffffff6c
   1808c:	6564202d 	strbvs	r2, [r4, #-45]!	; 0x2d
   18090:	74696e69 	strbtvc	r6, [r9], #-3689	; 0xe69
   18094:	63757320 	cmnvs	r5, #32, 6	; 0x80000000
   18098:	73736563 	cmnvc	r3, #415236096	; 0x18c00000
   1809c:	5b1b000a 	blpl	6d80cc <__bss_end__+0x6ae944>
   180a0:	5b6d3133 	blpl	1b64574 <__bss_end__+0x1b3adec>
   180a4:	6f6c6168 	svcvs	0x006c6168
   180a8:	6d6f635f 	stclvs	3, cr6, [pc, #-380]!	; 17f34 <_fini+0x3d0>
   180ac:	5d6e6f6d 	stclpl	15, cr6, [lr, #-436]!	; 0xfffffe4c
   180b0:	6d305b1b 	fldmdbxvs	r0!, {d5-d17}	;@ Deprecated
   180b4:	2c73253a 	cfldr64cs	mvdx2, [r3], #-232	; 0xffffff18
   180b8:	2d2d6425 	cfstrscs	mvf6, [sp, #-148]!	; 0xffffff6c
   180bc:	6f63202d 	svcvs	0x0063202d
   180c0:	6e6f6d6d 	cdpvs	13, 6, cr6, cr15, cr13, {3}
   180c4:	6e616820 	cdpvs	8, 6, cr6, cr1, cr0, {1}
   180c8:	20656c64 	rsbcs	r6, r5, r4, ror #24
   180cc:	6465656e 	strbtvs	r6, [r5], #-1390	; 0x56e
   180d0:	206f7420 	rsbcs	r7, pc, r0, lsr #8
   180d4:	74696e69 	strbtvc	r6, [r9], #-3689	; 0xe69
   180d8:	6f63000a 	svcvs	0x0063000a
   180dc:	6e6f6d6d 	cdpvs	13, 6, cr6, cr15, cr13, {3}
   180e0:	1b00632e 	blne	30da0 <__bss_end__+0x7618>
   180e4:	6d31335b 	ldcvs	3, cr3, [r1, #-364]!	; 0xfffffe94
   180e8:	6c61685b 	stclvs	8, cr6, [r1], #-364	; 0xfffffe94
   180ec:	6f635f6f 	svcvs	0x00635f6f
   180f0:	6e6f6d6d 	cdpvs	13, 6, cr6, cr15, cr13, {3}
   180f4:	305b1b5d 	subscc	r1, fp, sp, asr fp
   180f8:	73253a6d 	teqvc	r5, #446464	; 0x6d000
   180fc:	2d64252c 	cfstr64cs	mvdx2, [r4, #-176]!	; 0xffffff50
   18100:	4d202d2d 	stcmi	13, cr2, [r0, #-180]!	; 0xffffff4c
   18104:	4f4c4c41 	svcmi	0x004c4c41
   18108:	52452043 	subpl	r2, r5, #67	; 0x43
   1810c:	0a524f52 	beq	14abe5c <__bss_end__+0x14826d4>
   18110:	335b1b00 	cmpcc	fp, #0, 22
   18114:	685b6d31 	ldmdavs	fp, {r0, r4, r5, r8, sl, fp, sp, lr}^
   18118:	5f6f6c61 	svcpl	0x006f6c61
   1811c:	6d6d6f63 	stclvs	15, cr6, [sp, #-396]!	; 0xfffffe74
   18120:	1b5d6e6f 	blne	1773ae4 <__bss_end__+0x174a35c>
   18124:	3a6d305b 	bcc	1b64298 <__bss_end__+0x1b3ab10>
   18128:	252c7325 	strcs	r7, [ip, #-805]!	; 0x325
   1812c:	2d2d2d64 	stccs	13, cr2, [sp, #-400]!	; 0xfffffe70
   18130:	6c616320 	stclvs	3, cr6, [r1], #-128	; 0xffffff80
   18134:	6361626c 	cmnvs	r1, #108, 4	; 0xc0000006
   18138:	7369206b 	cmnvc	r9, #107	; 0x6b
   1813c:	6c756e20 	ldclvs	14, cr6, [r5], #-128	; 0xffffff80
   18140:	1b000a6c 	blne	1aaf8 <__EH_FRAME_BEGIN__+0x1830>
   18144:	6d31335b 	ldcvs	3, cr3, [r1, #-364]!	; 0xfffffe94
   18148:	6c61685b 	stclvs	8, cr6, [r1], #-364	; 0xfffffe94
   1814c:	6f635f6f 	svcvs	0x00635f6f
   18150:	6e6f6d6d 	cdpvs	13, 6, cr6, cr15, cr13, {3}
   18154:	305b1b5d 	subscc	r1, fp, sp, asr fp
   18158:	73253a6d 	teqvc	r5, #446464	; 0x6d000
   1815c:	2d64252c 	cfstr64cs	mvdx2, [r4, #-176]!	; 0xffffff50
   18160:	74202d2d 	strtvc	r2, [r0], #-3373	; 0xd2d
   18164:	20736968 	rsbscs	r6, r3, r8, ror #18
   18168:	6c6c6163 	stfvse	f6, [ip], #-396	; 0xfffffe74
   1816c:	6b636162 	blvs	18f06fc <__bss_end__+0x18c6f74>
   18170:	726c6120 	rsbvc	r6, ip, #32, 2
   18174:	79646165 	stmdbvc	r4!, {r0, r2, r5, r6, r8, sp, lr}^
   18178:	736e6920 	cmnvc	lr, #32, 18	; 0x80000
   1817c:	21656469 	cmncs	r5, r9, ror #8
   18180:	5b1b000a 	blpl	6d81b0 <__bss_end__+0x6aea28>
   18184:	5b6d3133 	blpl	1b64658 <__bss_end__+0x1b3aed0>
   18188:	6f6c6168 	svcvs	0x006c6168
   1818c:	6d6f635f 	stclvs	3, cr6, [pc, #-380]!	; 18018 <_fini+0x4b4>
   18190:	5d6e6f6d 	stclpl	15, cr6, [lr, #-436]!	; 0xfffffe4c
   18194:	6d305b1b 	fldmdbxvs	r0!, {d5-d17}	;@ Deprecated
   18198:	2c73253a 	cfldr64cs	mvdx2, [r3], #-232	; 0xffffff18
   1819c:	2d2d6425 	cfstrscs	mvf6, [sp, #-148]!	; 0xffffff6c
   181a0:	6f63202d 	svcvs	0x0063202d
   181a4:	6e6f6d6d 	cdpvs	13, 6, cr6, cr15, cr13, {3}
   181a8:	6e616820 	cdpvs	8, 6, cr6, cr1, cr0, {1}
   181ac:	20656c64 	rsbcs	r6, r5, r4, ror #24
   181b0:	6465656e 	strbtvs	r6, [r5], #-1390	; 0x56e
   181b4:	206f7420 	rsbcs	r7, pc, r0, lsr #8
   181b8:	74696e69 	strbtvc	r6, [r9], #-3689	; 0xe69
   181bc:	1b000a21 	blne	1aa48 <__EH_FRAME_BEGIN__+0x1780>
   181c0:	6d31335b 	ldcvs	3, cr3, [r1, #-364]!	; 0xfffffe94
   181c4:	6c61685b 	stclvs	8, cr6, [r1], #-364	; 0xfffffe94
   181c8:	6f635f6f 	svcvs	0x00635f6f
   181cc:	6e6f6d6d 	cdpvs	13, 6, cr6, cr15, cr13, {3}
   181d0:	305b1b5d 	subscc	r1, fp, sp, asr fp
   181d4:	73253a6d 	teqvc	r5, #446464	; 0x6d000
   181d8:	2d64252c 	cfstr64cs	mvdx2, [r4, #-176]!	; 0xffffff50
   181dc:	6d202d2d 	stcvs	13, cr2, [r0, #-180]!	; 0xffffff4c
   181e0:	6f6c6c61 	svcvs	0x006c6c61
   181e4:	72652063 	rsbvc	r2, r5, #99	; 0x63
   181e8:	1b000a72 	blne	1abb8 <__EH_FRAME_BEGIN__+0x18f0>
   181ec:	6d31335b 	ldcvs	3, cr3, [r1, #-364]!	; 0xfffffe94
   181f0:	6c61685b 	stclvs	8, cr6, [r1], #-364	; 0xfffffe94
   181f4:	6f635f6f 	svcvs	0x00635f6f
   181f8:	6e6f6d6d 	cdpvs	13, 6, cr6, cr15, cr13, {3}
   181fc:	305b1b5d 	subscc	r1, fp, sp, asr fp
   18200:	73253a6d 	teqvc	r5, #446464	; 0x6d000
   18204:	2d64252c 	cfstr64cs	mvdx2, [r4, #-176]!	; 0xffffff50
   18208:	73202d2d 	teqvc	r0, #2880	; 0xb40
   1820c:	20646e65 	rsbcs	r6, r4, r5, ror #28
   18210:	69207369 	stmdbvs	r0!, {r0, r3, r5, r6, r8, r9, ip, sp, lr}
   18214:	67656c6c 	strbvs	r6, [r5, -ip, ror #24]!
   18218:	000a6c61 	andeq	r6, sl, r1, ror #24
   1821c:	31335b1b 	teqcc	r3, fp, lsl fp
   18220:	61685b6d 	cmnvs	r8, sp, ror #22
   18224:	635f6f6c 	cmpvs	pc, #108, 30	; 0x1b0
   18228:	6f6d6d6f 	svcvs	0x006d6d6f
   1822c:	5b1b5d6e 	blpl	6ef7ec <__bss_end__+0x6c6064>
   18230:	253a6d30 	ldrcs	r6, [sl, #-3376]!	; 0xd30
   18234:	64252c73 	strtvs	r2, [r5], #-3187	; 0xc73
   18238:	202d2d2d 	eorcs	r2, sp, sp, lsr #26
   1823c:	203a6466 	eorscs	r6, sl, r6, ror #8
   18240:	69206425 	stmdbvs	r0!, {r0, r2, r5, sl, sp, lr}
   18244:	78652073 	stmdavc	r5!, {r0, r1, r4, r5, r6, sp}^
   18248:	64657469 	strbtvs	r7, [r5], #-1129	; 0x469
   1824c:	1b000a0a 	blne	1aa7c <__EH_FRAME_BEGIN__+0x17b4>
   18250:	6d31335b 	ldcvs	3, cr3, [r1, #-364]!	; 0xfffffe94
   18254:	6c61685b 	stclvs	8, cr6, [r1], #-364	; 0xfffffe94
   18258:	6f635f6f 	svcvs	0x00635f6f
   1825c:	6e6f6d6d 	cdpvs	13, 6, cr6, cr15, cr13, {3}
   18260:	305b1b5d 	subscc	r1, fp, sp, asr fp
   18264:	73253a6d 	teqvc	r5, #446464	; 0x6d000
   18268:	2d64252c 	cfstr64cs	mvdx2, [r4, #-176]!	; 0xffffff50
   1826c:	74202d2d 	strtvc	r2, [r0], #-3373	; 0xd2d
   18270:	65677261 	strbvs	r7, [r7, #-609]!	; 0x261
   18274:	6f6c2074 	svcvs	0x006c2074
   18278:	6920706f 	stmdbvs	r0!, {r0, r1, r2, r3, r5, r6, ip, sp, lr}
   1827c:	756e2073 	strbvc	r2, [lr, #-115]!	; 0x73
   18280:	0a216c6c 	beq	873438 <__bss_end__+0x849cb0>
   18284:	335b1b00 	cmpcc	fp, #0, 22
   18288:	685b6d31 	ldmdavs	fp, {r0, r4, r5, r8, sl, fp, sp, lr}^
   1828c:	5f6f6c61 	svcpl	0x006f6c61
   18290:	6d6d6f63 	stclvs	15, cr6, [sp, #-396]!	; 0xfffffe74
   18294:	1b5d6e6f 	blne	1773c58 <__bss_end__+0x174a4d0>
   18298:	3a6d305b 	bcc	1b6440c <__bss_end__+0x1b3ac84>
   1829c:	252c7325 	strcs	r7, [ip, #-805]!	; 0x325
   182a0:	2d2d2d64 	stccs	13, cr2, [sp, #-400]!	; 0xfffffe70
   182a4:	61747320 	cmnvs	r4, r0, lsr #6
   182a8:	74207472 	strtvc	r7, [r0], #-1138	; 0x472
   182ac:	6564206f 	strbvs	r2, [r4, #-111]!	; 0x6f
   182b0:	6f6c206c 	svcvs	0x006c206c
   182b4:	000a706f 	andeq	r7, sl, pc, rrx
   182b8:	31335b1b 	teqcc	r3, fp, lsl fp
   182bc:	61685b6d 	cmnvs	r8, sp, ror #22
   182c0:	635f6f6c 	cmpvs	pc, #108, 30	; 0x1b0
   182c4:	6f6d6d6f 	svcvs	0x006d6d6f
   182c8:	5b1b5d6e 	blpl	6ef888 <__bss_end__+0x6c6100>
   182cc:	253a6d30 	ldrcs	r6, [sl, #-3376]!	; 0xd30
   182d0:	64252c73 	strtvs	r2, [r5], #-3187	; 0xc73
   182d4:	202d2d2d 	eorcs	r2, sp, sp, lsr #26
   182d8:	65657266 	strbvs	r7, [r5, #-614]!	; 0x266
   182dc:	0a6b6f20 	beq	1af3f64 <__bss_end__+0x1aca7dc>
   182e0:	335b1b00 	cmpcc	fp, #0, 22
   182e4:	685b6d31 	ldmdavs	fp, {r0, r4, r5, r8, sl, fp, sp, lr}^
   182e8:	5f6f6c61 	svcpl	0x006f6c61
   182ec:	6d6d6f63 	stclvs	15, cr6, [sp, #-396]!	; 0xfffffe74
   182f0:	1b5d6e6f 	blne	1773cb4 <__bss_end__+0x174a52c>
   182f4:	3a6d305b 	bcc	1b64468 <__bss_end__+0x1b3ace0>
   182f8:	252c7325 	strcs	r7, [ip, #-805]!	; 0x325
   182fc:	2d2d2d64 	stccs	13, cr2, [sp, #-400]!	; 0xfffffe70
   18300:	73696c20 	cmnvc	r9, #32, 24	; 0x2000
   18304:	65642074 	strbvs	r2, [r4, #-116]!	; 0x74
   18308:	6b6f206c 	blvs	1be04c0 <__bss_end__+0x1bb6d38>
   1830c:	5b1b000a 	blpl	6d833c <__bss_end__+0x6aebb4>
   18310:	5b6d3133 	blpl	1b647e4 <__bss_end__+0x1b3b05c>
   18314:	6f6c6168 	svcvs	0x006c6168
   18318:	6d6f635f 	stclvs	3, cr6, [pc, #-380]!	; 181a4 <_fini+0x640>
   1831c:	5d6e6f6d 	stclpl	15, cr6, [lr, #-436]!	; 0xfffffe4c
   18320:	6d305b1b 	fldmdbxvs	r0!, {d5-d17}	;@ Deprecated
   18324:	2c73253a 	cfldr64cs	mvdx2, [r3], #-232	; 0xffffff18
   18328:	2d2d6425 	cfstrscs	mvf6, [sp, #-148]!	; 0xffffff6c
   1832c:	6f6c202d 	svcvs	0x006c202d
   18330:	6920706f 	stmdbvs	r0!, {r0, r1, r2, r3, r5, r6, ip, sp, lr}
   18334:	6c692073 	stclvs	0, cr2, [r9], #-460	; 0xfffffe34
   18338:	6167656c 	cmnvs	r7, ip, ror #10
   1833c:	000a216c 	andeq	r2, sl, ip, ror #2
   18340:	31335b1b 	teqcc	r3, fp, lsl fp
   18344:	61685b6d 	cmnvs	r8, sp, ror #22
   18348:	635f6f6c 	cmpvs	pc, #108, 30	; 0x1b0
   1834c:	6f6d6d6f 	svcvs	0x006d6d6f
   18350:	5b1b5d6e 	blpl	6ef910 <__bss_end__+0x6c6188>
   18354:	253a6d30 	ldrcs	r6, [sl, #-3376]!	; 0xd30
   18358:	64252c73 	strtvs	r2, [r5], #-3187	; 0xc73
   1835c:	202d2d2d 	eorcs	r2, sp, sp, lsr #26
   18360:	25206466 	strcs	r6, [r0, #-1126]!	; 0x466
   18364:	73692064 	cmnvc	r9, #100	; 0x64
   18368:	69786520 	ldmdbvs	r8!, {r5, r8, sl, sp, lr}^
   1836c:	0a646574 	beq	1931944 <__bss_end__+0x19081bc>
   18370:	5b1b000a 	blpl	6d83a0 <__bss_end__+0x6aec18>
   18374:	5b6d3133 	blpl	1b64848 <__bss_end__+0x1b3b0c0>
   18378:	6f6c6168 	svcvs	0x006c6168
   1837c:	6d6f635f 	stclvs	3, cr6, [pc, #-380]!	; 18208 <_fini+0x6a4>
   18380:	5d6e6f6d 	stclpl	15, cr6, [lr, #-436]!	; 0xfffffe4c
   18384:	6d305b1b 	fldmdbxvs	r0!, {d5-d17}	;@ Deprecated
   18388:	2c73253a 	cfldr64cs	mvdx2, [r3], #-232	; 0xffffff18
   1838c:	2d2d6425 	cfstrscs	mvf6, [sp, #-148]!	; 0xffffff6c
   18390:	6572202d 	ldrbvs	r2, [r2, #-45]!	; 0x2d
   18394:	66207663 	strtvs	r7, [r0], -r3, ror #12
   18398:	64253a64 	strtvs	r3, [r5], #-2660	; 0xa64
   1839c:	203e2d20 	eorscs	r2, lr, r0, lsr #26
   183a0:	736f6c63 	cmnvc	pc, #25344	; 0x6300
   183a4:	26262065 	strtcs	r2, [r6], -r5, rrx
   183a8:	6c656420 	cfstrdvs	mvd6, [r5], #-128	; 0xffffff80
   183ac:	0a657465 	beq	1975548 <__bss_end__+0x194bdc0>
   183b0:	335b1b00 	cmpcc	fp, #0, 22
   183b4:	685b6d31 	ldmdavs	fp, {r0, r4, r5, r8, sl, fp, sp, lr}^
   183b8:	5f6f6c61 	svcpl	0x006f6c61
   183bc:	6d6d6f63 	stclvs	15, cr6, [sp, #-396]!	; 0xfffffe74
   183c0:	1b5d6e6f 	blne	1773d84 <__bss_end__+0x174a5fc>
   183c4:	3a6d305b 	bcc	1b64538 <__bss_end__+0x1b3adb0>
   183c8:	252c7325 	strcs	r7, [ip, #-805]!	; 0x325
   183cc:	2d2d2d64 	stccs	13, cr2, [sp, #-400]!	; 0xfffffe70
   183d0:	6e657320 	cdpvs	3, 6, cr7, cr5, cr0, {1}
   183d4:	64662064 	strbtvs	r2, [r6], #-100	; 0x64
   183d8:	2064253a 	rsbcs	r2, r4, sl, lsr r5
   183dc:	65643e2d 	strbvs	r3, [r4, #-3629]!	; 0xe2d
   183e0:	1b000a6c 	blne	1ad98 <__EH_FRAME_BEGIN__+0x1ad0>
   183e4:	6d31335b 	ldcvs	3, cr3, [r1, #-364]!	; 0xfffffe94
   183e8:	6c61685b 	stclvs	8, cr6, [r1], #-364	; 0xfffffe94
   183ec:	6f635f6f 	svcvs	0x00635f6f
   183f0:	6e6f6d6d 	cdpvs	13, 6, cr6, cr15, cr13, {3}
   183f4:	305b1b5d 	subscc	r1, fp, sp, asr fp
   183f8:	73253a6d 	teqvc	r5, #446464	; 0x6d000
   183fc:	2d64252c 	cfstr64cs	mvdx2, [r4, #-176]!	; 0xffffff50
   18400:	43202d2d 	teqmi	r0, #2880	; 0xb40
   18404:	4f4d4d4f 	svcmi	0x004d4d4f
   18408:	4148204e 	cmpmi	r8, lr, asr #32
   1840c:	454c444e 	strbmi	r4, [ip, #-1102]	; 0x44e
   18410:	45454e20 	strbmi	r4, [r5, #-3616]	; 0xe20
   18414:	4f542044 	svcmi	0x00542044
   18418:	494e4920 	stmdbmi	lr, {r5, r8, fp, lr}^
   1841c:	000a2154 	andeq	r2, sl, r4, asr r1
   18420:	31335b1b 	teqcc	r3, fp, lsl fp
   18424:	61685b6d 	cmnvs	r8, sp, ror #22
   18428:	635f6f6c 	cmpvs	pc, #108, 30	; 0x1b0
   1842c:	6f6d6d6f 	svcvs	0x006d6d6f
   18430:	5b1b5d6e 	blpl	6ef9f0 <__bss_end__+0x6c6268>
   18434:	253a6d30 	ldrcs	r6, [sl, #-3376]!	; 0xd30
   18438:	64252c73 	strtvs	r2, [r5], #-3187	; 0xc73
   1843c:	202d2d2d 	eorcs	r2, sp, sp, lsr #26
   18440:	67726174 			; <UNDEFINED> instruction: 0x67726174
   18444:	6c207465 	cfstrsvs	mvf7, [r0], #-404	; 0xfffffe6c
   18448:	20706f6f 	rsbscs	r6, r0, pc, ror #30
   1844c:	6e6e6163 	powvsez	f6, f6, f3
   18450:	6620746f 	strtvs	r7, [r0], -pc, ror #8
   18454:	0a646e69 	beq	1933e00 <__bss_end__+0x190a678>
   18458:	335b1b00 	cmpcc	fp, #0, 22
   1845c:	685b6d31 	ldmdavs	fp, {r0, r4, r5, r8, sl, fp, sp, lr}^
   18460:	5f6f6c61 	svcpl	0x006f6c61
   18464:	6d6d6f63 	stclvs	15, cr6, [sp, #-396]!	; 0xfffffe74
   18468:	1b5d6e6f 	blne	1773e2c <__bss_end__+0x174a6a4>
   1846c:	3a6d305b 	bcc	1b645e0 <__bss_end__+0x1b3ae58>
   18470:	252c7325 	strcs	r7, [ip, #-805]!	; 0x325
   18474:	2d2d2d64 	stccs	13, cr2, [sp, #-400]!	; 0xfffffe70
   18478:	6c656420 	cfstrdvs	mvd6, [r5], #-128	; 0xffffff80
   1847c:	0a642520 	beq	1921904 <__bss_end__+0x18f817c>
   18480:	335b1b00 	cmpcc	fp, #0, 22
   18484:	685b6d31 	ldmdavs	fp, {r0, r4, r5, r8, sl, fp, sp, lr}^
   18488:	5f6f6c61 	svcpl	0x006f6c61
   1848c:	6d6d6f63 	stclvs	15, cr6, [sp, #-396]!	; 0xfffffe74
   18490:	1b5d6e6f 	blne	1773e54 <__bss_end__+0x174a6cc>
   18494:	3a6d305b 	bcc	1b64608 <__bss_end__+0x1b3ae80>
   18498:	252c7325 	strcs	r7, [ip, #-805]!	; 0x325
   1849c:	2d2d2d64 	stccs	13, cr2, [sp, #-400]!	; 0xfffffe70
   184a0:	20642520 	rsbcs	r2, r4, r0, lsr #10
   184a4:	20544547 	subscs	r4, r4, r7, asr #10
   184a8:	20444d43 	subcs	r4, r4, r3, asr #26
   184ac:	000a6425 	andeq	r6, sl, r5, lsr #8
   184b0:	31335b1b 	teqcc	r3, fp, lsl fp
   184b4:	61685b6d 	cmnvs	r8, sp, ror #22
   184b8:	635f6f6c 	cmpvs	pc, #108, 30	; 0x1b0
   184bc:	6f6d6d6f 	svcvs	0x006d6d6f
   184c0:	5b1b5d6e 	blpl	6efa80 <__bss_end__+0x6c62f8>
   184c4:	253a6d30 	ldrcs	r6, [sl, #-3376]!	; 0xd30
   184c8:	64252c73 	strtvs	r2, [r5], #-3187	; 0xc73
   184cc:	202d2d2d 	eorcs	r2, sp, sp, lsr #26
   184d0:	20727265 	rsbscs	r7, r2, r5, ror #4
   184d4:	000a6425 	andeq	r6, sl, r5, lsr #8
   184d8:	31335b1b 	teqcc	r3, fp, lsl fp
   184dc:	61685b6d 	cmnvs	r8, sp, ror #22
   184e0:	635f6f6c 	cmpvs	pc, #108, 30	; 0x1b0
   184e4:	6f6d6d6f 	svcvs	0x006d6d6f
   184e8:	5b1b5d6e 	blpl	6efaa8 <__bss_end__+0x6c6320>
   184ec:	253a6d30 	ldrcs	r6, [sl, #-3376]!	; 0xd30
   184f0:	64252c73 	strtvs	r2, [r5], #-3187	; 0xc73
   184f4:	202d2d2d 	eorcs	r2, sp, sp, lsr #26
   184f8:	646e6168 	strbtvs	r6, [lr], #-360	; 0x168
   184fc:	6920656c 	stmdbvs	r0!, {r2, r3, r5, r6, r8, sl, sp, lr}
   18500:	756e2073 	strbvc	r2, [lr, #-115]!	; 0x73
   18504:	6f206c6c 	svcvs	0x00206c6c
   18508:	65732072 	ldrbvs	r2, [r3, #-114]!	; 0x72
   1850c:	6c20646e 	cfstrsvs	mvf6, [r0], #-440	; 0xfffffe48
   18510:	20747369 	rsbscs	r7, r4, r9, ror #6
   18514:	6e207369 	cdpvs	3, 2, cr7, cr0, cr9, {3}
   18518:	0a6c6c75 	beq	1b336f4 <__bss_end__+0x1b09f6c>
   1851c:	335b1b00 	cmpcc	fp, #0, 22
   18520:	685b6d31 	ldmdavs	fp, {r0, r4, r5, r8, sl, fp, sp, lr}^
   18524:	5f6f6c61 	svcpl	0x006f6c61
   18528:	6d6d6f63 	stclvs	15, cr6, [sp, #-396]!	; 0xfffffe74
   1852c:	1b5d6e6f 	blne	1773ef0 <__bss_end__+0x174a768>
   18530:	3a6d305b 	bcc	1b646a4 <__bss_end__+0x1b3af1c>
   18534:	252c7325 	strcs	r7, [ip, #-805]!	; 0x325
   18538:	2d2d2d64 	stccs	13, cr2, [sp, #-400]!	; 0xfffffe70
   1853c:	646d6320 	strbtvs	r6, [sp], #-800	; 0x320
   18540:	74656720 	strbtvc	r6, [r5], #-1824	; 0x720
   18544:	6425203a 	strtvs	r2, [r5], #-58	; 0x3a
   18548:	5b1b000a 	blpl	6d8578 <__bss_end__+0x6aedf0>
   1854c:	5b6d3133 	blpl	1b64a20 <__bss_end__+0x1b3b298>
   18550:	6f6c6168 	svcvs	0x006c6168
   18554:	6d6f635f 	stclvs	3, cr6, [pc, #-380]!	; 183e0 <_fini+0x87c>
   18558:	5d6e6f6d 	stclpl	15, cr6, [lr, #-436]!	; 0xfffffe4c
   1855c:	6d305b1b 	fldmdbxvs	r0!, {d5-d17}	;@ Deprecated
   18560:	2c73253a 	cfldr64cs	mvdx2, [r3], #-232	; 0xffffff18
   18564:	2d2d6425 	cfstrscs	mvf6, [sp, #-148]!	; 0xffffff6c
   18568:	6970202d 	ldmdbvs	r0!, {r0, r2, r3, r5, sp}^
   1856c:	69206570 	stmdbvs	r0!, {r4, r5, r6, r8, sl, sp, lr}
   18570:	2074696e 	rsbscs	r6, r4, lr, ror #18
   18574:	000a6b6f 	andeq	r6, sl, pc, ror #22
   18578:	31335b1b 	teqcc	r3, fp, lsl fp
   1857c:	61685b6d 	cmnvs	r8, sp, ror #22
   18580:	635f6f6c 	cmpvs	pc, #108, 30	; 0x1b0
   18584:	6f6d6d6f 	svcvs	0x006d6d6f
   18588:	5b1b5d6e 	blpl	6efb48 <__bss_end__+0x6c63c0>
   1858c:	253a6d30 	ldrcs	r6, [sl, #-3376]!	; 0xd30
   18590:	64252c73 	strtvs	r2, [r5], #-3187	; 0xc73
   18594:	202d2d2d 	eorcs	r2, sp, sp, lsr #26
   18598:	6e696564 	cdpvs	5, 6, cr6, cr9, cr4, {3}
   1859c:	69207469 	stmdbvs	r0!, {r0, r3, r5, r6, sl, ip, sp, lr}
   185a0:	7374696e 	cmnvc	r4, #1802240	; 0x1b8000
   185a4:	0a6b6f20 	beq	1af422c <__bss_end__+0x1acaaa4>
   185a8:	335b1b00 	cmpcc	fp, #0, 22
   185ac:	685b6d31 	ldmdavs	fp, {r0, r4, r5, r8, sl, fp, sp, lr}^
   185b0:	5f6f6c61 	svcpl	0x006f6c61
   185b4:	6d6d6f63 	stclvs	15, cr6, [sp, #-396]!	; 0xfffffe74
   185b8:	1b5d6e6f 	blne	1773f7c <__bss_end__+0x174a7f4>
   185bc:	3a6d305b 	bcc	1b64730 <__bss_end__+0x1b3afa8>
   185c0:	252c7325 	strcs	r7, [ip, #-805]!	; 0x325
   185c4:	2d2d2d64 	stccs	13, cr2, [sp, #-400]!	; 0xfffffe70
   185c8:	69656420 	stmdbvs	r5!, {r5, sl, sp, lr}^
   185cc:	5f74696e 	svcpl	0x0074696e
   185d0:	74696e69 	strbtvc	r6, [r9], #-3689	; 0xe69
   185d4:	1b000a73 	blne	1afa8 <__EH_FRAME_BEGIN__+0x1ce0>
   185d8:	6d31335b 	ldcvs	3, cr3, [r1, #-364]!	; 0xfffffe94
   185dc:	6c61685b 	stclvs	8, cr6, [r1], #-364	; 0xfffffe94
   185e0:	6f635f6f 	svcvs	0x00635f6f
   185e4:	6e6f6d6d 	cdpvs	13, 6, cr6, cr15, cr13, {3}
   185e8:	305b1b5d 	subscc	r1, fp, sp, asr fp
   185ec:	73253a6d 	teqvc	r5, #446464	; 0x6d000
   185f0:	2d64252c 	cfstr64cs	mvdx2, [r4, #-176]!	; 0xffffff50
   185f4:	64202d2d 	strtvs	r2, [r0], #-3373	; 0xd2d
   185f8:	696e6965 	stmdbvs	lr!, {r0, r2, r5, r6, r8, fp, sp, lr}^
   185fc:	6f6c2074 	svcvs	0x006c2074
   18600:	2073706f 	rsbscs	r7, r3, pc, rrx
   18604:	000a6b6f 	andeq	r6, sl, pc, ror #22
   18608:	31335b1b 	teqcc	r3, fp, lsl fp
   1860c:	61685b6d 	cmnvs	r8, sp, ror #22
   18610:	635f6f6c 	cmpvs	pc, #108, 30	; 0x1b0
   18614:	6f6d6d6f 	svcvs	0x006d6d6f
   18618:	5b1b5d6e 	blpl	6efbd8 <__bss_end__+0x6c6450>
   1861c:	253a6d30 	ldrcs	r6, [sl, #-3376]!	; 0xd30
   18620:	64252c73 	strtvs	r2, [r5], #-3187	; 0xc73
   18624:	202d2d2d 	eorcs	r2, sp, sp, lsr #26
   18628:	6e696564 	cdpvs	5, 6, cr6, cr9, cr4, {3}
   1862c:	6c207469 	cfstrsvs	mvf7, [r0], #-420	; 0xfffffe5c
   18630:	73706f6f 	cmnvc	r0, #444	; 0x1bc
   18634:	5b1b000a 	blpl	6d8664 <__bss_end__+0x6aeedc>
   18638:	5b6d3133 	blpl	1b64b0c <__bss_end__+0x1b3b384>
   1863c:	6f6c6168 	svcvs	0x006c6168
   18640:	6d6f635f 	stclvs	3, cr6, [pc, #-380]!	; 184cc <_fini+0x968>
   18644:	5d6e6f6d 	stclpl	15, cr6, [lr, #-436]!	; 0xfffffe4c
   18648:	6d305b1b 	fldmdbxvs	r0!, {d5-d17}	;@ Deprecated
   1864c:	2c73253a 	cfldr64cs	mvdx2, [r3], #-232	; 0xffffff18
   18650:	2d2d6425 	cfstrscs	mvf6, [sp, #-148]!	; 0xffffff6c
   18654:	6564202d 	strbvs	r2, [r4, #-45]!	; 0x2d
   18658:	74696e69 	strbtvc	r6, [r9], #-3689	; 0xe69
   1865c:	6e657320 	cdpvs	3, 6, cr7, cr5, cr0, {1}
   18660:	6f207364 	svcvs	0x00207364
   18664:	1b000a6b 	blne	1b018 <__EH_FRAME_BEGIN__+0x1d50>
   18668:	6d31335b 	ldcvs	3, cr3, [r1, #-364]!	; 0xfffffe94
   1866c:	6c61685b 	stclvs	8, cr6, [r1], #-364	; 0xfffffe94
   18670:	6f635f6f 	svcvs	0x00635f6f
   18674:	6e6f6d6d 	cdpvs	13, 6, cr6, cr15, cr13, {3}
   18678:	305b1b5d 	subscc	r1, fp, sp, asr fp
   1867c:	73253a6d 	teqvc	r5, #446464	; 0x6d000
   18680:	2d64252c 	cfstr64cs	mvdx2, [r4, #-176]!	; 0xffffff50
   18684:	63202d2d 	teqvs	r0, #2880	; 0xb40
   18688:	65736f6c 	ldrbvs	r6, [r3, #-3948]!	; 0xf6c
   1868c:	70697020 	rsbvc	r7, r9, r0, lsr #32
   18690:	6f207365 	svcvs	0x00207365
   18694:	1b000a6b 	blne	1b048 <__EH_FRAME_BEGIN__+0x1d80>
   18698:	6d31335b 	ldcvs	3, cr3, [r1, #-364]!	; 0xfffffe94
   1869c:	6c61685b 	stclvs	8, cr6, [r1], #-364	; 0xfffffe94
   186a0:	6f635f6f 	svcvs	0x00635f6f
   186a4:	6e6f6d6d 	cdpvs	13, 6, cr6, cr15, cr13, {3}
   186a8:	305b1b5d 	subscc	r1, fp, sp, asr fp
   186ac:	73253a6d 	teqvc	r5, #446464	; 0x6d000
   186b0:	2d64252c 	cfstr64cs	mvdx2, [r4, #-176]!	; 0xffffff50
   186b4:	66202d2d 	strtvs	r2, [r0], -sp, lsr #26
   186b8:	20656572 	rsbcs	r6, r5, r2, ror r5
   186bc:	646e6168 	strbtvs	r6, [lr], #-360	; 0x168
   186c0:	6f20656c 	svcvs	0x0020656c
   186c4:	1b000a6b 	blne	1b078 <__EH_FRAME_BEGIN__+0x1db0>
   186c8:	6d31335b 	ldcvs	3, cr3, [r1, #-364]!	; 0xfffffe94
   186cc:	6c61685b 	stclvs	8, cr6, [r1], #-364	; 0xfffffe94
   186d0:	6f635f6f 	svcvs	0x00635f6f
   186d4:	6e6f6d6d 	cdpvs	13, 6, cr6, cr15, cr13, {3}
   186d8:	305b1b5d 	subscc	r1, fp, sp, asr fp
   186dc:	73253a6d 	teqvc	r5, #446464	; 0x6d000
   186e0:	2d64252c 	cfstr64cs	mvdx2, [r4, #-176]!	; 0xffffff50
   186e4:	64202d2d 	strtvs	r2, [r0], #-3373	; 0xd2d
   186e8:	696e6965 	stmdbvs	lr!, {r0, r2, r5, r6, r8, fp, sp, lr}^
   186ec:	65732074 	ldrbvs	r2, [r3, #-116]!	; 0x74
   186f0:	0a73646e 	beq	1cf18b0 <__bss_end__+0x1cc8128>
   186f4:	335b1b00 	cmpcc	fp, #0, 22
   186f8:	685b6d31 	ldmdavs	fp, {r0, r4, r5, r8, sl, fp, sp, lr}^
   186fc:	5f6f6c61 	svcpl	0x006f6c61
   18700:	6d6d6f63 	stclvs	15, cr6, [sp, #-396]!	; 0xfffffe74
   18704:	1b5d6e6f 	blne	17740c8 <__bss_end__+0x174a940>
   18708:	3a6d305b 	bcc	1b6487c <__bss_end__+0x1b3b0f4>
   1870c:	252c7325 	strcs	r7, [ip, #-805]!	; 0x325
   18710:	2d2d2d64 	stccs	13, cr2, [sp, #-400]!	; 0xfffffe70
   18714:	6d6f6320 	stclvs	3, cr6, [pc, #-128]!	; 1869c <_fini+0xb38>
   18718:	206e6f6d 	rsbcs	r6, lr, sp, ror #30
   1871c:	6465656e 	strbtvs	r6, [r5], #-1390	; 0x56e
   18720:	206f7420 	rsbcs	r7, pc, r0, lsr #8
   18724:	74696e69 	strbtvc	r6, [r9], #-3689	; 0xe69
   18728:	5b1b000a 	blpl	6d8758 <__bss_end__+0x6aefd0>
   1872c:	5b6d3133 	blpl	1b64c00 <__bss_end__+0x1b3b478>
   18730:	6f6c6168 	svcvs	0x006c6168
   18734:	7064755f 	rsbvc	r7, r4, pc, asr r5
   18738:	305b1b5d 	subscc	r1, fp, sp, asr fp
   1873c:	73253a6d 	teqvc	r5, #446464	; 0x6d000
   18740:	2d64252c 	cfstr64cs	mvdx2, [r4, #-176]!	; 0xffffff50
   18744:	4f202d2d 	svcmi	0x00202d2d
   18748:	696e6570 	stmdbvs	lr!, {r4, r5, r6, r8, sl, sp, lr}^
   1874c:	6420676e 	strtvs	r6, [r0], #-1902	; 0x76e
   18750:	67617461 	strbvs	r7, [r1, -r1, ror #8]!
   18754:	206d6172 	rsbcs	r6, sp, r2, ror r1
   18758:	6b636f73 	blvs	18f452c <__bss_end__+0x18cada4>
   1875c:	65207465 	strvs	r7, [r0, #-1125]!	; 0x465
   18760:	726f7272 	rsbvc	r7, pc, #536870919	; 0x20000007
   18764:	6168000a 	cmnvs	r8, sl
   18768:	755f6f6c 	ldrbvc	r6, [pc, #-3948]	; 17804 <MD5Transform+0x7ac>
   1876c:	632e7064 	teqvs	lr, #100	; 0x64
   18770:	335b1b00 	cmpcc	fp, #0, 22
   18774:	685b6d31 	ldmdavs	fp, {r0, r4, r5, r8, sl, fp, sp, lr}^
   18778:	5f6f6c61 	svcpl	0x006f6c61
   1877c:	5d706475 	cfldrdpl	mvd6, [r0, #-468]!	; 0xfffffe2c
   18780:	6d305b1b 	fldmdbxvs	r0!, {d5-d17}	;@ Deprecated
   18784:	2c73253a 	cfldr64cs	mvdx2, [r3], #-232	; 0xffffff18
   18788:	2d2d6425 	cfstrscs	mvf6, [sp, #-148]!	; 0xffffff6c
   1878c:	704f202d 	subvc	r2, pc, sp, lsr #32
   18790:	6e696e65 	cdpvs	14, 6, cr6, cr9, cr5, {3}
   18794:	61642067 	cmnvs	r4, r7, rrx
   18798:	72676174 	rsbvc	r6, r7, #116, 2
   1879c:	73206d61 	teqvc	r0, #6208	; 0x1840
   187a0:	656b636f 	strbvs	r6, [fp, #-879]!	; 0x36f
   187a4:	2e2e2e74 	mcrcs	14, 1, r2, cr14, cr4, {3}
   187a8:	2e4b4f2e 	cdpcs	15, 4, cr4, cr11, cr14, {1}
   187ac:	5b1b000a 	blpl	6d87dc <__bss_end__+0x6af054>
   187b0:	5b6d3133 	blpl	1b64c84 <__bss_end__+0x1b3b4fc>
   187b4:	6f6c6168 	svcvs	0x006c6168
   187b8:	7064755f 	rsbvc	r7, r4, pc, asr r5
   187bc:	305b1b5d 	subscc	r1, fp, sp, asr fp
   187c0:	73253a6d 	teqvc	r5, #446464	; 0x6d000
   187c4:	2d64252c 	cfstr64cs	mvdx2, [r4, #-176]!	; 0xffffff50
   187c8:	42202d2d 	eormi	r2, r0, #2880	; 0xb40
   187cc:	69646e69 	stmdbvs	r4!, {r0, r3, r5, r6, r9, sl, fp, sp, lr}^
   187d0:	6420676e 	strtvs	r6, [r0], #-1902	; 0x76e
   187d4:	67617461 	strbvs	r7, [r1, -r1, ror #8]!
   187d8:	206d6172 	rsbcs	r6, sp, r2, ror r1
   187dc:	6b636f73 	blvs	18f45b0 <__bss_end__+0x18cae28>
   187e0:	65207465 	strvs	r7, [r0, #-1125]!	; 0x465
   187e4:	726f7272 	rsbvc	r7, pc, #536870919	; 0x20000007
   187e8:	5b1b000a 	blpl	6d8818 <__bss_end__+0x6af090>
   187ec:	5b6d3133 	blpl	1b64cc0 <__bss_end__+0x1b3b538>
   187f0:	6f6c6168 	svcvs	0x006c6168
   187f4:	7064755f 	rsbvc	r7, r4, pc, asr r5
   187f8:	305b1b5d 	subscc	r1, fp, sp, asr fp
   187fc:	73253a6d 	teqvc	r5, #446464	; 0x6d000
   18800:	2d64252c 	cfstr64cs	mvdx2, [r4, #-176]!	; 0xffffff50
   18804:	42202d2d 	eormi	r2, r0, #2880	; 0xb40
   18808:	69646e69 	stmdbvs	r4!, {r0, r3, r5, r6, r9, sl, fp, sp, lr}^
   1880c:	6420676e 	strtvs	r6, [r0], #-1902	; 0x76e
   18810:	67617461 	strbvs	r7, [r1, -r1, ror #8]!
   18814:	206d6172 	rsbcs	r6, sp, r2, ror r1
   18818:	6b636f73 	blvs	18f45ec <__bss_end__+0x18cae64>
   1881c:	2e2e7465 	cdpcs	4, 2, cr7, cr14, cr5, {3}
   18820:	2e4b4f2e 	cdpcs	15, 4, cr4, cr11, cr14, {1}
   18824:	3232000a 	eorscc	r0, r2, #10
   18828:	2e302e34 	mrccs	14, 1, r2, cr0, cr4, {1}
   1882c:	00312e30 	eorseq	r2, r1, r0, lsr lr
   18830:	2e373231 	mrccs	2, 1, r3, cr7, cr1, {1}
   18834:	2e302e30 	mrccs	14, 1, r2, cr0, cr0, {1}
   18838:	5b1b0031 	blpl	6d8904 <__bss_end__+0x6af17c>
   1883c:	5b6d3133 	blpl	1b64d10 <__bss_end__+0x1b3b588>
   18840:	6f6c6168 	svcvs	0x006c6168
   18844:	7064755f 	rsbvc	r7, r4, pc, asr r5
   18848:	305b1b5d 	subscc	r1, fp, sp, asr fp
   1884c:	73253a6d 	teqvc	r5, #446464	; 0x6d000
   18850:	2d64252c 	cfstr64cs	mvdx2, [r4, #-176]!	; 0xffffff50
   18854:	41202d2d 	teqmi	r0, sp, lsr #26
   18858:	6e696464 	cdpvs	4, 6, cr6, cr9, cr4, {3}
   1885c:	756d2067 	strbvc	r2, [sp, #-103]!	; 0x67
   18860:	6369746c 	cmnvs	r9, #108, 8	; 0x6c000000
   18864:	20747361 	rsbscs	r7, r4, r1, ror #6
   18868:	756f7267 	strbvc	r7, [pc, #-615]!	; 18609 <_fini+0xaa5>
   1886c:	72652070 	rsbvc	r2, r5, #112	; 0x70
   18870:	0a726f72 	beq	1cb4640 <__bss_end__+0x1c8aeb8>
   18874:	335b1b00 	cmpcc	fp, #0, 22
   18878:	685b6d31 	ldmdavs	fp, {r0, r4, r5, r8, sl, fp, sp, lr}^
   1887c:	5f6f6c61 	svcpl	0x006f6c61
   18880:	5d706475 	cfldrdpl	mvd6, [r0, #-468]!	; 0xfffffe2c
   18884:	6d305b1b 	fldmdbxvs	r0!, {d5-d17}	;@ Deprecated
   18888:	2c73253a 	cfldr64cs	mvdx2, [r3], #-232	; 0xffffff18
   1888c:	2d2d6425 	cfstrscs	mvf6, [sp, #-148]!	; 0xffffff6c
   18890:	6441202d 	strbvs	r2, [r1], #-45	; 0x2d
   18894:	676e6964 	strbvs	r6, [lr, -r4, ror #18]!
   18898:	6c756d20 	ldclvs	13, cr6, [r5], #-128	; 0xffffff80
   1889c:	61636974 	smcvs	13972	; 0x3694
   188a0:	67207473 			; <UNDEFINED> instruction: 0x67207473
   188a4:	70756f72 	rsbsvc	r6, r5, r2, ror pc
   188a8:	4f2e2e2e 	svcmi	0x002e2e2e
   188ac:	000a2e4b 	andeq	r2, sl, fp, asr #28
   188b0:	31335b1b 	teqcc	r3, fp, lsl fp
   188b4:	61685b6d 	cmnvs	r8, sp, ror #22
   188b8:	755f6f6c 	ldrbvc	r6, [pc, #-3948]	; 17954 <MD5Transform+0x8fc>
   188bc:	1b5d7064 	blne	1774a54 <__bss_end__+0x174b2cc>
   188c0:	3a6d305b 	bcc	1b64a34 <__bss_end__+0x1b3b2ac>
   188c4:	252c7325 	strcs	r7, [ip, #-805]!	; 0x325
   188c8:	2d2d2d64 	stccs	13, cr2, [sp, #-400]!	; 0xfffffe70
   188cc:	70647520 	rsbvc	r7, r4, r0, lsr #10
   188d0:	63657220 	cmnvs	r5, #32, 4
   188d4:	64252076 	strtvs	r2, [r5], #-118	; 0x76
   188d8:	7325202c 	teqvc	r5, #44	; 0x2c
   188dc:	5b1b000a 	blpl	6d890c <__bss_end__+0x6af184>
   188e0:	5b6d3533 	blpl	1b65db4 <__bss_end__+0x1b3c62c>
   188e4:	6f6c6168 	svcvs	0x006c6168
   188e8:	305b1b5d 	subscc	r1, fp, sp, asr fp
   188ec:	73253a6d 	teqvc	r5, #446464	; 0x6d000
   188f0:	2d64252c 	cfstr64cs	mvdx2, [r4, #-176]!	; 0xffffff50
   188f4:	69202d2d 	stmdbvs	r0!, {r0, r2, r3, r5, r8, sl, fp, sp}
   188f8:	3374696e 	cmncc	r4, #1802240	; 0x1b8000
   188fc:	21212120 	teqcs	r1, r0, lsr #2
   18900:	0a212121 	beq	860d8c <__bss_end__+0x837604>
   18904:	69616d00 	stmdbvs	r1!, {r8, sl, fp, sp, lr}^
   18908:	00632e6e 	rsbeq	r2, r3, lr, ror #28
   1890c:	35335b1b 	ldrcc	r5, [r3, #-2843]!	; 0xb1b
   18910:	61685b6d 	cmnvs	r8, sp, ror #22
   18914:	1b5d6f6c 	blne	17746cc <__bss_end__+0x174af44>
   18918:	3a6d305b 	bcc	1b64a8c <__bss_end__+0x1b3b304>
   1891c:	252c7325 	strcs	r7, [ip, #-805]!	; 0x325
   18920:	2d2d2d64 	stccs	13, cr2, [sp, #-400]!	; 0xfffffe70
   18924:	696e6920 	stmdbvs	lr!, {r5, r8, fp, sp, lr}^
   18928:	3b322074 	blcc	ca0b00 <__bss_end__+0xc77378>
   1892c:	61747320 	cmnvs	r4, r0, lsr #6
   18930:	75207472 	strvc	r7, [r0, #-1138]!	; 0x472
   18934:	74207064 	strtvc	r7, [r0], #-100	; 0x64
   18938:	732d7063 	teqvc	sp, #99	; 0x63
   1893c:	75207672 	strvc	r7, [r0, #-1650]!	; 0x672
   18940:	0a747261 	beq	1d352cc <__bss_end__+0x1d0bb44>
   18944:	67656209 	strbvs	r6, [r5, -r9, lsl #4]!
   18948:	74206e69 	strtvc	r6, [r0], #-3689	; 0xe69
   1894c:	6572206f 	ldrbvs	r2, [r2, #-111]!	; 0x6f
   18950:	74736967 	ldrbtvc	r6, [r3], #-2407	; 0x967
   18954:	5b1b000a 	blpl	6d8984 <__bss_end__+0x6af1fc>
   18958:	5b6d3533 	blpl	1b65e2c <__bss_end__+0x1b3c6a4>
   1895c:	6f6c6168 	svcvs	0x006c6168
   18960:	305b1b5d 	subscc	r1, fp, sp, asr fp
   18964:	73253a6d 	teqvc	r5, #446464	; 0x6d000
   18968:	2d64252c 	cfstr64cs	mvdx2, [r4, #-176]!	; 0xffffff50
   1896c:	77202d2d 	strvc	r2, [r0, -sp, lsr #26]!
   18970:	20746961 	rsbscs	r6, r4, r1, ror #18
   18974:	20726f66 	rsbscs	r6, r2, r6, ror #30
   18978:	69666977 	stmdbvs	r6!, {r0, r1, r2, r4, r5, r6, r8, fp, sp, lr}^
   1897c:	6e6f6320 	cdpvs	3, 6, cr6, cr15, cr0, {1}
   18980:	7463656e 	strbtvc	r6, [r3], #-1390	; 0x56e
   18984:	0a6e6f69 	beq	1bb4730 <__bss_end__+0x1b8afa8>
   18988:	335b1b00 	cmpcc	fp, #0, 22
   1898c:	685b6d35 	ldmdavs	fp, {r0, r2, r4, r5, r8, sl, fp, sp, lr}^
   18990:	5d6f6c61 	stclpl	12, cr6, [pc, #-388]!	; 18814 <_fini+0xcb0>
   18994:	6d305b1b 	fldmdbxvs	r0!, {d5-d17}	;@ Deprecated
   18998:	2c73253a 	cfldr64cs	mvdx2, [r3], #-232	; 0xffffff18
   1899c:	2d2d6425 	cfstrscs	mvf6, [sp, #-148]!	; 0xffffff6c
   189a0:	6974202d 	ldmdbvs	r4!, {r0, r2, r3, r5, sp}^
   189a4:	6f20656d 	svcvs	0x0020656d
   189a8:	21207475 	teqcs	r0, r5, ror r4
   189ac:	000a2121 	andeq	r2, sl, r1, lsr #2
   189b0:	35335b1b 	ldrcc	r5, [r3, #-2843]!	; 0xb1b
   189b4:	61685b6d 	cmnvs	r8, sp, ror #22
   189b8:	1b5d6f6c 	blne	1774770 <__bss_end__+0x174afe8>
   189bc:	3a6d305b 	bcc	1b64b30 <__bss_end__+0x1b3b3a8>
   189c0:	252c7325 	strcs	r7, [ip, #-805]!	; 0x325
   189c4:	2d2d2d64 	stccs	13, cr2, [sp, #-400]!	; 0xfffffe70
   189c8:	696e6920 	stmdbvs	lr!, {r5, r8, fp, sp, lr}^
   189cc:	3b312074 	blcc	c60ba4 <__bss_end__+0xc3741c>
   189d0:	69617720 	stmdbvs	r1!, {r5, r8, r9, sl, ip, sp, lr}^
   189d4:	6f662074 	svcvs	0x00662074
   189d8:	69772072 	ldmdbvs	r7!, {r1, r4, r5, r6, sp}^
   189dc:	63206966 	teqvs	r0, #1671168	; 0x198000
   189e0:	656e6e6f 	strbvs	r6, [lr, #-3695]!	; 0xe6f
   189e4:	64657463 	strbtvs	r7, [r5], #-1123	; 0x463
   189e8:	1b000a21 	blne	1b274 <__EH_FRAME_BEGIN__+0x1fac>
   189ec:	6d35335b 	ldcvs	3, cr3, [r5, #-364]!	; 0xfffffe94
   189f0:	6c61685b 	stclvs	8, cr6, [r1], #-364	; 0xfffffe94
   189f4:	5b1b5d6f 	blpl	6effb8 <__bss_end__+0x6c6830>
   189f8:	253a6d30 	ldrcs	r6, [sl, #-3376]!	; 0xd30
   189fc:	64252c73 	strtvs	r2, [r5], #-3187	; 0xc73
   18a00:	202d2d2d 	eorcs	r2, sp, sp, lsr #26
   18a04:	6f6c6568 	svcvs	0x006c6568
   18a08:	5b1b000a 	blpl	6d8a38 <__bss_end__+0x6af2b0>
   18a0c:	5b6d3133 	blpl	1b64ee0 <__bss_end__+0x1b3b758>
   18a10:	5f63682d 	svcpl	0x0063682d
   18a14:	38667475 	stmdacc	r6!, {r0, r2, r4, r5, r6, sl, ip, sp, lr}^
   18a18:	5b1b5d2d 	blpl	6efed4 <__bss_end__+0x6c674c>
   18a1c:	253a6d30 	ldrcs	r6, [sl, #-3376]!	; 0xd30
   18a20:	64252c73 	strtvs	r2, [r5], #-3187	; 0xc73
   18a24:	202d2d2d 	eorcs	r2, sp, sp, lsr #26
   18a28:	206d756e 	rsbcs	r7, sp, lr, ror #10
   18a2c:	25207369 	strcs	r7, [r0, #-873]!	; 0x369
   18a30:	68000a64 	stmdavs	r0, {r2, r5, r6, r9, fp}
   18a34:	5f6f6c61 	svcpl	0x006f6c61
   18a38:	38667475 	stmdacc	r6!, {r0, r2, r4, r5, r6, sl, ip, sp, lr}^
   18a3c:	1b00632e 	blne	316fc <__bss_end__+0x7f74>
   18a40:	6d31335b 	ldcvs	3, cr3, [r1, #-364]!	; 0xfffffe94
   18a44:	63682d5b 	cmnvs	r8, #5824	; 0x16c0
   18a48:	6674755f 			; <UNDEFINED> instruction: 0x6674755f
   18a4c:	1b5d2d38 	blne	1763f34 <__bss_end__+0x173a7ac>
   18a50:	3a6d305b 	bcc	1b64bc4 <__bss_end__+0x1b3b43c>
   18a54:	252c7325 	strcs	r7, [ip, #-805]!	; 0x325
   18a58:	2d2d2d64 	stccs	13, cr2, [sp, #-400]!	; 0xfffffe70
   18a5c:	646f6220 	strbtvs	r6, [pc], #-544	; 18a64 <_fini+0xf00>
   18a60:	65732079 	ldrbvs	r2, [r3, #-121]!	; 0x79
   18a64:	6c692074 	stclvs	0, cr2, [r9], #-464	; 0xfffffe30
   18a68:	6167656c 	cmnvs	r7, ip, ror #10
   18a6c:	1b000a6c 	blne	1b424 <__EH_FRAME_BEGIN__+0x215c>
   18a70:	6d31335b 	ldcvs	3, cr3, [r1, #-364]!	; 0xfffffe94
   18a74:	63682d5b 	cmnvs	r8, #5824	; 0x16c0
   18a78:	6674755f 			; <UNDEFINED> instruction: 0x6674755f
   18a7c:	1b5d2d38 	blne	1763f64 <__bss_end__+0x173a7dc>
   18a80:	3a6d305b 	bcc	1b64bf4 <__bss_end__+0x1b3b46c>
   18a84:	252c7325 	strcs	r7, [ip, #-805]!	; 0x325
   18a88:	2d2d2d64 	stccs	13, cr2, [sp, #-400]!	; 0xfffffe70
   18a8c:	646f6220 	strbtvs	r6, [pc], #-544	; 18a94 <_fini+0xf30>
   18a90:	65732079 	ldrbvs	r2, [r3, #-121]!	; 0x79
   18a94:	72652074 	rsbvc	r2, r5, #116	; 0x74
   18a98:	21726f72 	cmncs	r2, r2, ror pc
   18a9c:	73657220 	cmnvc	r5, #32, 4
   18aa0:	74207465 	strtvc	r7, [r0], #-1125	; 0x465
   18aa4:	62206568 	eorvs	r6, r0, #104, 10	; 0x1a000000
   18aa8:	0a79646f 	beq	1e71c6c <__bss_end__+0x1e484e4>
	...

00018aad <firstByteMark>:
   18aad:	e0c00000 	sbc	r0, r0, r0
   18ab1:	22fcf8f0 	rscscs	pc, ip, #240, 16	; 0xf00000
   18ab5:	0a0c085c 	beq	31ac2d <__bss_end__+0x2f14a5>
   18ab9:	7500090d 	strvc	r0, [r0, #-2317]	; 0x90d
   18abd:	78343025 	ldmdavc	r4!, {r0, r2, r5, ip, sp}
   18ac1:	6c756e00 	ldclvs	14, cr6, [r5], #-0
   18ac5:	6166006c 	cmnvs	r6, ip, rrx
   18ac9:	0065736c 	rsbeq	r7, r5, ip, ror #6
   18acd:	65757274 	ldrbvs	r7, [r5, #-628]!	; 0x274
   18ad1:	00642500 	rsbeq	r2, r4, r0, lsl #10
   18ad5:	66302e25 	ldrtvs	r2, [r0], -r5, lsr #28
   18ad9:	00652500 	rsbeq	r2, r5, r0, lsl #10
   18add:	5b006625 	blpl	32379 <__bss_end__+0x8bf1>
   18ae1:	5b1b005d 	blpl	6d8c5d <__bss_end__+0x6af4d5>
   18ae5:	5b6d3133 	blpl	1b64fb9 <__bss_end__+0x1b3b831>
   18ae9:	6f6c6168 	svcvs	0x006c6168
   18aed:	7261755f 	rsbvc	r7, r1, #398458880	; 0x17c00000
   18af1:	5b1b5d74 	blpl	6f00c9 <__bss_end__+0x6c6941>
   18af5:	253a6d30 	ldrcs	r6, [sl, #-3376]!	; 0xd30
   18af9:	64252c73 	strtvs	r2, [r5], #-3187	; 0xc73
   18afd:	202d2d2d 	eorcs	r2, sp, sp, lsr #26
   18b01:	6e65706f 	cdpvs	0, 6, cr7, cr5, cr15, {3}
   18b05:	20732520 	rsbscs	r2, r3, r0, lsr #10
   18b09:	6c696166 	stfvse	f6, [r9], #-408	; 0xfffffe68
   18b0d:	000a6465 	andeq	r6, sl, r5, ror #8
   18b11:	6f6c6168 	svcvs	0x006c6168
   18b15:	7261755f 	rsbvc	r7, r1, #398458880	; 0x17c00000
   18b19:	00632e74 	rsbeq	r2, r3, r4, ror lr
   18b1d:	31335b1b 	teqcc	r3, fp, lsl fp
   18b21:	61685b6d 	cmnvs	r8, sp, ror #22
   18b25:	755f6f6c 	ldrbvc	r6, [pc, #-3948]	; 17bc1 <_fini+0x5d>
   18b29:	5d747261 	lfmpl	f7, 2, [r4, #-388]!	; 0xfffffe7c
   18b2d:	6d305b1b 	fldmdbxvs	r0!, {d5-d17}	;@ Deprecated
   18b31:	2c73253a 	cfldr64cs	mvdx2, [r3], #-232	; 0xffffff18
   18b35:	2d2d6425 	cfstrscs	mvf6, [sp, #-148]!	; 0xffffff6c
   18b39:	6366202d 	cmnvs	r6, #45	; 0x2d
   18b3d:	206c746e 	rsbcs	r7, ip, lr, ror #8
   18b41:	6c696166 	stfvse	f6, [r9], #-408	; 0xfffffe68
   18b45:	26206465 	strtcs	r6, [r0], -r5, ror #8
   18b49:	6c632026 	stclvs	0, cr2, [r3], #-152	; 0xffffff68
   18b4d:	2065736f 	rsbcs	r7, r5, pc, ror #6
   18b51:	74726175 	ldrbtvc	r6, [r2], #-373	; 0x175
   18b55:	5b1b000a 	blpl	6d8b85 <__bss_end__+0x6af3fd>
   18b59:	5b6d3133 	blpl	1b6502d <__bss_end__+0x1b3b8a5>
   18b5d:	6f6c6168 	svcvs	0x006c6168
   18b61:	7261755f 	rsbvc	r7, r1, #398458880	; 0x17c00000
   18b65:	5b1b5d74 	blpl	6f013d <__bss_end__+0x6c69b5>
   18b69:	253a6d30 	ldrcs	r6, [sl, #-3376]!	; 0xd30
   18b6d:	64252c73 	strtvs	r2, [r5], #-3187	; 0xc73
   18b71:	202d2d2d 	eorcs	r2, sp, sp, lsr #26
   18b75:	74726175 	ldrbtvc	r6, [r2], #-373	; 0x175
   18b79:	3a732528 	bcc	1ce2021 <__bss_end__+0x1cb8899>
   18b7d:	20296425 	eorcs	r6, r9, r5, lsr #8
   18b81:	6e65706f 	cdpvs	0, 6, cr7, cr5, cr15, {3}
   18b85:	0a6b6f20 	beq	1af480d <__bss_end__+0x1acb085>
   18b89:	335b1b00 	cmpcc	fp, #0, 22
   18b8d:	685b6d31 	ldmdavs	fp, {r0, r4, r5, r8, sl, fp, sp, lr}^
   18b91:	5f6f6c61 	svcpl	0x006f6c61
   18b95:	74726175 	ldrbtvc	r6, [r2], #-373	; 0x175
   18b99:	305b1b5d 	subscc	r1, fp, sp, asr fp
   18b9d:	73253a6d 	teqvc	r5, #446464	; 0x6d000
   18ba1:	2d64252c 	cfstr64cs	mvdx2, [r4, #-176]!	; 0xffffff50
   18ba5:	73202d2d 	teqvc	r0, #2880	; 0xb40
   18ba9:	70757465 	rsbsvc	r7, r5, r5, ror #8
   18bad:	72617520 	rsbvc	r7, r1, #32, 10	; 0x8000000
   18bb1:	72652074 	rsbvc	r2, r5, #116	; 0x74
   18bb5:	0a726f72 	beq	1cb4985 <__bss_end__+0x1c8b1fd>
   18bb9:	335b1b00 	cmpcc	fp, #0, 22
   18bbd:	685b6d31 	ldmdavs	fp, {r0, r4, r5, r8, sl, fp, sp, lr}^
   18bc1:	5f6f6c61 	svcpl	0x006f6c61
   18bc5:	74726175 	ldrbtvc	r6, [r2], #-373	; 0x175
   18bc9:	305b1b5d 	subscc	r1, fp, sp, asr fp
   18bcd:	73253a6d 	teqvc	r5, #446464	; 0x6d000
   18bd1:	2d64252c 	cfstr64cs	mvdx2, [r4, #-176]!	; 0xffffff50
   18bd5:	75202d2d 	strvc	r2, [r0, #-3373]!	; 0xd2d
   18bd9:	20747261 	rsbscs	r7, r4, r1, ror #4
   18bdd:	20746573 	rsbscs	r6, r4, r3, ror r5
   18be1:	6f727265 	svcvs	0x00727265
   18be5:	1b000a72 	blne	1b5b5 <__EH_FRAME_BEGIN__+0x22ed>
   18be9:	6d31335b 	ldcvs	3, cr3, [r1, #-364]!	; 0xfffffe94
   18bed:	6c61685b 	stclvs	8, cr6, [r1], #-364	; 0xfffffe94
   18bf1:	61755f6f 	cmnvs	r5, pc, ror #30
   18bf5:	1b5d7472 	blne	1775dc5 <__bss_end__+0x174c63d>
   18bf9:	3a6d305b 	bcc	1b64d6d <__bss_end__+0x1b3b5e5>
   18bfd:	252c7325 	strcs	r7, [ip, #-805]!	; 0x325
   18c01:	2d2d2d64 	stccs	13, cr2, [sp, #-400]!	; 0xfffffe70
   18c05:	20642520 	rsbcs	r2, r4, r0, lsr #10
   18c09:	736f6c63 	cmnvc	pc, #25344	; 0x6300
   18c0d:	000a6465 	andeq	r6, sl, r5, ror #8
   18c11:	31335b1b 	teqcc	r3, fp, lsl fp
   18c15:	61685b6d 	cmnvs	r8, sp, ror #22
   18c19:	755f6f6c 	ldrbvc	r6, [pc, #-3948]	; 17cb5 <_fini+0x151>
   18c1d:	5d747261 	lfmpl	f7, 2, [r4, #-388]!	; 0xfffffe7c
   18c21:	6d305b1b 	fldmdbxvs	r0!, {d5-d17}	;@ Deprecated
   18c25:	2c73253a 	cfldr64cs	mvdx2, [r3], #-232	; 0xffffff18
   18c29:	2d2d6425 	cfstrscs	mvf6, [sp, #-148]!	; 0xffffff6c
   18c2d:	6175202d 	cmnvs	r5, sp, lsr #32
   18c31:	69207472 	stmdbvs	r0!, {r1, r4, r5, r6, sl, ip, sp, lr}
   18c35:	2074696e 	rsbscs	r6, r4, lr, ror #18
   18c39:	6c696166 	stfvse	f6, [r9], #-408	; 0xfffffe68
   18c3d:	000a6465 	andeq	r6, sl, r5, ror #8
   18c41:	31335b1b 	teqcc	r3, fp, lsl fp
   18c45:	61685b6d 	cmnvs	r8, sp, ror #22
   18c49:	755f6f6c 	ldrbvc	r6, [pc, #-3948]	; 17ce5 <_fini+0x181>
   18c4d:	5d747261 	lfmpl	f7, 2, [r4, #-388]!	; 0xfffffe7c
   18c51:	6d305b1b 	fldmdbxvs	r0!, {d5-d17}	;@ Deprecated
   18c55:	2c73253a 	cfldr64cs	mvdx2, [r3], #-232	; 0xffffff18
   18c59:	2d2d6425 	cfstrscs	mvf6, [sp, #-148]!	; 0xffffff6c
   18c5d:	6572202d 	ldrbvs	r2, [r2, #-45]!	; 0x2d
   18c61:	66206461 	strtvs	r6, [r0], -r1, ror #8
   18c65:	656c6961 	strbvs	r6, [ip, #-2401]!	; 0x961
   18c69:	1b000a64 	blne	1b601 <__EH_FRAME_BEGIN__+0x2339>
   18c6d:	6d31335b 	ldcvs	3, cr3, [r1, #-364]!	; 0xfffffe94
   18c71:	6c61685b 	stclvs	8, cr6, [r1], #-364	; 0xfffffe94
   18c75:	61755f6f 	cmnvs	r5, pc, ror #30
   18c79:	1b5d7472 	blne	1775e49 <__bss_end__+0x174c6c1>
   18c7d:	3a6d305b 	bcc	1b64df1 <__bss_end__+0x1b3b669>
   18c81:	252c7325 	strcs	r7, [ip, #-805]!	; 0x325
   18c85:	2d2d2d64 	stccs	13, cr2, [sp, #-400]!	; 0xfffffe70
   18c89:	63657220 	cmnvs	r5, #32, 4
   18c8d:	64252076 	strtvs	r2, [r5], #-118	; 0x76
   18c91:	0a73253a 	beq	1ce2181 <__bss_end__+0x1cb89f9>
   18c95:	335b1b00 	cmpcc	fp, #0, 22
   18c99:	685b6d31 	ldmdavs	fp, {r0, r4, r5, r8, sl, fp, sp, lr}^
   18c9d:	5f6f6c61 	svcpl	0x006f6c61
   18ca1:	5d696c63 	stclpl	12, cr6, [r9, #-396]!	; 0xfffffe74
   18ca5:	6d305b1b 	fldmdbxvs	r0!, {d5-d17}	;@ Deprecated
   18ca9:	2c73253a 	cfldr64cs	mvdx2, [r3], #-232	; 0xffffff18
   18cad:	2d2d6425 	cfstrscs	mvf6, [sp, #-148]!	; 0xffffff6c
   18cb1:	6466202d 	strbtvs	r2, [r6], #-45	; 0x2d
   18cb5:	20736920 	rsbscs	r6, r3, r0, lsr #18
   18cb9:	656c6c69 	strbvs	r6, [ip, #-3177]!	; 0xc69
   18cbd:	0a6c6167 	beq	1b31261 <__bss_end__+0x1b07ad9>
   18cc1:	6c616800 	stclvs	8, cr6, [r1], #-0
   18cc5:	63745f6f 	cmnvs	r4, #444	; 0x1bc
   18cc9:	6c635f70 	stclvs	15, cr5, [r3], #-448	; 0xfffffe40
   18ccd:	00632e69 	rsbeq	r2, r3, r9, ror #28
   18cd1:	31335b1b 	teqcc	r3, fp, lsl fp
   18cd5:	61685b6d 	cmnvs	r8, sp, ror #22
   18cd9:	635f6f6c 	cmpvs	pc, #108, 30	; 0x1b0
   18cdd:	1b5d696c 	blne	1773295 <__bss_end__+0x1749b0d>
   18ce1:	3a6d305b 	bcc	1b64e55 <__bss_end__+0x1b3b6cd>
   18ce5:	252c7325 	strcs	r7, [ip, #-805]!	; 0x325
   18ce9:	2d2d2d64 	stccs	13, cr2, [sp, #-400]!	; 0xfffffe70
   18ced:	6e6f6320 	cdpvs	3, 6, cr6, cr15, cr0, {1}
   18cf1:	7463656e 	strbtvc	r6, [r3], #-1390	; 0x56e
   18cf5:	69616620 	stmdbvs	r1!, {r5, r9, sl, sp, lr}^
   18cf9:	0a64656c 	beq	19322b1 <__bss_end__+0x1908b29>
   18cfd:	335b1b00 	cmpcc	fp, #0, 22
   18d01:	685b6d31 	ldmdavs	fp, {r0, r4, r5, r8, sl, fp, sp, lr}^
   18d05:	5f6f6c61 	svcpl	0x006f6c61
   18d09:	5d696c63 	stclpl	12, cr6, [r9, #-396]!	; 0xfffffe74
   18d0d:	6d305b1b 	fldmdbxvs	r0!, {d5-d17}	;@ Deprecated
   18d11:	2c73253a 	cfldr64cs	mvdx2, [r3], #-232	; 0xffffff18
   18d15:	2d2d6425 	cfstrscs	mvf6, [sp, #-148]!	; 0xffffff6c
   18d19:	6425202d 	strtvs	r2, [r5], #-45	; 0x2d
   18d1d:	70637420 	rsbvc	r7, r3, r0, lsr #8
   18d21:	696c6320 	stmdbvs	ip!, {r5, r8, r9, sp, lr}^
   18d25:	20746e65 	rsbscs	r6, r4, r5, ror #28
   18d29:	6e6e6f63 	cdpvs	15, 6, cr6, cr14, cr3, {3}
   18d2d:	65746365 	ldrbvs	r6, [r4, #-869]!	; 0x365
   18d31:	000a2164 	andeq	r2, sl, r4, ror #2
   18d35:	31335b1b 	teqcc	r3, fp, lsl fp
   18d39:	61685b6d 	cmnvs	r8, sp, ror #22
   18d3d:	635f6f6c 	cmpvs	pc, #108, 30	; 0x1b0
   18d41:	1b5d696c 	blne	17732f9 <__bss_end__+0x1749b71>
   18d45:	3a6d305b 	bcc	1b64eb9 <__bss_end__+0x1b3b731>
   18d49:	252c7325 	strcs	r7, [ip, #-805]!	; 0x325
   18d4d:	2d2d2d64 	stccs	13, cr2, [sp, #-400]!	; 0xfffffe70
   18d51:	696c6320 	stmdbvs	ip!, {r5, r8, r9, sp, lr}^
   18d55:	20746e65 	rsbscs	r6, r4, r5, ror #28
   18d59:	736f6c63 	cmnvc	pc, #25344	; 0x6300
   18d5d:	000a2165 	andeq	r2, sl, r5, ror #2
   18d61:	36335b1b 			; <UNDEFINED> instruction: 0x36335b1b
   18d65:	61685b6d 	cmnvs	r8, sp, ror #22
   18d69:	725f6f6c 	subsvc	r6, pc, #108, 30	; 0x1b0
   18d6d:	73696765 	cmnvc	r9, #26476544	; 0x1940000
   18d71:	5b1b5d74 	blpl	6f0349 <__bss_end__+0x6c6bc1>
   18d75:	253a6d30 	ldrcs	r6, [sl, #-3376]!	; 0xd30
   18d79:	64252c73 	strtvs	r2, [r5], #-3187	; 0xc73
   18d7d:	202d2d2d 	eorcs	r2, sp, sp, lsr #26
   18d81:	20746567 	rsbscs	r6, r4, r7, ror #10
   18d85:	75736572 	ldrbvc	r6, [r3, #-1394]!	; 0x572
   18d89:	2520746c 	strcs	r7, [r0, #-1132]!	; 0x46c
   18d8d:	25203a64 	strcs	r3, [r0, #-2660]!	; 0xa64
   18d91:	68000a73 	stmdavs	r0, {r0, r1, r4, r5, r6, r9, fp}
   18d95:	5f6f6c61 	svcpl	0x006f6c61
   18d99:	70747468 	rsbsvc	r7, r4, r8, ror #8
   18d9d:	6765725f 			; <UNDEFINED> instruction: 0x6765725f
   18da1:	2e747369 	cdpcs	3, 7, cr7, cr4, cr9, {3}
   18da5:	5b1b0063 	blpl	6d8f39 <__bss_end__+0x6af7b1>
   18da9:	5b6d3633 	blpl	1b6667d <__bss_end__+0x1b3cef5>
   18dad:	6f6c6168 	svcvs	0x006c6168
   18db1:	6765725f 			; <UNDEFINED> instruction: 0x6765725f
   18db5:	5d747369 	ldclpl	3, cr7, [r4, #-420]!	; 0xfffffe5c
   18db9:	6d305b1b 	fldmdbxvs	r0!, {d5-d17}	;@ Deprecated
   18dbd:	2c73253a 	cfldr64cs	mvdx2, [r3], #-232	; 0xffffff18
   18dc1:	2d2d6425 	cfstrscs	mvf6, [sp, #-148]!	; 0xffffff6c
   18dc5:	6572202d 	ldrbvs	r2, [r2, #-45]!	; 0x2d
   18dc9:	74736967 	ldrbtvc	r6, [r3], #-2407	; 0x967
   18dcd:	69616620 	stmdbvs	r1!, {r5, r9, sl, sp, lr}^
   18dd1:	2064656c 	rsbcs	r6, r4, ip, ror #10
   18dd5:	000a6425 	andeq	r6, sl, r5, lsr #8
   18dd9:	36335b1b 			; <UNDEFINED> instruction: 0x36335b1b
   18ddd:	61685b6d 	cmnvs	r8, sp, ror #22
   18de1:	725f6f6c 	subsvc	r6, pc, #108, 30	; 0x1b0
   18de5:	73696765 	cmnvc	r9, #26476544	; 0x1940000
   18de9:	5b1b5d74 	blpl	6f03c1 <__bss_end__+0x6c6c39>
   18ded:	253a6d30 	ldrcs	r6, [sl, #-3376]!	; 0xd30
   18df1:	64252c73 	strtvs	r2, [r5], #-3187	; 0xc73
   18df5:	202d2d2d 	eorcs	r2, sp, sp, lsr #26
   18df9:	6c6c616d 	stfvse	f6, [ip], #-436	; 0xfffffe4c
   18dfd:	6620636f 	strtvs	r6, [r0], -pc, ror #6
   18e01:	656c6961 	strbvs	r6, [ip, #-2401]!	; 0x961
   18e05:	25000a64 	strcs	r0, [r0, #-2660]	; 0xa64
   18e09:	25732573 	ldrbcs	r2, [r3, #-1395]!	; 0x573
   18e0d:	25732573 	ldrbcs	r2, [r3, #-1395]!	; 0x573
   18e11:	30330073 	eorscc	r0, r3, r3, ror r0
   18e15:	39454236 	stmdbcc	r5, {r1, r2, r4, r5, r9, lr}^
   18e19:	33343138 	teqcc	r4, #56, 2
   18e1d:	43343237 	teqmi	r4, #1879048195	; 0x70000003
   18e21:	31383436 	teqcc	r8, r6, lsr r4
   18e25:	32463545 	subcc	r3, r6, #289406976	; 0x11400000
   18e29:	46374242 	ldrtmi	r4, [r7], -r2, asr #4
   18e2d:	31353936 	teqcc	r5, r6, lsr r9
   18e31:	37003544 	strcc	r3, [r0, -r4, asr #10]
   18e35:	33383035 	teqcc	r8, #53	; 0x35
   18e39:	33343232 	teqcc	r4, #536870915	; 0x20000003
   18e3d:	34333333 	ldrtcc	r3, [r3], #-819	; 0x333
   18e41:	39333533 	ldmdbcc	r3!, {r0, r1, r4, r5, r8, sl, ip, sp}
   18e45:	35370032 	ldrcc	r0, [r7, #-50]!	; 0x32
   18e49:	37333830 			; <UNDEFINED> instruction: 0x37333830
   18e4d:	31313632 	teqcc	r1, r2, lsr r6
   18e51:	31343739 	teqcc	r4, r9, lsr r7
   18e55:	30303434 	eorscc	r3, r0, r4, lsr r4
   18e59:	302e3100 	eorcc	r3, lr, r0, lsl #2
   18e5d:	25732500 	ldrbcs	r2, [r3, #-1280]!	; 0x500
   18e61:	00583230 	subseq	r3, r8, r0, lsr r2
   18e65:	00726576 	rsbseq	r6, r2, r6, ror r5
   18e69:	00736564 	rsbseq	r6, r3, r4, ror #10
   18e6d:	00646963 	rsbeq	r6, r4, r3, ror #18
   18e71:	00646973 	rsbeq	r6, r4, r3, ror r9
   18e75:	0079656b 	rsbseq	r6, r9, fp, ror #10
   18e79:	006e656c 	rsbeq	r6, lr, ip, ror #10
   18e7d:	00746164 	rsbseq	r6, r4, r4, ror #2
   18e81:	69766564 	ldmdbvs	r6!, {r2, r5, r6, r8, sl, sp, lr}^
   18e85:	75476563 	strbvc	r6, [r7, #-1379]	; 0x563
   18e89:	37006469 	strcc	r6, [r0, -r9, ror #8]
   18e8d:	31303034 	teqcc	r0, r4, lsr r0
   18e91:	31353038 	teqcc	r5, r8, lsr r0
   18e95:	31303031 	teqcc	r0, r1, lsr r0
   18e99:	65640032 	strbvs	r0, [r4, #-50]!	; 0x32
   18e9d:	65636976 	strbvs	r6, [r3, #-2422]!	; 0x976
   18ea1:	68004e53 	stmdavs	r0, {r0, r1, r4, r6, r9, sl, fp, lr}
   18ea5:	3a707474 	bcc	1c3607d <__bss_end__+0x1c0c8f5>
   18ea9:	39312f2f 	ldmdbcc	r1!, {r0, r1, r2, r3, r5, r8, r9, sl, fp, sp}
   18ead:	36312e32 			; <UNDEFINED> instruction: 0x36312e32
   18eb1:	2e322e38 	mrccs	14, 1, r2, cr2, cr8, {1}
   18eb5:	30383a39 	eorscc	r3, r8, r9, lsr sl
   18eb9:	682f3038 	stmdavs	pc!, {r3, r4, r5, ip, sp}	; <UNPREDICTABLE>
   18ebd:	4165706f 	cmnmi	r5, pc, rrx
   18ec1:	752f6970 	strvc	r6, [pc, #-2416]!	; 18559 <_fini+0x9f5>
   18ec5:	61726770 	cmnvs	r2, r0, ror r7
   18ec9:	6d2f6564 	cfstr32vs	mvfx6, [pc, #-400]!	; 18d40 <firstByteMark+0x293>
   18ecd:	72006361 	andvc	r6, r0, #-2080374783	; 0x84000001
   18ed1:	65726665 	ldrbvs	r6, [r2, #-1637]!	; 0x665
   18ed5:	4965636e 	stmdbmi	r5!, {r1, r2, r3, r5, r6, r8, r9, sp, lr}^
   18ed9:	003a2264 	eorseq	r2, sl, r4, ror #4
   18edd:	36335b1b 			; <UNDEFINED> instruction: 0x36335b1b
   18ee1:	61685b6d 	cmnvs	r8, sp, ror #22
   18ee5:	725f6f6c 	subsvc	r6, pc, #108, 30	; 0x1b0
   18ee9:	73696765 	cmnvc	r9, #26476544	; 0x1940000
   18eed:	5b1b5d74 	blpl	6f04c5 <__bss_end__+0x6c6d3d>
   18ef1:	253a6d30 	ldrcs	r6, [sl, #-3376]!	; 0xd30
   18ef5:	64252c73 	strtvs	r2, [r5], #-3187	; 0xc73
   18ef9:	202d2d2d 	eorcs	r2, sp, sp, lsr #26
   18efd:	6c6c756e 	cfstr64vs	mvdx7, [ip], #-440	; 0xfffffe48
   18f01:	000a2121 	andeq	r2, sl, r1, lsr #2
   18f05:	6f6c6168 	svcvs	0x006c6168
   18f09:	6665725f 			; <UNDEFINED> instruction: 0x6665725f
   18f0d:	69726f5f 	ldmdbvs	r2!, {r0, r1, r2, r3, r4, r6, r8, r9, sl, fp, sp, lr}^
   18f11:	6c616800 	stclvs	8, cr6, [r1], #-0
   18f15:	65725f6f 	ldrbvs	r5, [r2, #-3951]!	; 0xf6f
   18f19:	74735f66 	ldrbtvc	r5, [r3], #-3942	; 0xf66
   18f1d:	61680072 	smcvs	32770	; 0x8002
   18f21:	725f6f6c 	subsvc	r6, pc, #108, 30	; 0x1b0
   18f25:	685f6665 	ldmdavs	pc, {r0, r2, r5, r6, r9, sl, sp, lr}^	; <UNPREDICTABLE>
   18f29:	48007865 	stmdami	r0, {r0, r2, r5, r6, fp, ip, sp, lr}
   18f2d:	0045504f 	subeq	r5, r5, pc, asr #32
   18f31:	4e6d6f63 	cdpmi	15, 6, cr6, cr13, cr3, {3}
   18f35:	00656d61 	rsbeq	r6, r5, r1, ror #26
   18f39:	69766564 	ldmdbvs	r6!, {r2, r5, r6, r8, sl, sp, lr}^
   18f3d:	614e6563 	cmpvs	lr, r3, ror #10
   18f41:	6400656d 	strvs	r6, [r0], #-1389	; 0x56d
   18f45:	63697665 	cmnvs	r9, #105906176	; 0x6500000
   18f49:	74614365 	strbtvc	r4, [r1], #-869	; 0x365
   18f4d:	74610061 	strbtvc	r0, [r1], #-97	; 0x61
   18f51:	30363373 	eorscc	r3, r6, r3, ror r3
   18f55:	65642d35 	strbvs	r2, [r4, #-3381]!	; 0xd35
   18f59:	2d677562 	cfstr64cs	mvdx7, [r7, #-392]!	; 0xfffffe78
   18f5d:	00312e30 	eorseq	r2, r1, r0, lsr lr
   18f61:	6d726966 	ldclvs	9, cr6, [r2, #-408]!	; 0xfffffe68
   18f65:	73726556 	cmnvc	r2, #360710144	; 0x15800000
   18f69:	006e6f69 	rsbeq	r6, lr, r9, ror #30
   18f6d:	74666f73 	strbtvc	r6, [r6], #-3955	; 0xf73
   18f71:	73726556 	cmnvc	r2, #360710144	; 0x15800000
   18f75:	006e6f69 	rsbeq	r6, lr, r9, ror #30
   18f79:	4163616d 	cmnmi	r3, sp, ror #2
   18f7d:	65726464 	ldrbvs	r6, [r2, #-1124]!	; 0x464
   18f81:	5f007373 	svcpl	0x00007373
   18f85:	74736574 	ldrbtvc	r6, [r3], #-1396	; 0x574
   18f89:	616c7000 	cmnvs	ip, r0
   18f8d:	54726579 	ldrbtpl	r6, [r2], #-1401	; 0x579
   18f91:	00657079 	rsbeq	r7, r5, r9, ror r0
   18f95:	79616c70 	stmdbvc	r1!, {r4, r5, r6, sl, fp, sp, lr}^
   18f99:	65567265 	ldrbvs	r7, [r6, #-613]	; 0x265
   18f9d:	6f697372 	svcvs	0x00697372
   18fa1:	616d006e 	cmnvs	sp, lr, rrx
   18fa5:	72657473 	rsbvc	r7, r5, #1929379840	; 0x73000000
   18fa9:	54676200 	strbtpl	r6, [r7], #-512	; 0x200
   18fad:	00657079 	rsbeq	r7, r5, r9, ror r0
   18fb1:	2e322e31 	mrccs	14, 1, r2, cr2, cr1, {1}
   18fb5:	67620033 			; <UNDEFINED> instruction: 0x67620033
   18fb9:	73726556 	cmnvc	r2, #360710144	; 0x15800000
   18fbd:	006e6f69 	rsbeq	r6, lr, r9, ror #30
   18fc1:	656c6572 	strbvs	r6, [ip, #-1394]!	; 0x572
   18fc5:	2d657361 	stclcs	3, cr7, [r5, #-388]!	; 0xfffffe7c
   18fc9:	45504f48 	ldrbmi	r4, [r0, #-3912]	; 0xf48
   18fcd:	0033512d 	eorseq	r5, r3, sp, lsr #2
   18fd1:	72677075 	rsbvc	r7, r7, #117	; 0x75
   18fd5:	43656461 	cmnmi	r5, #1627389952	; 0x61000000
   18fd9:	6e6e6168 	powvsez	f6, f6, #0.0
   18fdd:	61006c65 	tstvs	r0, r5, ror #24
   18fe1:	36337374 			; <UNDEFINED> instruction: 0x36337374
   18fe5:	64003530 	strvs	r3, [r0], #-1328	; 0x530
   18fe9:	63697665 	cmnvs	r9, #105906176	; 0x6500000
   18fed:	69724465 	ldmdbvs	r2!, {r0, r2, r5, r6, sl, lr}^
   18ff1:	37006576 	smlsdxcc	r0, r6, r5, r6
   18ff5:	39333335 	ldmdbcc	r3!, {r0, r2, r4, r5, r8, r9, ip, sp}
   18ff9:	35343036 	ldrcc	r3, [r4, #-54]!	; 0x36
   18ffd:	30343737 	eorscc	r3, r4, r7, lsr r7
   19001:	33343839 	teqcc	r4, #3735552	; 0x390000
   19005:	61700032 	cmnvs	r0, r2, lsr r0
   19009:	746e6572 	strbtvc	r6, [lr], #-1394	; 0x572
   1900d:	68006449 	stmdavs	r0, {r0, r3, r6, sl, sp, lr}
   19011:	3a707474 	bcc	1c361e9 <__bss_end__+0x1c0ca61>
   19015:	39312f2f 	ldmdbcc	r1!, {r0, r1, r2, r3, r5, r8, r9, sl, fp, sp}
   19019:	36312e32 			; <UNDEFINED> instruction: 0x36312e32
   1901d:	2e322e38 	mrccs	14, 1, r2, cr2, cr8, {1}
   19021:	30383a39 	eorscc	r3, r8, r9, lsr sl
   19025:	682f3038 	stmdavs	pc!, {r3, r4, r5, ip, sp}	; <UNPREDICTABLE>
   19029:	4165706f 	cmnmi	r5, pc, rrx
   1902d:	642f6970 	strtvs	r6, [pc], #-2416	; 19035 <firstByteMark+0x588>
   19031:	63697665 	cmnvs	r9, #105906176	; 0x6500000
   19035:	65722f65 	ldrbvs	r2, [r2, #-3941]!	; 0xf65
   19039:	74736967 	ldrbtvc	r6, [r3], #-2407	; 0x967
   1903d:	64007265 	strvs	r7, [r0], #-613	; 0x265
   19041:	63697665 	cmnvs	r9, #105906176	; 0x6500000
   19045:	00644965 	rsbeq	r4, r4, r5, ror #18
   19049:	666f7270 			; <UNDEFINED> instruction: 0x666f7270
   1904d:	00656c69 	rsbeq	r6, r5, r9, ror #24
   19051:	79616c70 	stmdbvc	r1!, {r4, r5, r6, sl, fp, sp, lr}^
   19055:	6e6f6300 	cdpvs	3, 6, cr6, cr15, cr0, {0}
   19059:	6c6f7274 	sfmvs	f7, 2, [pc], #-464	; 18e90 <firstByteMark+0x3e3>
   1905d:	696b7300 	stmdbvs	fp!, {r8, r9, ip, sp, lr}^
   19061:	64690070 	strbtvs	r0, [r9], #-112	; 0x70
   19065:	006c6f76 	rsbeq	r6, ip, r6, ror pc
   19069:	6574756d 	ldrbvs	r7, [r4, #-1389]!	; 0x56d
   1906d:	74657300 	strbtvc	r7, [r5], #-768	; 0x300
   19071:	006c6f76 	rsbeq	r6, ip, r6, ror pc
   19075:	72756f73 	rsbsvc	r6, r5, #460	; 0x1cc
   19079:	65006563 	strvs	r6, [r0, #-1379]	; 0x563
   1907d:	63656666 	cmnvs	r5, #106954752	; 0x6600000
   19081:	6f6d0074 	svcvs	0x006d0074
   19085:	006c6564 	rsbeq	r6, ip, r4, ror #10
   19089:	61636f6c 	cmnvs	r3, ip, ror #30
   1908d:	6800656c 	stmdavs	r0, {r2, r3, r5, r6, r8, sl, sp, lr}
   19091:	3a707474 	bcc	1c36269 <__bss_end__+0x1c0cae1>
   19095:	39312f2f 	ldmdbcc	r1!, {r0, r1, r2, r3, r5, r8, r9, sl, fp, sp}
   19099:	36312e32 			; <UNDEFINED> instruction: 0x36312e32
   1909d:	2e322e38 	mrccs	14, 1, r2, cr2, cr8, {1}
   190a1:	30383a39 	eorscc	r3, r8, r9, lsr sl
   190a5:	682f3038 	stmdavs	pc!, {r3, r4, r5, ip, sp}	; <UNPREDICTABLE>
   190a9:	4165706f 	cmnmi	r5, pc, rrx
   190ad:	642f6970 	strtvs	r6, [pc], #-2416	; 190b5 <firstByteMark+0x608>
   190b1:	63697665 	cmnvs	r9, #105906176	; 0x6500000
   190b5:	74732f65 	ldrbtvc	r2, [r3], #-3941	; 0xf65
   190b9:	73757461 	cmnvc	r5, #1627389952	; 0x61000000
   190bd:	335b1b00 	cmpcc	fp, #0, 22
   190c1:	685b6d36 	ldmdavs	fp, {r1, r2, r4, r5, r8, sl, fp, sp, lr}^
   190c5:	5f6f6c61 	svcpl	0x006f6c61
   190c9:	69676572 	stmdbvs	r7!, {r1, r4, r5, r6, r8, sl, sp, lr}^
   190cd:	1b5d7473 	blne	17762a1 <__bss_end__+0x174cb19>
   190d1:	3a6d305b 	bcc	1b65245 <__bss_end__+0x1b3babd>
   190d5:	252c7325 	strcs	r7, [ip, #-805]!	; 0x325
   190d9:	2d2d2d64 	stccs	13, cr2, [sp, #-400]!	; 0xfffffe70
   190dd:	74656720 	strbtvc	r6, [r5], #-1824	; 0x720
   190e1:	66657220 	strbtvs	r7, [r5], -r0, lsr #4
   190e5:	66206469 	strtvs	r6, [r0], -r9, ror #8
   190e9:	656c6961 	strbvs	r6, [ip, #-2401]!	; 0x961
   190ed:	68000a64 	stmdavs	r0, {r2, r5, r6, r9, fp}
   190f1:	5f6f6c61 	svcpl	0x006f6c61
   190f5:	68747561 	ldmdavs	r4!, {r0, r5, r6, r8, sl, ip, sp, lr}^
   190f9:	646f635f 	strbtvs	r6, [pc], #-863	; 19101 <firstByteMark+0x654>
   190fd:	5b1b0065 	blpl	6d9299 <__bss_end__+0x6afb11>
   19101:	5b6d3633 	blpl	1b669d5 <__bss_end__+0x1b3d24d>
   19105:	6f6c6168 	svcvs	0x006c6168
   19109:	6765725f 			; <UNDEFINED> instruction: 0x6765725f
   1910d:	5d747369 	ldclpl	3, cr7, [r4, #-420]!	; 0xfffffe5c
   19111:	6d305b1b 	fldmdbxvs	r0!, {d5-d17}	;@ Deprecated
   19115:	2c73253a 	cfldr64cs	mvdx2, [r3], #-232	; 0xffffff18
   19119:	2d2d6425 	cfstrscs	mvf6, [sp, #-148]!	; 0xffffff6c
   1911d:	6567202d 	strbvs	r2, [r7, #-45]!	; 0x2d
   19121:	75612074 	strbvc	r2, [r1, #-116]!	; 0x74
   19125:	66206874 			; <UNDEFINED> instruction: 0x66206874
   19129:	656c6961 	strbvs	r6, [ip, #-2401]!	; 0x961
   1912d:	41000a64 	tstmi	r0, r4, ror #20
   19131:	415f494c 	cmpmi	pc, ip, asr #18
   19135:	55555f49 	ldrbpl	r5, [r5, #-3913]	; 0xf49
   19139:	61004449 	tstvs	r0, r9, asr #8
   1913d:	43687475 	cmnmi	r8, #1962934272	; 0x75000000
   19141:	0065646f 	rsbeq	r6, r5, pc, ror #8
   19145:	37343737 			; <UNDEFINED> instruction: 0x37343737
   19149:	32373230 	eorscc	r3, r7, #48, 4
   1914d:	37323835 			; <UNDEFINED> instruction: 0x37323835
   19151:	33303439 	teqcc	r0, #956301312	; 0x39000000
   19155:	70003235 	andvc	r3, r0, r5, lsr r2
   19159:	6674616c 	ldrbtvs	r6, [r4], -ip, ror #2
   1915d:	496d726f 	stmdbmi	sp!, {r0, r1, r2, r3, r5, r6, r9, ip, sp, lr}^
   19161:	75750064 	ldrbvc	r0, [r5, #-100]!	; 0x64
   19165:	68006469 	stmdavs	r0, {r0, r3, r5, r6, sl, sp, lr}
   19169:	3a707474 	bcc	1c36341 <__bss_end__+0x1c0cbb9>
   1916d:	39312f2f 	ldmdbcc	r1!, {r0, r1, r2, r3, r5, r8, r9, sl, fp, sp}
   19171:	36312e32 			; <UNDEFINED> instruction: 0x36312e32
   19175:	2e322e38 	mrccs	14, 1, r2, cr2, cr8, {1}
   19179:	30383a39 	eorscc	r3, r8, r9, lsr sl
   1917d:	682f3038 	stmdavs	pc!, {r3, r4, r5, ip, sp}	; <UNPREDICTABLE>
   19181:	4165706f 	cmnmi	r5, pc, rrx
   19185:	642f6970 	strtvs	r6, [pc], #-2416	; 1918d <firstByteMark+0x6e0>
   19189:	63697665 	cmnvs	r9, #105906176	; 0x6500000
   1918d:	64652f65 	strbtvs	r2, [r5], #-3941	; 0xf65
   19191:	6f4a7469 	svcvs	0x004a7469
   19195:	6f006e69 	svcvs	0x00006e69
   19199:	63656a62 	cmnvs	r5, #401408	; 0x62000
   1919d:	5b1b0074 	blpl	6d9375 <__bss_end__+0x6afbed>
   191a1:	5b6d3633 	blpl	1b66a75 <__bss_end__+0x1b3d2ed>
   191a5:	6f6c6168 	svcvs	0x006c6168
   191a9:	6765725f 			; <UNDEFINED> instruction: 0x6765725f
   191ad:	5d747369 	ldclpl	3, cr7, [r4, #-420]!	; 0xfffffe5c
   191b1:	6d305b1b 	fldmdbxvs	r0!, {d5-d17}	;@ Deprecated
   191b5:	2c73253a 	cfldr64cs	mvdx2, [r3], #-232	; 0xffffff18
   191b9:	2d2d6425 	cfstrscs	mvf6, [sp, #-148]!	; 0xffffff6c
   191bd:	6567202d 	strbvs	r2, [r7, #-45]!	; 0x2d
   191c1:	75612074 	strbvc	r2, [r1, #-116]!	; 0x74
   191c5:	6f636874 	svcvs	0x00636874
   191c9:	25206564 	strcs	r6, [r0, #-1380]!	; 0x564
   191cd:	1b000a73 	blne	1bba1 <__EH_FRAME_BEGIN__+0x28d9>
   191d1:	6d36335b 	ldcvs	3, cr3, [r6, #-364]!	; 0xfffffe94
   191d5:	6c61685b 	stclvs	8, cr6, [r1], #-364	; 0xfffffe94
   191d9:	65725f6f 	ldrbvs	r5, [r2, #-3951]!	; 0xf6f
   191dd:	74736967 	ldrbtvc	r6, [r3], #-2407	; 0x967
   191e1:	305b1b5d 	subscc	r1, fp, sp, asr fp
   191e5:	73253a6d 	teqvc	r5, #446464	; 0x6d000
   191e9:	2d64252c 	cfstr64cs	mvdx2, [r4, #-176]!	; 0xffffff50
   191ed:	69202d2d 	stmdbvs	r0!, {r0, r2, r3, r5, r8, sl, fp, sp}
   191f1:	3274696e 	rsbscc	r6, r4, #1802240	; 0x1b8000
   191f5:	21212120 	teqcs	r1, r0, lsr #2
   191f9:	0a212121 	beq	861685 <__bss_end__+0x837efd>
   191fd:	335b1b00 	cmpcc	fp, #0, 22
   19201:	685b6d36 	ldmdavs	fp, {r1, r2, r4, r5, r8, sl, fp, sp, lr}^
   19205:	5f6f6c61 	svcpl	0x006f6c61
   19209:	69676572 	stmdbvs	r7!, {r1, r4, r5, r6, r8, sl, sp, lr}^
   1920d:	1b5d7473 	blne	17763e1 <__bss_end__+0x174cc59>
   19211:	3a6d305b 	bcc	1b65385 <__bss_end__+0x1b3bbfd>
   19215:	252c7325 	strcs	r7, [ip, #-805]!	; 0x325
   19219:	2d2d2d64 	stccs	13, cr2, [sp, #-400]!	; 0xfffffe70
   1921d:	67657220 	strbvs	r7, [r5, -r0, lsr #4]!
   19221:	20747369 	rsbscs	r7, r4, r9, ror #6
   19225:	75736572 	ldrbvc	r6, [r3, #-1394]!	; 0x572
   19229:	6920746c 	stmdbvs	r0!, {r2, r3, r5, r6, sl, ip, sp, lr}
   1922d:	64252073 	strtvs	r2, [r5], #-115	; 0x73
   19231:	5b1b000a 	blpl	6d9261 <__bss_end__+0x6afad9>
   19235:	5b6d3133 	blpl	1b65709 <__bss_end__+0x1b3bf81>
   19239:	6f6c6168 	svcvs	0x006c6168
   1923d:	6f72705f 	svcvs	0x0072705f
   19241:	74637564 	strbtvc	r7, [r3], #-1380	; 0x564
   19245:	305b1b5d 	subscc	r1, fp, sp, asr fp
   19249:	73253a6d 	teqvc	r5, #446464	; 0x6d000
   1924d:	2d64252c 	cfstr64cs	mvdx2, [r4, #-176]!	; 0xffffff50
   19251:	73202d2d 	teqvc	r0, #2880	; 0xb40
   19255:	656b636f 	strbvs	r6, [fp, #-879]!	; 0x36f
   19259:	68000a74 	stmdavs	r0, {r2, r4, r5, r6, r9, fp}
   1925d:	5f6f6c61 	svcpl	0x006f6c61
   19261:	646f7270 	strbtvs	r7, [pc], #-624	; 19269 <firstByteMark+0x7bc>
   19265:	2e746375 	mrccs	3, 3, r6, cr4, cr5, {3}
   19269:	6c770063 	ldclvs	0, cr0, [r7], #-396	; 0xfffffe74
   1926d:	00306e61 	eorseq	r6, r0, r1, ror #28
   19271:	31335b1b 	teqcc	r3, fp, lsl fp
   19275:	61685b6d 	cmnvs	r8, sp, ror #22
   19279:	705f6f6c 	subsvc	r6, pc, ip, ror #30
   1927d:	75646f72 	strbvc	r6, [r4, #-3954]!	; 0xf72
   19281:	1b5d7463 	blne	1776415 <__bss_end__+0x174cc8d>
   19285:	3a6d305b 	bcc	1b653f9 <__bss_end__+0x1b3bc71>
   19289:	252c7325 	strcs	r7, [ip, #-805]!	; 0x325
   1928d:	2d2d2d64 	stccs	13, cr2, [sp, #-400]!	; 0xfffffe70
   19291:	636f6920 	cmnvs	pc, #32, 18	; 0x80000
   19295:	000a6c74 	andeq	r6, sl, r4, ror ip
   19299:	32302e25 	eorscc	r2, r0, #592	; 0x250
   1929d:	2e253a58 	mcrcs	10, 1, r3, cr5, cr8, {2}
   192a1:	3a583230 	bcc	1625b69 <__bss_end__+0x15fc3e1>
   192a5:	32302e25 	eorscc	r2, r0, #592	; 0x250
   192a9:	2e253a58 	mcrcs	10, 1, r3, cr5, cr8, {2}
   192ad:	3a583230 	bcc	1625b75 <__bss_end__+0x15fc3ed>
   192b1:	32302e25 	eorscc	r2, r0, #592	; 0x250
   192b5:	2e253a58 	mcrcs	10, 1, r3, cr5, cr8, {2}
   192b9:	00583230 	subseq	r3, r8, r0, lsr r2
   192bd:	5f494c41 	svcpl	0x00494c41
   192c1:	535f4941 	cmppl	pc, #1064960	; 0x104000
   192c5:	Address 0x00000000000192c5 is out of bounds.


Disassembly of section .eh_frame:

000192c8 <__EH_FRAME_BEGIN__>:
   192c8:	00000000 	andeq	r0, r0, r0

Disassembly of section .init_array:

000292cc <__frame_dummy_init_array_entry>:
   292cc:	000115f0 	strdeq	r1, [r1], -r0

Disassembly of section .fini_array:

000292d0 <__do_global_dtors_aux_fini_array_entry>:
   292d0:	000115a8 	andeq	r1, r1, r8, lsr #11

Disassembly of section .dynamic:

000292d4 <_DYNAMIC>:
   292d4:	00000001 	andeq	r0, r0, r1
   292d8:	00000001 	andeq	r0, r0, r1
   292dc:	00000001 	andeq	r0, r0, r1
   292e0:	000000c3 	andeq	r0, r0, r3, asr #1
   292e4:	00000001 	andeq	r0, r0, r1
   292e8:	00000140 	andeq	r0, r0, r0, asr #2
   292ec:	00000001 	andeq	r0, r0, r1
   292f0:	0000014b 	andeq	r0, r0, fp, asr #2
   292f4:	00000001 	andeq	r0, r0, r1
   292f8:	00000166 	andeq	r0, r0, r6, ror #2
   292fc:	00000001 	andeq	r0, r0, r1
   29300:	00000171 	andeq	r0, r0, r1, ror r1
   29304:	00000001 	andeq	r0, r0, r1
   29308:	00000190 	muleq	r0, r0, r1
   2930c:	00000001 	andeq	r0, r0, r1
   29310:	000001b5 			; <UNDEFINED> instruction: 0x000001b5
   29314:	00000001 	andeq	r0, r0, r1
   29318:	000001c9 	andeq	r0, r0, r9, asr #3
   2931c:	00000001 	andeq	r0, r0, r1
   29320:	000001d7 	ldrdeq	r0, [r0], -r7
   29324:	00000001 	andeq	r0, r0, r1
   29328:	000002a4 	andeq	r0, r0, r4, lsr #5
   2932c:	00000001 	andeq	r0, r0, r1
   29330:	00000317 	andeq	r0, r0, r7, lsl r3
   29334:	00000001 	andeq	r0, r0, r1
   29338:	00000323 	andeq	r0, r0, r3, lsr #6
   2933c:	00000001 	andeq	r0, r0, r1
   29340:	00000338 	andeq	r0, r0, r8, lsr r3
   29344:	00000001 	andeq	r0, r0, r1
   29348:	00000359 	andeq	r0, r0, r9, asr r3
   2934c:	00000001 	andeq	r0, r0, r1
   29350:	00000370 	andeq	r0, r0, r0, ror r3
   29354:	00000001 	andeq	r0, r0, r1
   29358:	00000387 	andeq	r0, r0, r7, lsl #7
   2935c:	00000001 	andeq	r0, r0, r1
   29360:	00000396 	muleq	r0, r6, r3
   29364:	00000001 	andeq	r0, r0, r1
   29368:	000003c3 	andeq	r0, r0, r3, asr #7
   2936c:	00000001 	andeq	r0, r0, r1
   29370:	0000041d 	andeq	r0, r0, sp, lsl r4
   29374:	0000000c 	andeq	r0, r0, ip
   29378:	000110e8 	andeq	r1, r1, r8, ror #1
   2937c:	0000000d 	andeq	r0, r0, sp
   29380:	00017b64 	andeq	r7, r1, r4, ror #22
   29384:	00000019 	andeq	r0, r0, r9, lsl r0
   29388:	000292cc 	andeq	r9, r2, ip, asr #5
   2938c:	0000001b 	andeq	r0, r0, fp, lsl r0
   29390:	00000004 	andeq	r0, r0, r4
   29394:	0000001a 	andeq	r0, r0, sl, lsl r0
   29398:	000292d0 	ldrdeq	r9, [r2], -r0
   2939c:	0000001c 	andeq	r0, r0, ip, lsl r0
   293a0:	00000004 	andeq	r0, r0, r4
   293a4:	00000004 	andeq	r0, r0, r4
   293a8:	00010108 	andeq	r0, r1, r8, lsl #2
   293ac:	00000005 	andeq	r0, r0, r5
   293b0:	00010988 	andeq	r0, r1, r8, lsl #19
   293b4:	00000006 	andeq	r0, r0, r6
   293b8:	00010398 	muleq	r1, r8, r3
   293bc:	0000000a 	andeq	r0, r0, sl
   293c0:	00000525 	andeq	r0, r0, r5, lsr #10
   293c4:	0000000b 	andeq	r0, r0, fp
   293c8:	00000010 	andeq	r0, r0, r0, lsl r0
   293cc:	00000015 	andeq	r0, r0, r5, lsl r0
   293d0:	00000000 	andeq	r0, r0, r0
   293d4:	00000003 	andeq	r0, r0, r3
   293d8:	0002943c 	andeq	r9, r2, ip, lsr r4
   293dc:	00000002 	andeq	r0, r0, r2
   293e0:	00000220 	andeq	r0, r0, r0, lsr #4
   293e4:	00000014 	andeq	r0, r0, r4, lsl r0
   293e8:	00000011 	andeq	r0, r0, r1, lsl r0
   293ec:	00000017 	andeq	r0, r0, r7, lsl r0
   293f0:	00010ec8 	andeq	r0, r1, r8, asr #29
   293f4:	00000011 	andeq	r0, r0, r1, lsl r0
   293f8:	00010eb0 			; <UNDEFINED> instruction: 0x00010eb0
   293fc:	00000012 	andeq	r0, r0, r2, lsl r0
   29400:	00000018 	andeq	r0, r0, r8, lsl r0
   29404:	00000013 	andeq	r0, r0, r3, lsl r0
   29408:	00000008 	andeq	r0, r0, r8
	...

Disassembly of section .got:

0002943c <_GLOBAL_OFFSET_TABLE_>:
   2943c:	000292d4 	ldrdeq	r9, [r2], -r4
	...
   29448:	000110f8 	strdeq	r1, [r1], -r8
   2944c:	000110f8 	strdeq	r1, [r1], -r8
   29450:	000110f8 	strdeq	r1, [r1], -r8
   29454:	000110f8 	strdeq	r1, [r1], -r8
   29458:	000110f8 	strdeq	r1, [r1], -r8
   2945c:	000110f8 	strdeq	r1, [r1], -r8
   29460:	000110f8 	strdeq	r1, [r1], -r8
   29464:	000110f8 	strdeq	r1, [r1], -r8
   29468:	000110f8 	strdeq	r1, [r1], -r8
   2946c:	000110f8 	strdeq	r1, [r1], -r8
   29470:	000110f8 	strdeq	r1, [r1], -r8
   29474:	000110f8 	strdeq	r1, [r1], -r8
   29478:	000110f8 	strdeq	r1, [r1], -r8
   2947c:	000110f8 	strdeq	r1, [r1], -r8
   29480:	000110f8 	strdeq	r1, [r1], -r8
   29484:	000110f8 	strdeq	r1, [r1], -r8
   29488:	000110f8 	strdeq	r1, [r1], -r8
   2948c:	000110f8 	strdeq	r1, [r1], -r8
   29490:	000110f8 	strdeq	r1, [r1], -r8
   29494:	000110f8 	strdeq	r1, [r1], -r8
   29498:	000110f8 	strdeq	r1, [r1], -r8
   2949c:	000110f8 	strdeq	r1, [r1], -r8
   294a0:	000110f8 	strdeq	r1, [r1], -r8
   294a4:	000110f8 	strdeq	r1, [r1], -r8
   294a8:	000110f8 	strdeq	r1, [r1], -r8
   294ac:	000110f8 	strdeq	r1, [r1], -r8
   294b0:	000110f8 	strdeq	r1, [r1], -r8
   294b4:	000110f8 	strdeq	r1, [r1], -r8
   294b8:	000110f8 	strdeq	r1, [r1], -r8
   294bc:	000110f8 	strdeq	r1, [r1], -r8
   294c0:	000110f8 	strdeq	r1, [r1], -r8
   294c4:	000110f8 	strdeq	r1, [r1], -r8
   294c8:	000110f8 	strdeq	r1, [r1], -r8
   294cc:	000110f8 	strdeq	r1, [r1], -r8
   294d0:	000110f8 	strdeq	r1, [r1], -r8
   294d4:	000110f8 	strdeq	r1, [r1], -r8
   294d8:	000110f8 	strdeq	r1, [r1], -r8
   294dc:	000110f8 	strdeq	r1, [r1], -r8
   294e0:	000110f8 	strdeq	r1, [r1], -r8
   294e4:	000110f8 	strdeq	r1, [r1], -r8
   294e8:	000110f8 	strdeq	r1, [r1], -r8
   294ec:	000110f8 	strdeq	r1, [r1], -r8
   294f0:	000110f8 	strdeq	r1, [r1], -r8
   294f4:	000110f8 	strdeq	r1, [r1], -r8
   294f8:	000110f8 	strdeq	r1, [r1], -r8
   294fc:	000110f8 	strdeq	r1, [r1], -r8
   29500:	000110f8 	strdeq	r1, [r1], -r8
   29504:	000110f8 	strdeq	r1, [r1], -r8
   29508:	000110f8 	strdeq	r1, [r1], -r8
   2950c:	000110f8 	strdeq	r1, [r1], -r8
   29510:	000110f8 	strdeq	r1, [r1], -r8
   29514:	000110f8 	strdeq	r1, [r1], -r8
   29518:	000110f8 	strdeq	r1, [r1], -r8
   2951c:	000110f8 	strdeq	r1, [r1], -r8
   29520:	000110f8 	strdeq	r1, [r1], -r8
   29524:	000110f8 	strdeq	r1, [r1], -r8
   29528:	000110f8 	strdeq	r1, [r1], -r8
   2952c:	000110f8 	strdeq	r1, [r1], -r8
   29530:	000110f8 	strdeq	r1, [r1], -r8
   29534:	000110f8 	strdeq	r1, [r1], -r8
   29538:	000110f8 	strdeq	r1, [r1], -r8
   2953c:	000110f8 	strdeq	r1, [r1], -r8
   29540:	000110f8 	strdeq	r1, [r1], -r8
   29544:	000110f8 	strdeq	r1, [r1], -r8
   29548:	000110f8 	strdeq	r1, [r1], -r8
   2954c:	000110f8 	strdeq	r1, [r1], -r8
   29550:	000110f8 	strdeq	r1, [r1], -r8
   29554:	000110f8 	strdeq	r1, [r1], -r8
   29558:	00015d5c 	andeq	r5, r1, ip, asr sp
   2955c:	00012ed0 	ldrdeq	r2, [r1], -r0
   29560:	00013558 	andeq	r3, r1, r8, asr r5
   29564:	00011628 	andeq	r1, r1, r8, lsr #12
   29568:	00000000 	andeq	r0, r0, r0
   2956c:	00015c24 	andeq	r5, r1, r4, lsr #24
   29570:	000296ec 	andeq	r9, r2, ip, ror #13
   29574:	00015dac 	andeq	r5, r1, ip, lsr #27
   29578:	00011620 	andeq	r1, r1, r0, lsr #12
   2957c:	00000000 	andeq	r0, r0, r0
   29580:	00015b80 	andeq	r5, r1, r0, lsl #23
   29584:	00011660 	andeq	r1, r1, r0, ror #12
   29588:	00013554 	andeq	r3, r1, r4, asr r5
   2958c:	00011828 	andeq	r1, r1, r8, lsr #16
   29590:	00000000 	andeq	r0, r0, r0
   29594:	0001374c 	andeq	r3, r1, ip, asr #14

Disassembly of section .data:

00029598 <__dso_handle>:
   29598:	00000000 	andeq	r0, r0, r0

0002959c <inits>:
   2959c:	0002959c 	muleq	r2, ip, r5
   295a0:	0002959c 	muleq	r2, ip, r5

000295a4 <loops>:
   295a4:	000295a4 	andeq	r9, r2, r4, lsr #11
   295a8:	000295a4 	andeq	r9, r2, r4, lsr #11

000295ac <sends>:
   295ac:	000295ac 	andeq	r9, r2, ip, lsr #11
   295b0:	000295ac 	andeq	r9, r2, ip, lsr #11

000295b4 <cJSON_malloc>:
   295b4:	000111b4 			; <UNDEFINED> instruction: 0x000111b4

000295b8 <cJSON_free>:
   295b8:	000113a0 	andeq	r1, r1, r0, lsr #7

000295bc <s_handle>:
   295bc:	ffffffff 			; <UNDEFINED> instruction: 0xffffffff
   295c0:	00002580 	andeq	r2, r0, r0, lsl #11
   295c4:	7665642f 	strbtvc	r6, [r5], -pc, lsr #8
   295c8:	7974742f 	ldmdbvc	r4!, {r0, r1, r2, r3, r5, sl, ip, sp, lr}^
   295cc:	00003453 	andeq	r3, r0, r3, asr r4
	...
   29648:	00000008 	andeq	r0, r0, r8
   2964c:	00000001 	andeq	r0, r0, r1
   29650:	0000006e 	andeq	r0, r0, lr, rrx

00029654 <s_handle>:
   29654:	ffffffff 			; <UNDEFINED> instruction: 0xffffffff
   29658:	2e323931 	mrccs	9, 1, r3, cr2, cr1, {1}
   2965c:	2e383631 	mrccs	6, 1, r3, cr8, cr1, {1}
   29660:	00392e32 	eorseq	r2, r9, r2, lsr lr
	...
   296d8:	000022b8 			; <UNDEFINED> instruction: 0x000022b8
	...

000296ec <PADDING>:
   296ec:	00000080 	andeq	r0, r0, r0, lsl #1
	...

Disassembly of section .bss:

0002972c <__bss_start>:
   2972c:	00000000 	andeq	r0, r0, r0

00029730 <object.9726>:
	...

00029748 <s_t_handle>:
	...

00029760 <s_handle>:
   29760:	00000000 	andeq	r0, r0, r0

00029764 <s_handle>:
   29764:	00000000 	andeq	r0, r0, r0

00029768 <s_udp_handle>:
	...

00029784 <ep>:
   29784:	00000000 	andeq	r0, r0, r0

Disassembly of section .comment:

00000000 <.comment>:
   0:	3a434347 	bcc	10d0d24 <__bss_end__+0x10a759c>
   4:	4e472820 	cdpmi	8, 4, cr2, cr7, cr0, {1}
   8:	33202955 	teqcc	r0, #1392640	; 0x154000
   c:	322e332e 	eorcc	r3, lr, #-1207959552	; 0xb8000000
  10:	30303220 	eorscc	r3, r0, r0, lsr #4
  14:	30303133 	eorscc	r3, r0, r3, lsr r1
  18:	44282035 	strtmi	r2, [r8], #-53	; 0x35
  1c:	61696265 	cmnvs	r9, r5, ror #4
  20:	7270206e 	rsbsvc	r2, r0, #110	; 0x6e
  24:	6c657265 	sfmvs	f7, 2, [r5], #-404	; 0xfffffe6c
  28:	65736165 	ldrbvs	r6, [r3, #-357]!	; 0x165
  2c:	43470029 	movtmi	r0, #28713	; 0x7029
  30:	28203a43 	stmdacs	r0!, {r0, r1, r6, r9, fp, ip, sp}
  34:	6e65704f 	cdpvs	0, 6, cr7, cr5, cr15, {2}
  38:	2f747257 	svccs	0x00747257
  3c:	616e694c 	cmnvs	lr, ip, asr #18
  40:	47206f72 			; <UNDEFINED> instruction: 0x47206f72
  44:	34204343 	strtcc	r4, [r0], #-835	; 0x343
  48:	322d382e 	eorcc	r3, sp, #3014656	; 0x2e0000
  4c:	2e343130 	mrccs	1, 1, r3, cr4, cr0, {1}
  50:	72203430 	eorvc	r3, r0, #48, 8	; 0x30000000
  54:	38333934 	ldmdacc	r3!, {r2, r4, r5, r8, fp, ip, sp}
  58:	34202939 	strtcc	r2, [r0], #-2361	; 0x939
  5c:	332e382e 	teqcc	lr, #3014656	; 0x2e0000
	...

Disassembly of section .ARM.attributes:

00000000 <.ARM.attributes>:
   0:	00003241 	andeq	r3, r0, r1, asr #4
   4:	61656100 	cmnvs	r5, r0, lsl #2
   8:	01006962 	tsteq	r0, r2, ror #18
   c:	00000028 	andeq	r0, r0, r8, lsr #32
  10:	412d3705 	teqmi	sp, r5, lsl #14
  14:	070a0600 	streq	r0, [sl, -r0, lsl #12]
  18:	09010841 	stmdbeq	r1, {r0, r6, fp}
  1c:	0c030a02 	stceq	10, cr0, [r3], {2}
  20:	14041201 	strne	r1, [r4], #-513	; 0x201
  24:	17011501 	strne	r1, [r1, -r1, lsl #10]
  28:	1a011803 	bne	4603c <__bss_end__+0x1c8b4>
  2c:	1c031b02 	stcne	11, cr1, [r3], {2}
  30:	Address 0x0000000000000030 is out of bounds.


Disassembly of section .debug_aranges:

00000000 <.debug_aranges>:
   0:	0000001c 	andeq	r0, r0, ip, lsl r0
   4:	00000002 	andeq	r0, r0, r2
   8:	00040000 	andeq	r0, r4, r0
   c:	00000000 	andeq	r0, r0, r0
  10:	00011504 	andeq	r1, r1, r4, lsl #10
  14:	0000003c 	andeq	r0, r0, ip, lsr r0
	...
  20:	00000024 	andeq	r0, r0, r4, lsr #32
  24:	00e60002 	rsceq	r0, r6, r2
  28:	00040000 	andeq	r0, r4, r0
  2c:	00000000 	andeq	r0, r0, r0
  30:	000110e8 	andeq	r1, r1, r8, ror #1
  34:	0000000c 	andeq	r0, r0, ip
  38:	00017b64 	andeq	r7, r1, r4, ror #22
  3c:	0000000c 	andeq	r0, r0, ip
	...
  48:	00000024 	andeq	r0, r0, r4, lsr #32
  4c:	01c80002 	biceq	r0, r8, r2
  50:	00040000 	andeq	r0, r4, r0
  54:	00000000 	andeq	r0, r0, r0
  58:	000110f4 	strdeq	r1, [r1], -r4
  5c:	00000004 	andeq	r0, r0, r4
  60:	00017b70 	andeq	r7, r1, r0, ror fp
  64:	00000004 	andeq	r0, r0, r4
	...

Disassembly of section .debug_info:

00000000 <.debug_info>:
   0:	000000e2 	andeq	r0, r0, r2, ror #1
   4:	00000002 	andeq	r0, r0, r2
   8:	01040000 	mrseq	r0, (UNDEF: 4)
   c:	00000000 	andeq	r0, r0, r0
  10:	00011504 	andeq	r1, r1, r4, lsl #10
  14:	00011540 	andeq	r1, r1, r0, asr #10
  18:	6362696c 	cmnvs	r2, #108, 18	; 0x1b0000
  1c:	7379732f 	cmnvc	r9, #-1140850688	; 0xbc000000
  20:	73706564 	cmnvc	r0, #100, 10	; 0x19000000
  24:	6e696c2f 	cdpvs	12, 6, cr6, cr9, cr15, {1}
  28:	612f7875 	teqvs	pc, r5, ror r8	; <UNPREDICTABLE>
  2c:	632f6d72 	teqvs	pc, #7296	; 0x1c80
  30:	2e317472 	mrccs	4, 1, r7, cr1, cr2, {3}
  34:	682f0053 	stmdavs	pc!, {r0, r1, r4, r6}	; <UNPREDICTABLE>
  38:	2f656d6f 	svccs	0x00656d6f
  3c:	61636f6c 	cmnvs	r3, ip, ror #30
  40:	43412f6c 	movtmi	r2, #8044	; 0x1f6c
  44:	4e4f4954 	mcrmi	9, 2, r4, cr15, cr4, {2}
  48:	6f732f53 	svcvs	0x00732f53
  4c:	687a676e 	ldmdavs	sl!, {r1, r2, r3, r5, r6, r8, r9, sl, sp, lr}^
  50:	6e696e69 	cdpvs	14, 6, cr6, cr9, cr9, {3}
  54:	706f2f67 	rsbvc	r2, pc, r7, ror #30
  58:	72776e65 	rsbsvc	r6, r7, #1616	; 0x650
  5c:	68632f74 	stmdavs	r3!, {r2, r4, r5, r6, r8, r9, sl, fp, sp}^
  60:	5f736f61 	svcpl	0x00736f61
  64:	6d6c6163 	stfvse	f6, [ip, #-396]!	; 0xfffffe74
  68:	6c2f7265 	sfmvs	f7, 4, [pc], #-404	; fffffedc <__bss_end__+0xfffd6754>
  6c:	61706f65 	cmnvs	r0, r5, ror #30
  70:	6f2f6472 	svcvs	0x002f6472
  74:	776e6570 			; <UNDEFINED> instruction: 0x776e6570
  78:	622f7472 	eorvs	r7, pc, #1912602624	; 0x72000000
  7c:	646c6975 	strbtvs	r6, [ip], #-2421	; 0x975
  80:	7269645f 	rsbvc	r6, r9, #1593835520	; 0x5f000000
  84:	6f6f742f 	svcvs	0x006f742f
  88:	6168636c 	cmnvs	r8, ip, ror #6
  8c:	612d6e69 	teqvs	sp, r9, ror #28
  90:	635f6d72 	cmpvs	pc, #7296	; 0x1c80
  94:	6574726f 	ldrbvs	r7, [r4, #-623]!	; 0x26f
  98:	35612d78 	strbcc	r2, [r1, #-3448]!	; 0xd78
  9c:	6f656e2b 	svcvs	0x00656e2b
  a0:	63675f6e 	cmnvs	r7, #440	; 0x1b8
  a4:	2e342d63 	cdpcs	13, 3, cr2, cr4, cr3, {3}
  a8:	696c2d38 	stmdbvs	ip!, {r3, r4, r5, r8, sl, fp, sp}^
  ac:	6f72616e 	svcvs	0x0072616e
  b0:	6c43755f 	cfstr64vs	mvdx7, [r3], {95}	; 0x5f
  b4:	2d636269 	sfmcs	f6, 2, [r3, #-420]!	; 0xfffffe5c
  b8:	2e392e30 	mrccs	14, 1, r2, cr9, cr0, {1}
  bc:	322e3333 	eorcc	r3, lr, #-872415232	; 0xcc000000
  c0:	6261655f 	rsbvs	r6, r1, #398458880	; 0x17c00000
  c4:	43752f69 	cmnmi	r5, #420	; 0x1a4
  c8:	6362696c 	cmnvs	r2, #108, 18	; 0x1b0000
  cc:	392e302d 	stmdbcc	lr!, {r0, r2, r3, r5, ip, sp}
  d0:	2e33332e 	cdpcs	3, 3, cr3, cr3, cr14, {1}
  d4:	4e470032 	mcrmi	0, 2, r0, cr7, cr2, {1}
  d8:	53412055 	movtpl	r2, #4181	; 0x1055
  dc:	322e3220 	eorcc	r3, lr, #32, 4
  e0:	00302e34 	eorseq	r2, r0, r4, lsr lr
  e4:	00de8001 	sbcseq	r8, lr, r1
  e8:	00020000 	andeq	r0, r2, r0
  ec:	00000014 	andeq	r0, r0, r4, lsl r0
  f0:	00620104 	rsbeq	r0, r2, r4, lsl #2
  f4:	00000000 	andeq	r0, r0, r0
  f8:	696c0000 	stmdbvs	ip!, {}^	; <UNPREDICTABLE>
  fc:	732f6362 	teqvc	pc, #-2013265919	; 0x88000001
 100:	65647379 	strbvs	r7, [r4, #-889]!	; 0x379
 104:	6c2f7370 	stcvs	3, cr7, [pc], #-448	; ffffff4c <__bss_end__+0xfffd67c4>
 108:	78756e69 	ldmdavc	r5!, {r0, r3, r5, r6, r9, sl, fp, sp, lr}^
 10c:	6d72612f 	ldfvse	f6, [r2, #-188]!	; 0xffffff44
 110:	7472632f 	ldrbtvc	r6, [r2], #-815	; 0x32f
 114:	00532e69 	subseq	r2, r3, r9, ror #28
 118:	6d6f682f 	stclvs	8, cr6, [pc, #-188]!	; 64 <_init-0x11084>
 11c:	6f6c2f65 	svcvs	0x006c2f65
 120:	2f6c6163 	svccs	0x006c6163
 124:	49544341 	ldmdbmi	r4, {r0, r6, r8, r9, lr}^
 128:	2f534e4f 	svccs	0x00534e4f
 12c:	676e6f73 			; <UNDEFINED> instruction: 0x676e6f73
 130:	6e69687a 	mcrvs	8, 3, r6, cr9, cr10, {3}
 134:	2f676e69 	svccs	0x00676e69
 138:	6e65706f 	cdpvs	0, 6, cr7, cr5, cr15, {3}
 13c:	2f747277 	svccs	0x00747277
 140:	6f616863 	svcvs	0x00616863
 144:	61635f73 	smcvs	13811	; 0x35f3
 148:	72656d6c 	rsbvc	r6, r5, #108, 26	; 0x1b00
 14c:	6f656c2f 	svcvs	0x00656c2f
 150:	64726170 	ldrbtvs	r6, [r2], #-368	; 0x170
 154:	65706f2f 	ldrbvs	r6, [r0, #-3887]!	; 0xf2f
 158:	7472776e 	ldrbtvc	r7, [r2], #-1902	; 0x76e
 15c:	6975622f 	ldmdbvs	r5!, {r0, r1, r2, r3, r5, r9, sp, lr}^
 160:	645f646c 	ldrbvs	r6, [pc], #-1132	; 168 <_init-0x10f80>
 164:	742f7269 	strtvc	r7, [pc], #-617	; 16c <_init-0x10f7c>
 168:	636c6f6f 	cmnvs	ip, #444	; 0x1bc
 16c:	6e696168 	powvsez	f6, f1, #0.0
 170:	6d72612d 	ldfvse	f6, [r2, #-180]!	; 0xffffff4c
 174:	726f635f 	rsbvc	r6, pc, #2080374785	; 0x7c000001
 178:	2d786574 	cfldr64cs	mvdx6, [r8, #-464]!	; 0xfffffe30
 17c:	6e2b3561 	cfsh64vs	mvdx3, mvdx11, #49
 180:	5f6e6f65 	svcpl	0x006e6f65
 184:	2d636367 	stclcs	3, cr6, [r3, #-412]!	; 0xfffffe64
 188:	2d382e34 	ldccs	14, cr2, [r8, #-208]!	; 0xffffff30
 18c:	616e696c 	cmnvs	lr, ip, ror #18
 190:	755f6f72 	ldrbvc	r6, [pc, #-3954]	; fffff226 <__bss_end__+0xfffd5a9e>
 194:	62696c43 	rsbvs	r6, r9, #17152	; 0x4300
 198:	2e302d63 	cdpcs	13, 3, cr2, cr0, cr3, {3}
 19c:	33332e39 	teqcc	r3, #912	; 0x390
 1a0:	655f322e 	ldrbvs	r3, [pc, #-558]	; ffffff7a <__bss_end__+0xfffd67f2>
 1a4:	2f696261 	svccs	0x00696261
 1a8:	696c4375 	stmdbvs	ip!, {r0, r2, r4, r5, r6, r8, r9, lr}^
 1ac:	302d6362 	eorcc	r6, sp, r2, ror #6
 1b0:	332e392e 	teqcc	lr, #753664	; 0xb8000
 1b4:	00322e33 	eorseq	r2, r2, r3, lsr lr
 1b8:	20554e47 	subscs	r4, r5, r7, asr #28
 1bc:	32205341 	eorcc	r5, r0, #67108865	; 0x4000001
 1c0:	2e34322e 	cdpcs	2, 3, cr3, cr4, cr14, {1}
 1c4:	80010030 	andhi	r0, r1, r0, lsr r0
 1c8:	000000de 	ldrdeq	r0, [r0], -lr
 1cc:	00260002 	eoreq	r0, r6, r2
 1d0:	01040000 	mrseq	r0, (UNDEF: 4)
 1d4:	000000c2 	andeq	r0, r0, r2, asr #1
 1d8:	00000020 	andeq	r0, r0, r0, lsr #32
 1dc:	6362696c 	cmnvs	r2, #108, 18	; 0x1b0000
 1e0:	7379732f 	cmnvc	r9, #-1140850688	; 0xbc000000
 1e4:	73706564 	cmnvc	r0, #100, 10	; 0x19000000
 1e8:	6e696c2f 	cdpvs	12, 6, cr6, cr9, cr15, {1}
 1ec:	612f7875 	teqvs	pc, r5, ror r8	; <UNPREDICTABLE>
 1f0:	632f6d72 	teqvs	pc, #7296	; 0x1c80
 1f4:	2e6e7472 	mcrcs	4, 3, r7, cr14, cr2, {3}
 1f8:	682f0053 	stmdavs	pc!, {r0, r1, r4, r6}	; <UNPREDICTABLE>
 1fc:	2f656d6f 	svccs	0x00656d6f
 200:	61636f6c 	cmnvs	r3, ip, ror #30
 204:	43412f6c 	movtmi	r2, #8044	; 0x1f6c
 208:	4e4f4954 	mcrmi	9, 2, r4, cr15, cr4, {2}
 20c:	6f732f53 	svcvs	0x00732f53
 210:	687a676e 	ldmdavs	sl!, {r1, r2, r3, r5, r6, r8, r9, sl, sp, lr}^
 214:	6e696e69 	cdpvs	14, 6, cr6, cr9, cr9, {3}
 218:	706f2f67 	rsbvc	r2, pc, r7, ror #30
 21c:	72776e65 	rsbsvc	r6, r7, #1616	; 0x650
 220:	68632f74 	stmdavs	r3!, {r2, r4, r5, r6, r8, r9, sl, fp, sp}^
 224:	5f736f61 	svcpl	0x00736f61
 228:	6d6c6163 	stfvse	f6, [ip, #-396]!	; 0xfffffe74
 22c:	6c2f7265 	sfmvs	f7, 4, [pc], #-404	; a0 <_init-0x11048>
 230:	61706f65 	cmnvs	r0, r5, ror #30
 234:	6f2f6472 	svcvs	0x002f6472
 238:	776e6570 			; <UNDEFINED> instruction: 0x776e6570
 23c:	622f7472 	eorvs	r7, pc, #1912602624	; 0x72000000
 240:	646c6975 	strbtvs	r6, [ip], #-2421	; 0x975
 244:	7269645f 	rsbvc	r6, r9, #1593835520	; 0x5f000000
 248:	6f6f742f 	svcvs	0x006f742f
 24c:	6168636c 	cmnvs	r8, ip, ror #6
 250:	612d6e69 	teqvs	sp, r9, ror #28
 254:	635f6d72 	cmpvs	pc, #7296	; 0x1c80
 258:	6574726f 	ldrbvs	r7, [r4, #-623]!	; 0x26f
 25c:	35612d78 	strbcc	r2, [r1, #-3448]!	; 0xd78
 260:	6f656e2b 	svcvs	0x00656e2b
 264:	63675f6e 	cmnvs	r7, #440	; 0x1b8
 268:	2e342d63 	cdpcs	13, 3, cr2, cr4, cr3, {3}
 26c:	696c2d38 	stmdbvs	ip!, {r3, r4, r5, r8, sl, fp, sp}^
 270:	6f72616e 	svcvs	0x0072616e
 274:	6c43755f 	cfstr64vs	mvdx7, [r3], {95}	; 0x5f
 278:	2d636269 	sfmcs	f6, 2, [r3, #-420]!	; 0xfffffe5c
 27c:	2e392e30 	mrccs	14, 1, r2, cr9, cr0, {1}
 280:	322e3333 	eorcc	r3, lr, #-872415232	; 0xcc000000
 284:	6261655f 	rsbvs	r6, r1, #398458880	; 0x17c00000
 288:	43752f69 	cmnmi	r5, #420	; 0x1a4
 28c:	6362696c 	cmnvs	r2, #108, 18	; 0x1b0000
 290:	392e302d 	stmdbcc	lr!, {r0, r2, r3, r5, ip, sp}
 294:	2e33332e 	cdpcs	3, 3, cr3, cr3, cr14, {1}
 298:	4e470032 	mcrmi	0, 2, r0, cr7, cr2, {1}
 29c:	53412055 	movtpl	r2, #4181	; 0x1055
 2a0:	322e3220 	eorcc	r3, lr, #32, 4
 2a4:	00302e34 	eorseq	r2, r0, r4, lsr lr
 2a8:	Address 0x00000000000002a8 is out of bounds.


Disassembly of section .debug_abbrev:

00000000 <.debug_abbrev>:
   0:	10001101 	andne	r1, r0, r1, lsl #2
   4:	12011106 	andne	r1, r1, #-2147483647	; 0x80000001
   8:	1b080301 	blne	200c14 <__bss_end__+0x1d748c>
   c:	13082508 	movwne	r2, #34056	; 0x8508
  10:	00000005 	andeq	r0, r0, r5
  14:	10001101 	andne	r1, r0, r1, lsl #2
  18:	03065506 	movweq	r5, #25862	; 0x6506
  1c:	25081b08 	strcs	r1, [r8, #-2824]	; 0xb08
  20:	00051308 	andeq	r1, r5, r8, lsl #6
  24:	11010000 	mrsne	r0, (UNDEF: 1)
  28:	55061000 	strpl	r1, [r6, #-0]
  2c:	1b080306 	blne	200c4c <__bss_end__+0x1d74c4>
  30:	13082508 	movwne	r2, #34056	; 0x8508
  34:	00000005 	andeq	r0, r0, r5

Disassembly of section .debug_line:

00000000 <.debug_line>:
   0:	0000005e 	andeq	r0, r0, lr, asr r0
   4:	00340002 	eorseq	r0, r4, r2
   8:	01020000 	mrseq	r0, (UNDEF: 2)
   c:	000d0efb 	strdeq	r0, [sp], -fp
  10:	01010101 	tsteq	r1, r1, lsl #2
  14:	01000000 	mrseq	r0, (UNDEF: 0)
  18:	6c010000 	stcvs	0, cr0, [r1], {-0}
  1c:	2f636269 	svccs	0x00636269
  20:	64737973 	ldrbtvs	r7, [r3], #-2419	; 0x973
  24:	2f737065 	svccs	0x00737065
  28:	756e696c 	strbvc	r6, [lr, #-2412]!	; 0x96c
  2c:	72612f78 	rsbvc	r2, r1, #120, 30	; 0x1e0
  30:	6300006d 	movwvs	r0, #109	; 0x6d
  34:	2e317472 	mrccs	4, 1, r7, cr1, cr2, {3}
  38:	00010053 	andeq	r0, r1, r3, asr r0
  3c:	05000000 	streq	r0, [r0, #-0]
  40:	01150402 	tsteq	r5, r2, lsl #8
  44:	01b00300 	lslseq	r0, r0, #6
  48:	2f322f01 	svccs	0x00322f01
  4c:	312e0d03 	teqcc	lr, r3, lsl #26
  50:	302e1603 	eorcc	r1, lr, r3, lsl #12
  54:	32332f31 	eorscc	r2, r3, #49, 30	; 0xc4
  58:	332e7103 	teqcc	lr, #-1073741824	; 0xc0000000
  5c:	0002022f 	andeq	r0, r2, pc, lsr #4
  60:	005c0101 	subseq	r0, ip, r1, lsl #2
  64:	00020000 	andeq	r0, r2, r0
  68:	00000034 	andeq	r0, r0, r4, lsr r0
  6c:	0efb0102 	cdpeq	1, 15, cr0, cr11, cr2, {0}
  70:	0101000d 	tsteq	r1, sp
  74:	00000101 	andeq	r0, r0, r1, lsl #2
  78:	00000100 	andeq	r0, r0, r0, lsl #2
  7c:	62696c01 	rsbvs	r6, r9, #256	; 0x100
  80:	79732f63 	ldmdbvc	r3!, {r0, r1, r5, r6, r8, r9, sl, fp, sp}^
  84:	70656473 	rsbvc	r6, r5, r3, ror r4
  88:	696c2f73 	stmdbvs	ip!, {r0, r1, r4, r5, r6, r8, r9, sl, fp, sp}^
  8c:	2f78756e 	svccs	0x0078756e
  90:	006d7261 	rsbeq	r7, sp, r1, ror #4
  94:	74726300 	ldrbtvc	r6, [r2], #-768	; 0x300
  98:	00532e69 	subseq	r2, r3, r9, ror #28
  9c:	00000001 	andeq	r0, r0, r1
  a0:	e8020500 	stmda	r2, {r8, sl}
  a4:	03000110 	movweq	r0, #272	; 0x110
  a8:	2f2f0113 	svccs	0x002f0113
  ac:	01000202 	tsteq	r0, r2, lsl #4
  b0:	02050001 	andeq	r0, r5, #1
  b4:	00017b64 	andeq	r7, r1, r4, ror #22
  b8:	2f012603 	svccs	0x00012603
  bc:	0002022f 	andeq	r0, r2, pc, lsr #4
  c0:	00580101 	subseq	r0, r8, r1, lsl #2
  c4:	00020000 	andeq	r0, r2, r0
  c8:	00000034 	andeq	r0, r0, r4, lsr r0
  cc:	0efb0102 	cdpeq	1, 15, cr0, cr11, cr2, {0}
  d0:	0101000d 	tsteq	r1, sp
  d4:	00000101 	andeq	r0, r0, r1, lsl #2
  d8:	00000100 	andeq	r0, r0, r0, lsl #2
  dc:	62696c01 	rsbvs	r6, r9, #256	; 0x100
  e0:	79732f63 	ldmdbvc	r3!, {r0, r1, r5, r6, r8, r9, sl, fp, sp}^
  e4:	70656473 	rsbvc	r6, r5, r3, ror r4
  e8:	696c2f73 	stmdbvs	ip!, {r0, r1, r4, r5, r6, r8, r9, sl, fp, sp}^
  ec:	2f78756e 	svccs	0x0078756e
  f0:	006d7261 	rsbeq	r7, sp, r1, ror #4
  f4:	74726300 	ldrbtvc	r6, [r2], #-768	; 0x300
  f8:	00532e6e 	subseq	r2, r3, lr, ror #28
  fc:	00000001 	andeq	r0, r0, r1
 100:	f4020500 	vst3.8	{d0,d2,d4}, [r2], r0
 104:	03000110 	movweq	r0, #272	; 0x110
 108:	0202010f 	andeq	r0, r2, #-1073741821	; 0xc0000003
 10c:	00010100 	andeq	r0, r1, r0, lsl #2
 110:	7b700205 	blvc	1c0092c <__bss_end__+0x1bd71a4>
 114:	1c030001 	stcne	0, cr0, [r3], {1}
 118:	00020201 	andeq	r0, r2, r1, lsl #4
 11c:	Address 0x000000000000011c is out of bounds.


Disassembly of section .debug_ranges:

00000000 <.debug_ranges>:
   0:	ffffffff 			; <UNDEFINED> instruction: 0xffffffff
   4:	00000000 	andeq	r0, r0, r0
   8:	000110e8 	andeq	r1, r1, r8, ror #1
   c:	000110f4 	strdeq	r1, [r1], -r4
  10:	00017b64 	andeq	r7, r1, r4, ror #22
  14:	00017b70 	andeq	r7, r1, r0, ror fp
	...
  20:	ffffffff 			; <UNDEFINED> instruction: 0xffffffff
  24:	00000000 	andeq	r0, r0, r0
  28:	000110f4 	strdeq	r1, [r1], -r4
  2c:	000110f8 	strdeq	r1, [r1], -r8
  30:	00017b70 	andeq	r7, r1, r0, ror fp
  34:	00017b74 	andeq	r7, r1, r4, ror fp
	...
